---
triple:          'arm64-apple-darwin'
binary-path:     '/Users/ribhabghimire/UON/UNI-sem2-y3/COMP3320/Raumschiff/Raumschiff'
relocations:
  - { offsetInCU: 0x52, offset: 0x52, size: 0x8, addend: 0x0, symName: _vertexShaderSource, symObjAddr: 0x3E930, symBinAddr: 0x10004C000, symSize: 0x0 }
  - { offsetInCU: 0x6C, offset: 0x6C, size: 0x8, addend: 0x0, symName: _fragmentShaderSource, symObjAddr: 0x3E938, symBinAddr: 0x10004C008, symSize: 0x0 }
  - { offsetInCU: 0x81, offset: 0x81, size: 0x8, addend: 0x0, symName: _rotationX, symObjAddr: 0x1C6D74, symBinAddr: 0x10004C030, symSize: 0x0 }
  - { offsetInCU: 0x9D, offset: 0x9D, size: 0x8, addend: 0x0, symName: _rotationY, symObjAddr: 0x1C6D78, symBinAddr: 0x10004C034, symSize: 0x0 }
  - { offsetInCU: 0xE6, offset: 0xE6, size: 0x8, addend: 0x0, symName: __ZN7tinyobjL14tryParseDoubleEPKcS1_Pd, symObjAddr: 0xE80C, symBinAddr: 0x10000FC48, symSize: 0x678 }
  - { offsetInCU: 0x111, offset: 0x111, size: 0x8, addend: 0x0, symName: __ZZN7tinyobjL14tryParseDoubleEPKcS1_PdE7pow_lut, symObjAddr: 0x3E9B8, symBinAddr: 0x100045CC8, symSize: 0x0 }
  - { offsetInCU: 0xAF3, offset: 0xAF3, size: 0x8, addend: 0x0, symName: __ZN7tinyobj25ParseTextureNameAndOptionEPNSt3__112basic_stringIcNS0_11char_traitsIcEENS0_9allocatorIcEEEEPNS_16texture_option_tEPKc, symObjAddr: 0x34, symBinAddr: 0x100001470, symSize: 0xA28 }
  - { offsetInCU: 0xB8C, offset: 0xB8C, size: 0x8, addend: 0x0, symName: __ZN7tinyobjL10parseOnOffEPPKcb, symObjAddr: 0xA88, symBinAddr: 0x100001EC4, symSize: 0x110 }
  - { offsetInCU: 0xBE7, offset: 0xBE7, size: 0x8, addend: 0x0, symName: __ZN7tinyobjL9parseRealEPPKcd, symObjAddr: 0xB98, symBinAddr: 0x100001FD4, symSize: 0xA8 }
  - { offsetInCU: 0xC51, offset: 0xC51, size: 0x8, addend: 0x0, symName: __ZN7tinyobjL10parseReal3EPfS0_S0_PPKcddd, symObjAddr: 0xC40, symBinAddr: 0x10000207C, symSize: 0x70 }
  - { offsetInCU: 0xCD5, offset: 0xCD5, size: 0x8, addend: 0x0, symName: __ZN7tinyobjL16parseTextureTypeEPPKcNS_14texture_type_tE, symObjAddr: 0xCB0, symBinAddr: 0x1000020EC, symSize: 0x228 }
  - { offsetInCU: 0xD30, offset: 0xD30, size: 0x8, addend: 0x0, symName: __ZN7tinyobjL8parseIntEPPKc, symObjAddr: 0xED8, symBinAddr: 0x100002314, symSize: 0x78 }
  - { offsetInCU: 0xD6D, offset: 0xD6D, size: 0x8, addend: 0x0, symName: __ZN7tinyobjL10parseReal2EPfS0_PPKcdd, symObjAddr: 0xF50, symBinAddr: 0x10000238C, symSize: 0x54 }
  - { offsetInCU: 0xDD3, offset: 0xDD3, size: 0x8, addend: 0x0, symName: __ZN7tinyobjL11parseStringEPPKc, symObjAddr: 0xFA4, symBinAddr: 0x1000023E0, symSize: 0x134 }
  - { offsetInCU: 0xE20, offset: 0xE20, size: 0x8, addend: 0x0, symName: __ZN7tinyobj7LoadMtlEPNSt3__13mapINS0_12basic_stringIcNS0_11char_traitsIcEENS0_9allocatorIcEEEEiNS0_4lessIS7_EENS5_INS0_4pairIKS7_iEEEEEEPNS0_6vectorINS_10material_tENS5_ISH_EEEEPNS0_13basic_istreamIcS4_EEPS7_SO_, symObjAddr: 0x1164, symBinAddr: 0x1000025A0, symSize: 0x1B18 }
  - { offsetInCU: 0x109E, offset: 0x109E, size: 0x8, addend: 0x0, symName: __ZN7tinyobjL12InitMaterialEPNS_10material_tE, symObjAddr: 0x2CA8, symBinAddr: 0x1000040E4, symSize: 0x308 }
  - { offsetInCU: 0x10E5, offset: 0x10E5, size: 0x8, addend: 0x0, symName: __ZN7tinyobjL11safeGetlineERNSt3__113basic_istreamIcNS0_11char_traitsIcEEEERNS0_12basic_stringIcS3_NS0_9allocatorIcEEEE, symObjAddr: 0x30B4, symBinAddr: 0x1000044F0, symSize: 0x158 }
  - { offsetInCU: 0x11E3, offset: 0x11E3, size: 0x8, addend: 0x0, symName: __ZN7tinyobjL8JoinPathERKNSt3__112basic_stringIcNS0_11char_traitsIcEENS0_9allocatorIcEEEES8_, symObjAddr: 0x41EC, symBinAddr: 0x100005628, symSize: 0x128 }
  - { offsetInCU: 0x12BB, offset: 0x12BB, size: 0x8, addend: 0x0, symName: __ZN7tinyobj7LoadObjEPNS_8attrib_tEPNSt3__16vectorINS_7shape_tENS2_9allocatorIS4_EEEEPNS3_INS_10material_tENS5_IS9_EEEEPNS2_12basic_stringIcNS2_11char_traitsIcEENS5_IcEEEESI_PKcSK_bb, symObjAddr: 0x46FC, symBinAddr: 0x100005B38, symSize: 0x354 }
  - { offsetInCU: 0x13C8, offset: 0x13C8, size: 0x8, addend: 0x0, symName: __ZN7tinyobj7LoadObjEPNS_8attrib_tEPNSt3__16vectorINS_7shape_tENS2_9allocatorIS4_EEEEPNS3_INS_10material_tENS5_IS9_EEEEPNS2_12basic_stringIcNS2_11char_traitsIcEENS5_IcEEEESI_PNS2_13basic_istreamIcSF_EEPNS_14MaterialReaderEbb, symObjAddr: 0x4B40, symBinAddr: 0x100005F7C, symSize: 0x2B68 }
  - { offsetInCU: 0x1B3B, offset: 0x1B3B, size: 0x8, addend: 0x0, symName: __ZN7tinyobjL20parseVertexWithColorEPfS0_S0_S0_S0_S0_PPKcddd, symObjAddr: 0x7808, symBinAddr: 0x100008C44, symSize: 0x168 }
  - { offsetInCU: 0x1C1D, offset: 0x1C1D, size: 0x8, addend: 0x0, symName: __ZN7tinyobjL11parseTripleEPPKciiiPNS_14vertex_index_tERKNS_15warning_contextE, symObjAddr: 0x7BD0, symBinAddr: 0x10000900C, symSize: 0x330 }
  - { offsetInCU: 0x1CA5, offset: 0x1CA5, size: 0x8, addend: 0x0, symName: __ZN7tinyobjL8toStringImEENSt3__112basic_stringIcNS1_11char_traitsIcEENS1_9allocatorIcEEEERKT_, symObjAddr: 0x7FAC, symBinAddr: 0x1000093E8, symSize: 0x9C }
  - { offsetInCU: 0x1CEB, offset: 0x1CEB, size: 0x8, addend: 0x0, symName: __ZN7tinyobjL19exportGroupsToShapeEPNS_7shape_tERKNS_9PrimGroupERKNSt3__16vectorINS_5tag_tENS5_9allocatorIS7_EEEEiRKNS5_12basic_stringIcNS5_11char_traitsIcEENS8_IcEEEEbRKNS6_IfNS8_IfEEEEPSH_, symObjAddr: 0x8554, symBinAddr: 0x100009990, symSize: 0x1948 }
  - { offsetInCU: 0x24CF, offset: 0x24CF, size: 0x8, addend: 0x0, symName: __ZN7tinyobjL11SplitStringERKNSt3__112basic_stringIcNS0_11char_traitsIcEENS0_9allocatorIcEEEEccRNS0_6vectorIS6_NS4_IS6_EEEE, symObjAddr: 0x9EE0, symBinAddr: 0x10000B31C, symSize: 0x158 }
  - { offsetInCU: 0x256E, offset: 0x256E, size: 0x8, addend: 0x0, symName: __ZN7tinyobjL14parseTagTripleEPPKc, symObjAddr: 0xA298, symBinAddr: 0x10000B6D4, symSize: 0x1A0 }
  - { offsetInCU: 0x25AB, offset: 0x25AB, size: 0x8, addend: 0x0, symName: __ZN7tinyobj19LoadObjWithCallbackERNSt3__113basic_istreamIcNS0_11char_traitsIcEEEERKNS_10callback_tEPvPNS_14MaterialReaderEPNS0_12basic_stringIcS3_NS0_9allocatorIcEEEESG_, symObjAddr: 0xA910, symBinAddr: 0x10000BD4C, symSize: 0x131C }
  - { offsetInCU: 0x295B, offset: 0x295B, size: 0x8, addend: 0x0, symName: __ZN7tinyobjL14parseRawTripleEPPKc, symObjAddr: 0xBDDC, symBinAddr: 0x10000D218, symSize: 0x1E8 }
  - { offsetInCU: 0x2BCA, offset: 0x2BCA, size: 0x8, addend: 0x0, symName: __ZN7tinyobjL10InitTexOptEPNS_16texture_option_tEb, symObjAddr: 0xFF3C, symBinAddr: 0x100011378, symSize: 0xE8 }
  - { offsetInCU: 0x2C03, offset: 0x2C03, size: 0x8, addend: 0x0, symName: __ZN7tinyobjL9parseRealEPPKcPf, symObjAddr: 0x127EC, symBinAddr: 0x100013C28, symSize: 0xCC }
  - { offsetInCU: 0x2C8A, offset: 0x2C8A, size: 0x8, addend: 0x0, symName: __ZN7tinyobjL8fixIndexEiiPibRKNS_15warning_contextE, symObjAddr: 0x13074, symBinAddr: 0x1000144B0, symSize: 0x234 }
  - { offsetInCU: 0x2CF4, offset: 0x2CF4, size: 0x8, addend: 0x0, symName: __ZN7tinyobjL6pnpolyIfEEiiPT_S2_S1_S1_, symObjAddr: 0x13AB0, symBinAddr: 0x100014EEC, symSize: 0x144 }
  - { offsetInCU: 0xD744, offset: 0xD744, size: 0x8, addend: 0x0, symName: __ZNSt3__16__math3powB8ne180100IdiLi0EEENS_9__promoteIT_T0_vE4typeES3_S4_, symObjAddr: 0xEE84, symBinAddr: 0x1000102C0, symSize: 0x38 }
  - { offsetInCU: 0xD7E5, offset: 0xD7E5, size: 0x8, addend: 0x0, symName: __ZNSt3__16__math3powB8ne180100IiEEddd, symObjAddr: 0xEEBC, symBinAddr: 0x1000102F8, symSize: 0x2C }
  - { offsetInCU: 0xD824, offset: 0xD824, size: 0x8, addend: 0x0, symName: __ZNSt3__16__math4fabsB8ne180100Ef, symObjAddr: 0x13A24, symBinAddr: 0x100014E60, symSize: 0x18 }
  - { offsetInCU: 0xD850, offset: 0xD850, size: 0x8, addend: 0x0, symName: __ZNSt3__16__math3cosB8ne180100Ef, symObjAddr: 0x3ADE4, symBinAddr: 0x10003C220, symSize: 0x24 }
  - { offsetInCU: 0xD87C, offset: 0xD87C, size: 0x8, addend: 0x0, symName: __ZNSt3__16__math3sinB8ne180100Ef, symObjAddr: 0x3AE08, symBinAddr: 0x10003C244, symSize: 0x24 }
  - { offsetInCU: 0xD8A8, offset: 0xD8A8, size: 0x8, addend: 0x0, symName: __ZNSt3__16__math4sqrtB8ne180100Ef, symObjAddr: 0x3B5BC, symBinAddr: 0x10003C9F8, symSize: 0x18 }
  - { offsetInCU: 0xD8D4, offset: 0xD8D4, size: 0x8, addend: 0x0, symName: __ZNSt3__16__math3tanB8ne180100Ef, symObjAddr: 0x3C24C, symBinAddr: 0x10003D688, symSize: 0x24 }
  - { offsetInCU: 0x1137F, offset: 0x1137F, size: 0x8, addend: 0x0, symName: __ZNSt3__16copy_nB8ne180100IPKcmPcLi0EEET1_T_T0_S4_, symObjAddr: 0x11664, symBinAddr: 0x100012AA0, symSize: 0x44 }
  - { offsetInCU: 0x1D625, offset: 0x1D625, size: 0x8, addend: 0x0, symName: __ZNSt3__17advanceB8ne180100IPN7tinyobj5tag_tEllvEEvRT_T0_, symObjAddr: 0x17D4C, symBinAddr: 0x100019188, symSize: 0x38 }
  - { offsetInCU: 0x1DF9F, offset: 0x1DF9F, size: 0x8, addend: 0x0, symName: __ZNSt3__17advanceB8ne180100IPillvEEvRT_T0_, symObjAddr: 0x1BFB8, symBinAddr: 0x10001D3F4, symSize: 0x38 }
  - { offsetInCU: 0x1E00A, offset: 0x1E00A, size: 0x8, addend: 0x0, symName: __ZNSt3__17advanceB8ne180100IPfllvEEvRT_T0_, symObjAddr: 0x1C48C, symBinAddr: 0x10001D8C8, symSize: 0x38 }
  - { offsetInCU: 0x1E0AD, offset: 0x1E0AD, size: 0x8, addend: 0x0, symName: __ZNSt3__17advanceB8ne180100IPNS_12basic_stringIcNS_11char_traitsIcEENS_9allocatorIcEEEEllvEEvRT_T0_, symObjAddr: 0x1C9A0, symBinAddr: 0x10001DDDC, symSize: 0x38 }
  - { offsetInCU: 0x28998, offset: 0x28998, size: 0x8, addend: 0x0, symName: __ZNSt3__17advanceB8ne180100INS_21__tree_const_iteratorINS_12__value_typeINS_12basic_stringIcNS_11char_traitsIcEENS_9allocatorIcEEEES8_EEPNS_11__tree_nodeIS9_PvEElEEllvEEvRT_T0_, symObjAddr: 0x26010, symBinAddr: 0x10002744C, symSize: 0x38 }
  - { offsetInCU: 0x28F5E, offset: 0x28F5E, size: 0x8, addend: 0x0, symName: __ZNSt3__124__put_character_sequenceB8ne180100IcNS_11char_traitsIcEEEERNS_13basic_ostreamIT_T0_EES7_PKS4_m, symObjAddr: 0x27EB8, symBinAddr: 0x1000292F4, symSize: 0x1EC }
  - { offsetInCU: 0x31A2B, offset: 0x31A2B, size: 0x8, addend: 0x0, symName: __ZNSt3__1lsB8ne180100INS_11char_traitsIcEEEERNS_13basic_ostreamIcT_EES6_PKc, symObjAddr: 0x3570, symBinAddr: 0x1000049AC, symSize: 0x48 }
  - { offsetInCU: 0x31A71, offset: 0x31A71, size: 0x8, addend: 0x0, symName: __ZNSt3__1lsB8ne180100IcNS_11char_traitsIcEENS_9allocatorIcEEEERNS_13basic_ostreamIT_T0_EES9_RKNS_12basic_stringIS6_S7_T1_EE, symObjAddr: 0x35B8, symBinAddr: 0x1000049F4, symSize: 0x4C }
  - { offsetInCU: 0x31CDF, offset: 0x31CDF, size: 0x8, addend: 0x0, symName: __ZNSt3__17getlineB8ne180100IcNS_11char_traitsIcEENS_9allocatorIcEEEERNS_13basic_istreamIT_T0_EES9_RNS_12basic_stringIS6_S7_T1_EES6_, symObjAddr: 0x3ED0, symBinAddr: 0x10000530C, symSize: 0x238 }
  - { offsetInCU: 0x332B8, offset: 0x332B8, size: 0x8, addend: 0x0, symName: __ZNSt3__1plB8ne180100IcNS_11char_traitsIcEENS_9allocatorIcEEEENS_12basic_stringIT_T0_T1_EEOS9_PKS6_, symObjAddr: 0x7F28, symBinAddr: 0x100009364, symSize: 0x40 }
  - { offsetInCU: 0x33310, offset: 0x33310, size: 0x8, addend: 0x0, symName: __ZNSt3__1plB8ne180100IcNS_11char_traitsIcEENS_9allocatorIcEEEENS_12basic_stringIT_T0_T1_EEPKS6_OS9_, symObjAddr: 0x7F68, symBinAddr: 0x1000093A4, symSize: 0x44 }
  - { offsetInCU: 0x33368, offset: 0x33368, size: 0x8, addend: 0x0, symName: __ZNSt3__1neB8ne180100ERKNS_20__map_const_iteratorINS_21__tree_const_iteratorINS_12__value_typeINS_12basic_stringIcNS_11char_traitsIcEENS_9allocatorIcEEEEiEEPNS_11__tree_nodeIS9_PvEElEEEESH_, symObjAddr: 0x84C0, symBinAddr: 0x1000098FC, symSize: 0x30 }
  - { offsetInCU: 0x333A5, offset: 0x333A5, size: 0x8, addend: 0x0, symName: __ZNSt3__14endlB8ne180100IcNS_11char_traitsIcEEEERNS_13basic_ostreamIT_T0_EES7_, symObjAddr: 0xD904, symBinAddr: 0x10000ED40, symSize: 0x58 }
  - { offsetInCU: 0x333E5, offset: 0x333E5, size: 0x8, addend: 0x0, symName: __ZNSt3__18distanceB8ne180100IPKcEENS_15iterator_traitsIT_E15difference_typeES4_S4_, symObjAddr: 0xF0BC, symBinAddr: 0x1000104F8, symSize: 0x2C }
  - { offsetInCU: 0x33428, offset: 0x33428, size: 0x8, addend: 0x0, symName: __ZNSt3__110__distanceB8ne180100IPKcEENS_15iterator_traitsIT_E15difference_typeES4_S4_NS_26random_access_iterator_tagE, symObjAddr: 0xF238, symBinAddr: 0x100010674, symSize: 0x20 }
  - { offsetInCU: 0x33476, offset: 0x33476, size: 0x8, addend: 0x0, symName: __ZNSt3__119__allocate_at_leastB8ne180100INS_9allocatorIcEEEENS_19__allocation_resultINS_16allocator_traitsIT_E7pointerEEERS5_m, symObjAddr: 0xF3E0, symBinAddr: 0x10001081C, symSize: 0x40 }
  - { offsetInCU: 0x336A6, offset: 0x336A6, size: 0x8, addend: 0x0, symName: __ZNSt3__120__throw_length_errorB8ne180100EPKc, symObjAddr: 0xF6A4, symBinAddr: 0x100010AE0, symSize: 0x64 }
  - { offsetInCU: 0x33701, offset: 0x33701, size: 0x8, addend: 0x0, symName: __ZNSt3__117__libcpp_allocateB8ne180100Emm, symObjAddr: 0xF860, symBinAddr: 0x100010C9C, symSize: 0x60 }
  - { offsetInCU: 0x3375C, offset: 0x3375C, size: 0x8, addend: 0x0, symName: __ZNSt3__124__is_overaligned_for_newB8ne180100Em, symObjAddr: 0xF8C0, symBinAddr: 0x100010CFC, symSize: 0x20 }
  - { offsetInCU: 0x3378A, offset: 0x3378A, size: 0x8, addend: 0x0, symName: __ZNSt3__121__libcpp_operator_newB8ne180100IJmSt11align_val_tEEEPvDpT_, symObjAddr: 0xF8E0, symBinAddr: 0x100010D1C, symSize: 0x2C }
  - { offsetInCU: 0x337D7, offset: 0x337D7, size: 0x8, addend: 0x0, symName: __ZNSt3__121__libcpp_operator_newB8ne180100IJmEEEPvDpT_, symObjAddr: 0xF90C, symBinAddr: 0x100010D48, symSize: 0x24 }
  - { offsetInCU: 0x33843, offset: 0x33843, size: 0x8, addend: 0x0, symName: __ZNSt3__112__destroy_atB8ne180100INS_4pairIKNS_12basic_stringIcNS_11char_traitsIcEENS_9allocatorIcEEEES7_EELi0EEEvPT_, symObjAddr: 0x10298, symBinAddr: 0x1000116D4, symSize: 0x24 }
  - { offsetInCU: 0x3387A, offset: 0x3387A, size: 0x8, addend: 0x0, symName: __ZNSt3__17launderB8ne180100INS_4pairIKNS_12basic_stringIcNS_11char_traitsIcEENS_9allocatorIcEEEES7_EEEEPT_SB_, symObjAddr: 0x10344, symBinAddr: 0x100011780, symSize: 0x24 }
  - { offsetInCU: 0x338B2, offset: 0x338B2, size: 0x8, addend: 0x0, symName: __ZNSt3__19__launderB8ne180100INS_4pairIKNS_12basic_stringIcNS_11char_traitsIcEENS_9allocatorIcEEEES7_EEEEPT_SB_, symObjAddr: 0x10368, symBinAddr: 0x1000117A4, symSize: 0x14 }
  - { offsetInCU: 0x338E9, offset: 0x338E9, size: 0x8, addend: 0x0, symName: __ZNSt3__119__libcpp_deallocateB8ne180100EPvmm, symObjAddr: 0x103C0, symBinAddr: 0x1000117FC, symSize: 0x60 }
  - { offsetInCU: 0x3394E, offset: 0x3394E, size: 0x8, addend: 0x0, symName: __ZNSt3__127__do_deallocate_handle_sizeB8ne180100IJSt11align_val_tEEEvPvmDpT_, symObjAddr: 0x10420, symBinAddr: 0x10001185C, symSize: 0x30 }
  - { offsetInCU: 0x339A1, offset: 0x339A1, size: 0x8, addend: 0x0, symName: __ZNSt3__127__do_deallocate_handle_sizeB8ne180100IJEEEvPvmDpT_, symObjAddr: 0x10450, symBinAddr: 0x10001188C, symSize: 0x28 }
  - { offsetInCU: 0x339DF, offset: 0x339DF, size: 0x8, addend: 0x0, symName: __ZNSt3__124__libcpp_operator_deleteB8ne180100IJPvSt11align_val_tEEEvDpT_, symObjAddr: 0x10478, symBinAddr: 0x1000118B4, symSize: 0x2C }
  - { offsetInCU: 0x33A28, offset: 0x33A28, size: 0x8, addend: 0x0, symName: __ZNSt3__124__libcpp_operator_deleteB8ne180100IJPvEEEvDpT_, symObjAddr: 0x104A4, symBinAddr: 0x1000118E0, symSize: 0x24 }
  - { offsetInCU: 0x33A5D, offset: 0x33A5D, size: 0x8, addend: 0x0, symName: __ZNSt3__1plB8ne180100IcNS_11char_traitsIcEENS_9allocatorIcEEEENS_12basic_stringIT_T0_T1_EEOS9_RKS9_, symObjAddr: 0x10D20, symBinAddr: 0x10001215C, symSize: 0x40 }
  - { offsetInCU: 0x33AB5, offset: 0x33AB5, size: 0x8, addend: 0x0, symName: __ZNSt3__1plB8ne180100IcNS_11char_traitsIcEENS_9allocatorIcEEEENS_12basic_stringIT_T0_T1_EERKS9_OS9_, symObjAddr: 0x10D60, symBinAddr: 0x10001219C, symSize: 0x44 }
  - { offsetInCU: 0x33B0D, offset: 0x33B0D, size: 0x8, addend: 0x0, symName: __ZNSt3__1plB8ne180100IcNS_11char_traitsIcEENS_9allocatorIcEEEENS_12basic_stringIT_T0_T1_EERKS9_SB_, symObjAddr: 0x10DA4, symBinAddr: 0x1000121E0, symSize: 0x134 }
  - { offsetInCU: 0x33BE1, offset: 0x33BE1, size: 0x8, addend: 0x0, symName: __ZNSt3__112__to_addressB8ne180100IKcEEPT_S3_, symObjAddr: 0x111B4, symBinAddr: 0x1000125F0, symSize: 0x14 }
  - { offsetInCU: 0x33C16, offset: 0x33C16, size: 0x8, addend: 0x0, symName: __ZNSt3__112__to_addressB8ne180100IcEEPT_S2_, symObjAddr: 0x1139C, symBinAddr: 0x1000127D8, symSize: 0x14 }
  - { offsetInCU: 0x33C4B, offset: 0x33C4B, size: 0x8, addend: 0x0, symName: __ZNSt3__14copyB8ne180100IPKcPcEET0_T_S5_S4_, symObjAddr: 0x116A8, symBinAddr: 0x100012AE4, symSize: 0x40 }
  - { offsetInCU: 0x33CA5, offset: 0x33CA5, size: 0x8, addend: 0x0, symName: __ZNSt3__16__copyB8ne180100INS_17_ClassicAlgPolicyEPKcS3_PcEENS_4pairIT0_T2_EES6_T1_S7_, symObjAddr: 0x116E8, symBinAddr: 0x100012B24, symSize: 0x44 }
  - { offsetInCU: 0x33D11, offset: 0x33D11, size: 0x8, addend: 0x0, symName: __ZNSt3__123__dispatch_copy_or_moveB8ne180100INS_17_ClassicAlgPolicyENS_11__copy_loopIS1_EENS_14__copy_trivialEPKcS6_PcEENS_4pairIT2_T4_EES9_T3_SA_, symObjAddr: 0x1172C, symBinAddr: 0x100012B68, symSize: 0x44 }
  - { offsetInCU: 0x33D8F, offset: 0x33D8F, size: 0x8, addend: 0x0, symName: __ZNSt3__121__unwrap_and_dispatchB8ne180100INS_10__overloadINS_11__copy_loopINS_17_ClassicAlgPolicyEEENS_14__copy_trivialEEEPKcS8_PcLi0EEENS_4pairIT0_T2_EESB_T1_SC_, symObjAddr: 0x11770, symBinAddr: 0x100012BAC, symSize: 0xB4 }
  - { offsetInCU: 0x33E1D, offset: 0x33E1D, size: 0x8, addend: 0x0, symName: __ZNSt3__114__unwrap_rangeB8ne180100IPKcS2_EENS_4pairIT0_S4_EET_S6_, symObjAddr: 0x11824, symBinAddr: 0x100012C60, symSize: 0x60 }
  - { offsetInCU: 0x3411A, offset: 0x3411A, size: 0x8, addend: 0x0, symName: __ZNSt3__113__unwrap_iterB8ne180100IPcNS_18__unwrap_iter_implIS1_Lb1EEELi0EEEDTclsrT0_8__unwrapclsr3stdE7declvalIT_EEEES5_, symObjAddr: 0x118CC, symBinAddr: 0x100012D08, symSize: 0x24 }
  - { offsetInCU: 0x3415E, offset: 0x3415E, size: 0x8, addend: 0x0, symName: __ZNSt3__19make_pairB8ne180100IPKcPcEENS_4pairINS_18__unwrap_ref_decayIT_E4typeENS5_IT0_E4typeEEEOS6_OS9_, symObjAddr: 0x118F0, symBinAddr: 0x100012D2C, symSize: 0x38 }
  - { offsetInCU: 0x341AD, offset: 0x341AD, size: 0x8, addend: 0x0, symName: __ZNSt3__114__rewrap_rangeB8ne180100IPKcS2_EET_S3_T0_, symObjAddr: 0x11928, symBinAddr: 0x100012D64, symSize: 0x2C }
  - { offsetInCU: 0x341F9, offset: 0x341F9, size: 0x8, addend: 0x0, symName: __ZNSt3__113__rewrap_iterB8ne180100IPcS1_NS_18__unwrap_iter_implIS1_Lb1EEEEET_S4_T0_, symObjAddr: 0x11954, symBinAddr: 0x100012D90, symSize: 0x3C }
  - { offsetInCU: 0x3424E, offset: 0x3424E, size: 0x8, addend: 0x0, symName: __ZNSt3__19make_pairB8ne180100IPKcS2_EENS_4pairINS_18__unwrap_ref_decayIT_E4typeENS4_IT0_E4typeEEEOS5_OS8_, symObjAddr: 0x11990, symBinAddr: 0x100012DCC, symSize: 0x38 }
  - { offsetInCU: 0x3429D, offset: 0x3429D, size: 0x8, addend: 0x0, symName: __ZNSt3__113__unwrap_iterB8ne180100IPKcNS_18__unwrap_iter_implIS2_Lb1EEELi0EEEDTclsrT0_8__unwrapclsr3stdE7declvalIT_EEEES6_, symObjAddr: 0x119C8, symBinAddr: 0x100012E04, symSize: 0x24 }
  - { offsetInCU: 0x34408, offset: 0x34408, size: 0x8, addend: 0x0, symName: __ZNSt3__119__copy_trivial_implB8ne180100IKccEENS_4pairIPT_PT0_EES4_S4_S6_, symObjAddr: 0x11A80, symBinAddr: 0x100012EBC, symSize: 0x78 }
  - { offsetInCU: 0x34470, offset: 0x34470, size: 0x8, addend: 0x0, symName: __ZNSt3__119__constexpr_memmoveB8ne180100IcKcLi0EEEPT_S3_PT0_NS_15__element_countE, symObjAddr: 0x11AF8, symBinAddr: 0x100012F34, symSize: 0x64 }
  - { offsetInCU: 0x344DE, offset: 0x344DE, size: 0x8, addend: 0x0, symName: __ZNSt3__19make_pairB8ne180100IRPKcPcEENS_4pairINS_18__unwrap_ref_decayIT_E4typeENS6_IT0_E4typeEEEOS7_OSA_, symObjAddr: 0x11B5C, symBinAddr: 0x100012F98, symSize: 0x38 }
  - { offsetInCU: 0x34580, offset: 0x34580, size: 0x8, addend: 0x0, symName: __ZNSt3__113__rewrap_iterB8ne180100IPKcS2_NS_18__unwrap_iter_implIS2_Lb1EEEEET_S5_T0_, symObjAddr: 0x11C98, symBinAddr: 0x1000130D4, symSize: 0x3C }
  - { offsetInCU: 0x345D5, offset: 0x345D5, size: 0x8, addend: 0x0, symName: __ZNSt3__16fill_nB8ne180100IPcmcEET_S2_T0_RKT1_, symObjAddr: 0x11D64, symBinAddr: 0x1000131A0, symSize: 0x44 }
  - { offsetInCU: 0x34638, offset: 0x34638, size: 0x8, addend: 0x0, symName: __ZNSt3__18__fill_nB8ne180100IPcmcEET_S2_T0_RKT1_, symObjAddr: 0x11DA8, symBinAddr: 0x1000131E4, symSize: 0x64 }
  - { offsetInCU: 0x3469B, offset: 0x3469B, size: 0x8, addend: 0x0, symName: __ZNSt3__121__convert_to_integralB8ne180100Em, symObjAddr: 0x11E0C, symBinAddr: 0x100013248, symSize: 0x14 }
  - { offsetInCU: 0x346C7, offset: 0x346C7, size: 0x8, addend: 0x0, symName: __ZNSt3__112__to_addressB8ne180100IN7tinyobj18joint_and_weight_tEEEPT_S4_, symObjAddr: 0x12D74, symBinAddr: 0x1000141B0, symSize: 0x14 }
  - { offsetInCU: 0x346FC, offset: 0x346FC, size: 0x8, addend: 0x0, symName: __ZNSt3__112__to_addressB8ne180100IN7tinyobj14vertex_index_tEEEPT_S4_, symObjAddr: 0x135E4, symBinAddr: 0x100014A20, symSize: 0x14 }
  - { offsetInCU: 0x34B22, offset: 0x34B22, size: 0x8, addend: 0x0, symName: __ZNSt3__112__to_addressB8ne180100IiEEPT_S2_, symObjAddr: 0x14080, symBinAddr: 0x1000154BC, symSize: 0x14 }
  - { offsetInCU: 0x34B57, offset: 0x34B57, size: 0x8, addend: 0x0, symName: __ZNSt3__13maxB8ne180100ImEERKT_S3_S3_, symObjAddr: 0x1449C, symBinAddr: 0x1000158D8, symSize: 0x2C }
  - { offsetInCU: 0x34B9A, offset: 0x34B9A, size: 0x8, addend: 0x0, symName: __ZNSt3__13minB8ne180100ImEERKT_S3_S3_, symObjAddr: 0x144C8, symBinAddr: 0x100015904, symSize: 0x2C }
  - { offsetInCU: 0x34DC7, offset: 0x34DC7, size: 0x8, addend: 0x0, symName: __ZNSt3__13minB8ne180100ImNS_6__lessIvvEEEERKT_S5_S5_T0_, symObjAddr: 0x14554, symBinAddr: 0x100015990, symSize: 0x54 }
  - { offsetInCU: 0x34E66, offset: 0x34E66, size: 0x8, addend: 0x0, symName: __ZNSt3__13maxB8ne180100ImNS_6__lessIvvEEEERKT_S5_S5_T0_, symObjAddr: 0x14690, symBinAddr: 0x100015ACC, symSize: 0x54 }
  - { offsetInCU: 0x34EC0, offset: 0x34EC0, size: 0x8, addend: 0x0, symName: __ZNSt3__119__allocate_at_leastB8ne180100INS_9allocatorIiEEEENS_19__allocation_resultINS_16allocator_traitsIT_E7pointerEEERS5_m, symObjAddr: 0x147F4, symBinAddr: 0x100015C30, symSize: 0x40 }
  - { offsetInCU: 0x34F03, offset: 0x34F03, size: 0x8, addend: 0x0, symName: __ZNSt3__142__uninitialized_allocator_move_if_noexceptB8ne180100INS_9allocatorIiEENS_16reverse_iteratorIPiEES5_ivEET1_RT_T0_S9_S6_, symObjAddr: 0x149B8, symBinAddr: 0x100015DF4, symSize: 0x78 }
  - { offsetInCU: 0x34F81, offset: 0x34F81, size: 0x8, addend: 0x0, symName: __ZNSt3__14swapB8ne180100IPiEENS_9enable_ifIXaasr21is_move_constructibleIT_EE5valuesr18is_move_assignableIS3_EE5valueEvE4typeERS3_S6_, symObjAddr: 0x14A7C, symBinAddr: 0x100015EB8, symSize: 0x3C }
  - { offsetInCU: 0x34FD2, offset: 0x34FD2, size: 0x8, addend: 0x0, symName: __ZNSt3__14moveB8ne180100INS_16reverse_iteratorIPiEES3_EET0_T_S5_S4_, symObjAddr: 0x14ACC, symBinAddr: 0x100015F08, symSize: 0x78 }
  - { offsetInCU: 0x3502C, offset: 0x3502C, size: 0x8, addend: 0x0, symName: __ZNSt3__16__moveB8ne180100INS_17_ClassicAlgPolicyENS_16reverse_iteratorIPiEES4_S4_EENS_4pairIT0_T2_EES6_T1_S7_, symObjAddr: 0x14B44, symBinAddr: 0x100015F80, symSize: 0x64 }
  - { offsetInCU: 0x35098, offset: 0x35098, size: 0x8, addend: 0x0, symName: __ZNSt3__123__dispatch_copy_or_moveB8ne180100INS_17_ClassicAlgPolicyENS_11__move_loopIS1_EENS_14__move_trivialENS_16reverse_iteratorIPiEES7_S7_EENS_4pairIT2_T4_EES9_T3_SA_, symObjAddr: 0x14BA8, symBinAddr: 0x100015FE4, symSize: 0x64 }
  - { offsetInCU: 0x35116, offset: 0x35116, size: 0x8, addend: 0x0, symName: __ZNSt3__121__unwrap_and_dispatchB8ne180100INS_10__overloadINS_11__move_loopINS_17_ClassicAlgPolicyEEENS_14__move_trivialEEENS_16reverse_iteratorIPiEES9_S9_Li0EEENS_4pairIT0_T2_EESB_T1_SC_, symObjAddr: 0x14C0C, symBinAddr: 0x100016048, symSize: 0x12C }
  - { offsetInCU: 0x351A6, offset: 0x351A6, size: 0x8, addend: 0x0, symName: __ZNSt3__114__unwrap_rangeB8ne180100INS_16reverse_iteratorIPiEES3_EENS_4pairIT0_S5_EET_S7_, symObjAddr: 0x14D38, symBinAddr: 0x100016174, symSize: 0x84 }
  - { offsetInCU: 0x3549B, offset: 0x3549B, size: 0x8, addend: 0x0, symName: __ZNSt3__113__unwrap_iterB8ne180100INS_16reverse_iteratorIPiEENS_18__unwrap_iter_implIS3_Lb0EEELi0EEEDTclsrT0_8__unwrapclsr3stdE7declvalIT_EEEES7_, symObjAddr: 0x14E5C, symBinAddr: 0x100016298, symSize: 0x44 }
  - { offsetInCU: 0x354DF, offset: 0x354DF, size: 0x8, addend: 0x0, symName: __ZNSt3__19make_pairB8ne180100INS_16reverse_iteratorIPiEES3_EENS_4pairINS_18__unwrap_ref_decayIT_E4typeENS5_IT0_E4typeEEEOS6_OS9_, symObjAddr: 0x14EA0, symBinAddr: 0x1000162DC, symSize: 0x38 }
  - { offsetInCU: 0x3552E, offset: 0x3552E, size: 0x8, addend: 0x0, symName: __ZNSt3__114__rewrap_rangeB8ne180100INS_16reverse_iteratorIPiEES3_EET_S4_T0_, symObjAddr: 0x14ED8, symBinAddr: 0x100016314, symSize: 0x5C }
  - { offsetInCU: 0x3557A, offset: 0x3557A, size: 0x8, addend: 0x0, symName: __ZNSt3__113__rewrap_iterB8ne180100INS_16reverse_iteratorIPiEES3_NS_18__unwrap_iter_implIS3_Lb0EEEEET_S6_T0_, symObjAddr: 0x14F34, symBinAddr: 0x100016370, symSize: 0x74 }
  - { offsetInCU: 0x355CF, offset: 0x355CF, size: 0x8, addend: 0x0, symName: __ZNSt3__1neB8ne180100IPiS1_EEbRKNS_16reverse_iteratorIT_EERKNS2_IT0_EE, symObjAddr: 0x14FA8, symBinAddr: 0x1000163E4, symSize: 0x48 }
  - { offsetInCU: 0x3585D, offset: 0x3585D, size: 0x8, addend: 0x0, symName: __ZNSt3__112__to_addressB8ne180100IjEEPT_S2_, symObjAddr: 0x1565C, symBinAddr: 0x100016A98, symSize: 0x14 }
  - { offsetInCU: 0x35892, offset: 0x35892, size: 0x8, addend: 0x0, symName: __ZNSt3__119__allocate_at_leastB8ne180100INS_9allocatorIjEEEENS_19__allocation_resultINS_16allocator_traitsIT_E7pointerEEERS5_m, symObjAddr: 0x15C58, symBinAddr: 0x100017094, symSize: 0x40 }
  - { offsetInCU: 0x358D5, offset: 0x358D5, size: 0x8, addend: 0x0, symName: __ZNSt3__142__uninitialized_allocator_move_if_noexceptB8ne180100INS_9allocatorIjEENS_16reverse_iteratorIPjEES5_jvEET1_RT_T0_S9_S6_, symObjAddr: 0x15E38, symBinAddr: 0x100017274, symSize: 0x78 }
  - { offsetInCU: 0x35953, offset: 0x35953, size: 0x8, addend: 0x0, symName: __ZNSt3__14swapB8ne180100IPjEENS_9enable_ifIXaasr21is_move_constructibleIT_EE5valuesr18is_move_assignableIS3_EE5valueEvE4typeERS3_S6_, symObjAddr: 0x15EFC, symBinAddr: 0x100017338, symSize: 0x3C }
  - { offsetInCU: 0x359A4, offset: 0x359A4, size: 0x8, addend: 0x0, symName: __ZNSt3__14moveB8ne180100INS_16reverse_iteratorIPjEES3_EET0_T_S5_S4_, symObjAddr: 0x15F4C, symBinAddr: 0x100017388, symSize: 0x78 }
  - { offsetInCU: 0x359FE, offset: 0x359FE, size: 0x8, addend: 0x0, symName: __ZNSt3__16__moveB8ne180100INS_17_ClassicAlgPolicyENS_16reverse_iteratorIPjEES4_S4_EENS_4pairIT0_T2_EES6_T1_S7_, symObjAddr: 0x15FC4, symBinAddr: 0x100017400, symSize: 0x64 }
  - { offsetInCU: 0x35A6A, offset: 0x35A6A, size: 0x8, addend: 0x0, symName: __ZNSt3__123__dispatch_copy_or_moveB8ne180100INS_17_ClassicAlgPolicyENS_11__move_loopIS1_EENS_14__move_trivialENS_16reverse_iteratorIPjEES7_S7_EENS_4pairIT2_T4_EES9_T3_SA_, symObjAddr: 0x16028, symBinAddr: 0x100017464, symSize: 0x64 }
  - { offsetInCU: 0x35AE8, offset: 0x35AE8, size: 0x8, addend: 0x0, symName: __ZNSt3__121__unwrap_and_dispatchB8ne180100INS_10__overloadINS_11__move_loopINS_17_ClassicAlgPolicyEEENS_14__move_trivialEEENS_16reverse_iteratorIPjEES9_S9_Li0EEENS_4pairIT0_T2_EESB_T1_SC_, symObjAddr: 0x1608C, symBinAddr: 0x1000174C8, symSize: 0x12C }
  - { offsetInCU: 0x35B78, offset: 0x35B78, size: 0x8, addend: 0x0, symName: __ZNSt3__114__unwrap_rangeB8ne180100INS_16reverse_iteratorIPjEES3_EENS_4pairIT0_S5_EET_S7_, symObjAddr: 0x161B8, symBinAddr: 0x1000175F4, symSize: 0x84 }
  - { offsetInCU: 0x35C98, offset: 0x35C98, size: 0x8, addend: 0x0, symName: __ZNSt3__113__unwrap_iterB8ne180100INS_16reverse_iteratorIPjEENS_18__unwrap_iter_implIS3_Lb0EEELi0EEEDTclsrT0_8__unwrapclsr3stdE7declvalIT_EEEES7_, symObjAddr: 0x162DC, symBinAddr: 0x100017718, symSize: 0x44 }
  - { offsetInCU: 0x35CDC, offset: 0x35CDC, size: 0x8, addend: 0x0, symName: __ZNSt3__19make_pairB8ne180100INS_16reverse_iteratorIPjEES3_EENS_4pairINS_18__unwrap_ref_decayIT_E4typeENS5_IT0_E4typeEEEOS6_OS9_, symObjAddr: 0x16320, symBinAddr: 0x10001775C, symSize: 0x38 }
  - { offsetInCU: 0x35D2B, offset: 0x35D2B, size: 0x8, addend: 0x0, symName: __ZNSt3__114__rewrap_rangeB8ne180100INS_16reverse_iteratorIPjEES3_EET_S4_T0_, symObjAddr: 0x16358, symBinAddr: 0x100017794, symSize: 0x5C }
  - { offsetInCU: 0x35D77, offset: 0x35D77, size: 0x8, addend: 0x0, symName: __ZNSt3__113__rewrap_iterB8ne180100INS_16reverse_iteratorIPjEES3_NS_18__unwrap_iter_implIS3_Lb0EEEEET_S6_T0_, symObjAddr: 0x163B4, symBinAddr: 0x1000177F0, symSize: 0x74 }
  - { offsetInCU: 0x35DCC, offset: 0x35DCC, size: 0x8, addend: 0x0, symName: __ZNSt3__1neB8ne180100IPjS1_EEbRKNS_16reverse_iteratorIT_EERKNS2_IT0_EE, symObjAddr: 0x16428, symBinAddr: 0x100017864, symSize: 0x48 }
  - { offsetInCU: 0x35E6B, offset: 0x35E6B, size: 0x8, addend: 0x0, symName: __ZNSt3__122__make_exception_guardB8ne180100INS_6vectorIN7tinyobj14vertex_index_tENS_9allocatorIS3_EEE16__destroy_vectorEEENS_28__exception_guard_exceptionsIT_EES9_, symObjAddr: 0x16B44, symBinAddr: 0x100017F80, symSize: 0x40 }
  - { offsetInCU: 0x35EA0, offset: 0x35EA0, size: 0x8, addend: 0x0, symName: __ZNSt3__119__allocate_at_leastB8ne180100INS_9allocatorIN7tinyobj14vertex_index_tEEEEENS_19__allocation_resultINS_16allocator_traitsIT_E7pointerEEERS7_m, symObjAddr: 0x16DE0, symBinAddr: 0x10001821C, symSize: 0x40 }
  - { offsetInCU: 0x35EE3, offset: 0x35EE3, size: 0x8, addend: 0x0, symName: __ZNSt3__130__uninitialized_allocator_copyB8ne180100INS_9allocatorIN7tinyobj14vertex_index_tEEEPS3_S5_S5_EET2_RT_T0_T1_S6_, symObjAddr: 0x16F68, symBinAddr: 0x1000183A4, symSize: 0x80 }
  - { offsetInCU: 0x35F80, offset: 0x35F80, size: 0x8, addend: 0x0, symName: __ZNSt3__114__unwrap_rangeB8ne180100IPN7tinyobj14vertex_index_tES3_EENS_4pairIT0_S5_EET_S7_, symObjAddr: 0x17060, symBinAddr: 0x10001849C, symSize: 0x60 }
  - { offsetInCU: 0x35FCC, offset: 0x35FCC, size: 0x8, addend: 0x0, symName: __ZNSt3__135__uninitialized_allocator_copy_implB8ne180100INS_9allocatorIN7tinyobj14vertex_index_tEEES3_S3_S3_LPv0EEEPT2_RT_PT0_SB_S7_, symObjAddr: 0x170C0, symBinAddr: 0x1000184FC, symSize: 0x38 }
  - { offsetInCU: 0x3604E, offset: 0x3604E, size: 0x8, addend: 0x0, symName: __ZNSt3__113__unwrap_iterB8ne180100IPN7tinyobj14vertex_index_tENS_18__unwrap_iter_implIS3_Lb1EEELi0EEEDTclsrT0_8__unwrapclsr3stdE7declvalIT_EEEES7_, symObjAddr: 0x170F8, symBinAddr: 0x100018534, symSize: 0x24 }
  - { offsetInCU: 0x36092, offset: 0x36092, size: 0x8, addend: 0x0, symName: __ZNSt3__113__rewrap_iterB8ne180100IPN7tinyobj14vertex_index_tES3_NS_18__unwrap_iter_implIS3_Lb1EEEEET_S6_T0_, symObjAddr: 0x1711C, symBinAddr: 0x100018558, symSize: 0x3C }
  - { offsetInCU: 0x360E7, offset: 0x360E7, size: 0x8, addend: 0x0, symName: __ZNSt3__19make_pairB8ne180100IPN7tinyobj14vertex_index_tES3_EENS_4pairINS_18__unwrap_ref_decayIT_E4typeENS5_IT0_E4typeEEEOS6_OS9_, symObjAddr: 0x17158, symBinAddr: 0x100018594, symSize: 0x38 }
  - { offsetInCU: 0x36239, offset: 0x36239, size: 0x8, addend: 0x0, symName: __ZNSt3__14copyB8ne180100IPN7tinyobj14vertex_index_tES3_EET0_T_S5_S4_, symObjAddr: 0x17200, symBinAddr: 0x10001863C, symSize: 0x40 }
  - { offsetInCU: 0x36293, offset: 0x36293, size: 0x8, addend: 0x0, symName: __ZNSt3__16__copyB8ne180100INS_17_ClassicAlgPolicyEPN7tinyobj14vertex_index_tES4_S4_EENS_4pairIT0_T2_EES6_T1_S7_, symObjAddr: 0x17240, symBinAddr: 0x10001867C, symSize: 0x44 }
  - { offsetInCU: 0x362FF, offset: 0x362FF, size: 0x8, addend: 0x0, symName: __ZNSt3__123__dispatch_copy_or_moveB8ne180100INS_17_ClassicAlgPolicyENS_11__copy_loopIS1_EENS_14__copy_trivialEPN7tinyobj14vertex_index_tES7_S7_EENS_4pairIT2_T4_EES9_T3_SA_, symObjAddr: 0x17284, symBinAddr: 0x1000186C0, symSize: 0x44 }
  - { offsetInCU: 0x3637D, offset: 0x3637D, size: 0x8, addend: 0x0, symName: __ZNSt3__121__unwrap_and_dispatchB8ne180100INS_10__overloadINS_11__copy_loopINS_17_ClassicAlgPolicyEEENS_14__copy_trivialEEEPN7tinyobj14vertex_index_tES9_S9_Li0EEENS_4pairIT0_T2_EESB_T1_SC_, symObjAddr: 0x172C8, symBinAddr: 0x100018704, symSize: 0xB4 }
  - { offsetInCU: 0x3640B, offset: 0x3640B, size: 0x8, addend: 0x0, symName: __ZNSt3__114__rewrap_rangeB8ne180100IPN7tinyobj14vertex_index_tES3_EET_S4_T0_, symObjAddr: 0x173C4, symBinAddr: 0x100018800, symSize: 0x2C }
  - { offsetInCU: 0x36457, offset: 0x36457, size: 0x8, addend: 0x0, symName: __ZNSt3__119__copy_trivial_implB8ne180100IN7tinyobj14vertex_index_tES2_EENS_4pairIPT_PT0_EES5_S5_S7_, symObjAddr: 0x173F0, symBinAddr: 0x10001882C, symSize: 0x88 }
  - { offsetInCU: 0x364BF, offset: 0x364BF, size: 0x8, addend: 0x0, symName: __ZNSt3__119__constexpr_memmoveB8ne180100IN7tinyobj14vertex_index_tES2_Li0EEEPT_S4_PT0_NS_15__element_countE, symObjAddr: 0x17478, symBinAddr: 0x1000188B4, symSize: 0x68 }
  - { offsetInCU: 0x3652D, offset: 0x3652D, size: 0x8, addend: 0x0, symName: __ZNSt3__19make_pairB8ne180100IRPN7tinyobj14vertex_index_tES3_EENS_4pairINS_18__unwrap_ref_decayIT_E4typeENS6_IT0_E4typeEEEOS7_OSA_, symObjAddr: 0x174E0, symBinAddr: 0x10001891C, symSize: 0x38 }
  - { offsetInCU: 0x365CF, offset: 0x365CF, size: 0x8, addend: 0x0, symName: __ZNSt3__18distanceB8ne180100IPN7tinyobj5tag_tEEENS_15iterator_traitsIT_E15difference_typeES5_S5_, symObjAddr: 0x178CC, symBinAddr: 0x100018D08, symSize: 0x2C }
  - { offsetInCU: 0x36612, offset: 0x36612, size: 0x8, addend: 0x0, symName: __ZNSt3__14nextB8ne180100IPN7tinyobj5tag_tELi0EEET_S4_NS_15iterator_traitsIS4_E15difference_typeE, symObjAddr: 0x17960, symBinAddr: 0x100018D9C, symSize: 0x34 }
  - { offsetInCU: 0x3665B, offset: 0x3665B, size: 0x8, addend: 0x0, symName: __ZNSt3__14copyB8ne180100IPN7tinyobj5tag_tES3_EET0_T_S5_S4_, symObjAddr: 0x17994, symBinAddr: 0x100018DD0, symSize: 0x40 }
  - { offsetInCU: 0x366B5, offset: 0x366B5, size: 0x8, addend: 0x0, symName: __ZNSt3__16__copyB8ne180100INS_17_ClassicAlgPolicyEPN7tinyobj5tag_tES4_S4_EENS_4pairIT0_T2_EES6_T1_S7_, symObjAddr: 0x17A60, symBinAddr: 0x100018E9C, symSize: 0x44 }
  - { offsetInCU: 0x36721, offset: 0x36721, size: 0x8, addend: 0x0, symName: __ZNSt3__121__convert_to_integralB8ne180100El, symObjAddr: 0x17D84, symBinAddr: 0x1000191C0, symSize: 0x14 }
  - { offsetInCU: 0x3674E, offset: 0x3674E, size: 0x8, addend: 0x0, symName: __ZNSt3__19__advanceB8ne180100IPN7tinyobj5tag_tEEEvRT_NS_15iterator_traitsIS4_E15difference_typeENS_26random_access_iterator_tagE, symObjAddr: 0x17D98, symBinAddr: 0x1000191D4, symSize: 0x30 }
  - { offsetInCU: 0x36798, offset: 0x36798, size: 0x8, addend: 0x0, symName: __ZNSt3__130__uninitialized_allocator_copyB8ne180100INS_9allocatorIN7tinyobj5tag_tEEEPS3_S5_S5_EET2_RT_T0_T1_S6_, symObjAddr: 0x17E04, symBinAddr: 0x100019240, symSize: 0x80 }
  - { offsetInCU: 0x36835, offset: 0x36835, size: 0x8, addend: 0x0, symName: __ZNSt3__114__unwrap_rangeB8ne180100IPN7tinyobj5tag_tES3_EENS_4pairIT0_S5_EET_S7_, symObjAddr: 0x17F24, symBinAddr: 0x100019360, symSize: 0x60 }
  - { offsetInCU: 0x36881, offset: 0x36881, size: 0x8, addend: 0x0, symName: __ZNSt3__135__uninitialized_allocator_copy_implB8ne180100INS_9allocatorIN7tinyobj5tag_tEEEPS3_S5_S5_EET2_RT_T0_T1_S6_, symObjAddr: 0x17F84, symBinAddr: 0x1000193C0, symSize: 0xF4 }
  - { offsetInCU: 0x3691F, offset: 0x3691F, size: 0x8, addend: 0x0, symName: __ZNSt3__113__unwrap_iterB8ne180100IPN7tinyobj5tag_tENS_18__unwrap_iter_implIS3_Lb1EEELi0EEEDTclsrT0_8__unwrapclsr3stdE7declvalIT_EEEES7_, symObjAddr: 0x18078, symBinAddr: 0x1000194B4, symSize: 0x24 }
  - { offsetInCU: 0x36963, offset: 0x36963, size: 0x8, addend: 0x0, symName: __ZNSt3__113__rewrap_iterB8ne180100IPN7tinyobj5tag_tES3_NS_18__unwrap_iter_implIS3_Lb1EEEEET_S6_T0_, symObjAddr: 0x1809C, symBinAddr: 0x1000194D8, symSize: 0x3C }
  - { offsetInCU: 0x369B8, offset: 0x369B8, size: 0x8, addend: 0x0, symName: __ZNSt3__19make_pairB8ne180100IPN7tinyobj5tag_tES3_EENS_4pairINS_18__unwrap_ref_decayIT_E4typeENS5_IT0_E4typeEEEOS6_OS9_, symObjAddr: 0x180D8, symBinAddr: 0x100019514, symSize: 0x38 }
  - { offsetInCU: 0x36ADB, offset: 0x36ADB, size: 0x8, addend: 0x0, symName: __ZNSt3__122__make_exception_guardB8ne180100INS_29_AllocatorDestroyRangeReverseINS_9allocatorIN7tinyobj5tag_tEEEPS4_EEEENS_28__exception_guard_exceptionsIT_EES9_, symObjAddr: 0x18180, symBinAddr: 0x1000195BC, symSize: 0x4C }
  - { offsetInCU: 0x36B11, offset: 0x36B11, size: 0x8, addend: 0x0, symName: __ZNSt3__112__to_addressB8ne180100IN7tinyobj5tag_tEEEPT_S4_, symObjAddr: 0x18244, symBinAddr: 0x100019680, symSize: 0x14 }
  - { offsetInCU: 0x36B46, offset: 0x36B46, size: 0x8, addend: 0x0, symName: __ZNSt3__122__make_exception_guardB8ne180100INS_6vectorIiNS_9allocatorIiEEE16__destroy_vectorEEENS_28__exception_guard_exceptionsIT_EES7_, symObjAddr: 0x1873C, symBinAddr: 0x100019B78, symSize: 0x40 }
  - { offsetInCU: 0x36B7B, offset: 0x36B7B, size: 0x8, addend: 0x0, symName: __ZNSt3__130__uninitialized_allocator_copyB8ne180100INS_9allocatorIiEEPiS3_S3_EET2_RT_T0_T1_S4_, symObjAddr: 0x189A8, symBinAddr: 0x100019DE4, symSize: 0x80 }
  - { offsetInCU: 0x36C18, offset: 0x36C18, size: 0x8, addend: 0x0, symName: __ZNSt3__114__unwrap_rangeB8ne180100IPiS1_EENS_4pairIT0_S3_EET_S5_, symObjAddr: 0x18A28, symBinAddr: 0x100019E64, symSize: 0x60 }
  - { offsetInCU: 0x36C64, offset: 0x36C64, size: 0x8, addend: 0x0, symName: __ZNSt3__135__uninitialized_allocator_copy_implB8ne180100INS_9allocatorIiEEiiiLPv0EEEPT2_RT_PT0_S9_S5_, symObjAddr: 0x18A88, symBinAddr: 0x100019EC4, symSize: 0x38 }
  - { offsetInCU: 0x36CE6, offset: 0x36CE6, size: 0x8, addend: 0x0, symName: __ZNSt3__113__unwrap_iterB8ne180100IPiNS_18__unwrap_iter_implIS1_Lb1EEELi0EEEDTclsrT0_8__unwrapclsr3stdE7declvalIT_EEEES5_, symObjAddr: 0x18AC0, symBinAddr: 0x100019EFC, symSize: 0x24 }
  - { offsetInCU: 0x36D2A, offset: 0x36D2A, size: 0x8, addend: 0x0, symName: __ZNSt3__113__rewrap_iterB8ne180100IPiS1_NS_18__unwrap_iter_implIS1_Lb1EEEEET_S4_T0_, symObjAddr: 0x18AE4, symBinAddr: 0x100019F20, symSize: 0x3C }
  - { offsetInCU: 0x36D7F, offset: 0x36D7F, size: 0x8, addend: 0x0, symName: __ZNSt3__19make_pairB8ne180100IPiS1_EENS_4pairINS_18__unwrap_ref_decayIT_E4typeENS3_IT0_E4typeEEEOS4_OS7_, symObjAddr: 0x18B20, symBinAddr: 0x100019F5C, symSize: 0x38 }
  - { offsetInCU: 0x36ED1, offset: 0x36ED1, size: 0x8, addend: 0x0, symName: __ZNSt3__14copyB8ne180100IPiS1_EET0_T_S3_S2_, symObjAddr: 0x18BC8, symBinAddr: 0x10001A004, symSize: 0x40 }
  - { offsetInCU: 0x36F2B, offset: 0x36F2B, size: 0x8, addend: 0x0, symName: __ZNSt3__16__copyB8ne180100INS_17_ClassicAlgPolicyEPiS2_S2_EENS_4pairIT0_T2_EES4_T1_S5_, symObjAddr: 0x18C08, symBinAddr: 0x10001A044, symSize: 0x44 }
  - { offsetInCU: 0x36F97, offset: 0x36F97, size: 0x8, addend: 0x0, symName: __ZNSt3__123__dispatch_copy_or_moveB8ne180100INS_17_ClassicAlgPolicyENS_11__copy_loopIS1_EENS_14__copy_trivialEPiS5_S5_EENS_4pairIT2_T4_EES7_T3_S8_, symObjAddr: 0x18C4C, symBinAddr: 0x10001A088, symSize: 0x44 }
  - { offsetInCU: 0x37015, offset: 0x37015, size: 0x8, addend: 0x0, symName: __ZNSt3__121__unwrap_and_dispatchB8ne180100INS_10__overloadINS_11__copy_loopINS_17_ClassicAlgPolicyEEENS_14__copy_trivialEEEPiS7_S7_Li0EEENS_4pairIT0_T2_EES9_T1_SA_, symObjAddr: 0x18C90, symBinAddr: 0x10001A0CC, symSize: 0xB4 }
  - { offsetInCU: 0x370A3, offset: 0x370A3, size: 0x8, addend: 0x0, symName: __ZNSt3__114__rewrap_rangeB8ne180100IPiS1_EET_S2_T0_, symObjAddr: 0x18D8C, symBinAddr: 0x10001A1C8, symSize: 0x2C }
  - { offsetInCU: 0x370EF, offset: 0x370EF, size: 0x8, addend: 0x0, symName: __ZNSt3__119__copy_trivial_implB8ne180100IiiEENS_4pairIPT_PT0_EES3_S3_S5_, symObjAddr: 0x18DB8, symBinAddr: 0x10001A1F4, symSize: 0x80 }
  - { offsetInCU: 0x37157, offset: 0x37157, size: 0x8, addend: 0x0, symName: __ZNSt3__119__constexpr_memmoveB8ne180100IiiLi0EEEPT_S2_PT0_NS_15__element_countE, symObjAddr: 0x18E38, symBinAddr: 0x10001A274, symSize: 0x64 }
  - { offsetInCU: 0x371C5, offset: 0x371C5, size: 0x8, addend: 0x0, symName: __ZNSt3__19make_pairB8ne180100IRPiS1_EENS_4pairINS_18__unwrap_ref_decayIT_E4typeENS4_IT0_E4typeEEEOS5_OS8_, symObjAddr: 0x18E9C, symBinAddr: 0x10001A2D8, symSize: 0x38 }
  - { offsetInCU: 0x37267, offset: 0x37267, size: 0x8, addend: 0x0, symName: __ZNSt3__122__make_exception_guardB8ne180100INS_6vectorIfNS_9allocatorIfEEE16__destroy_vectorEEENS_28__exception_guard_exceptionsIT_EES7_, symObjAddr: 0x193BC, symBinAddr: 0x10001A7F8, symSize: 0x40 }
  - { offsetInCU: 0x3729C, offset: 0x3729C, size: 0x8, addend: 0x0, symName: __ZNSt3__119__allocate_at_leastB8ne180100INS_9allocatorIfEEEENS_19__allocation_resultINS_16allocator_traitsIT_E7pointerEEERS5_m, symObjAddr: 0x196A4, symBinAddr: 0x10001AAE0, symSize: 0x40 }
  - { offsetInCU: 0x372DF, offset: 0x372DF, size: 0x8, addend: 0x0, symName: __ZNSt3__130__uninitialized_allocator_copyB8ne180100INS_9allocatorIfEEPfS3_S3_EET2_RT_T0_T1_S4_, symObjAddr: 0x19884, symBinAddr: 0x10001ACC0, symSize: 0x80 }
  - { offsetInCU: 0x3737C, offset: 0x3737C, size: 0x8, addend: 0x0, symName: __ZNSt3__114__unwrap_rangeB8ne180100IPfS1_EENS_4pairIT0_S3_EET_S5_, symObjAddr: 0x19974, symBinAddr: 0x10001ADB0, symSize: 0x60 }
  - { offsetInCU: 0x373C8, offset: 0x373C8, size: 0x8, addend: 0x0, symName: __ZNSt3__135__uninitialized_allocator_copy_implB8ne180100INS_9allocatorIfEEfffLPv0EEEPT2_RT_PT0_S9_S5_, symObjAddr: 0x199D4, symBinAddr: 0x10001AE10, symSize: 0x38 }
  - { offsetInCU: 0x3744A, offset: 0x3744A, size: 0x8, addend: 0x0, symName: __ZNSt3__113__unwrap_iterB8ne180100IPfNS_18__unwrap_iter_implIS1_Lb1EEELi0EEEDTclsrT0_8__unwrapclsr3stdE7declvalIT_EEEES5_, symObjAddr: 0x19A0C, symBinAddr: 0x10001AE48, symSize: 0x24 }
  - { offsetInCU: 0x3748E, offset: 0x3748E, size: 0x8, addend: 0x0, symName: __ZNSt3__113__rewrap_iterB8ne180100IPfS1_NS_18__unwrap_iter_implIS1_Lb1EEEEET_S4_T0_, symObjAddr: 0x19A30, symBinAddr: 0x10001AE6C, symSize: 0x3C }
  - { offsetInCU: 0x374E3, offset: 0x374E3, size: 0x8, addend: 0x0, symName: __ZNSt3__19make_pairB8ne180100IPfS1_EENS_4pairINS_18__unwrap_ref_decayIT_E4typeENS3_IT0_E4typeEEEOS4_OS7_, symObjAddr: 0x19A6C, symBinAddr: 0x10001AEA8, symSize: 0x38 }
  - { offsetInCU: 0x37635, offset: 0x37635, size: 0x8, addend: 0x0, symName: __ZNSt3__14copyB8ne180100IPfS1_EET0_T_S3_S2_, symObjAddr: 0x19B14, symBinAddr: 0x10001AF50, symSize: 0x40 }
  - { offsetInCU: 0x3768F, offset: 0x3768F, size: 0x8, addend: 0x0, symName: __ZNSt3__16__copyB8ne180100INS_17_ClassicAlgPolicyEPfS2_S2_EENS_4pairIT0_T2_EES4_T1_S5_, symObjAddr: 0x19B54, symBinAddr: 0x10001AF90, symSize: 0x44 }
  - { offsetInCU: 0x376FB, offset: 0x376FB, size: 0x8, addend: 0x0, symName: __ZNSt3__123__dispatch_copy_or_moveB8ne180100INS_17_ClassicAlgPolicyENS_11__copy_loopIS1_EENS_14__copy_trivialEPfS5_S5_EENS_4pairIT2_T4_EES7_T3_S8_, symObjAddr: 0x19B98, symBinAddr: 0x10001AFD4, symSize: 0x44 }
  - { offsetInCU: 0x37779, offset: 0x37779, size: 0x8, addend: 0x0, symName: __ZNSt3__121__unwrap_and_dispatchB8ne180100INS_10__overloadINS_11__copy_loopINS_17_ClassicAlgPolicyEEENS_14__copy_trivialEEEPfS7_S7_Li0EEENS_4pairIT0_T2_EES9_T1_SA_, symObjAddr: 0x19BDC, symBinAddr: 0x10001B018, symSize: 0xB4 }
  - { offsetInCU: 0x37807, offset: 0x37807, size: 0x8, addend: 0x0, symName: __ZNSt3__114__rewrap_rangeB8ne180100IPfS1_EET_S2_T0_, symObjAddr: 0x19CD8, symBinAddr: 0x10001B114, symSize: 0x2C }
  - { offsetInCU: 0x37853, offset: 0x37853, size: 0x8, addend: 0x0, symName: __ZNSt3__119__copy_trivial_implB8ne180100IffEENS_4pairIPT_PT0_EES3_S3_S5_, symObjAddr: 0x19D04, symBinAddr: 0x10001B140, symSize: 0x80 }
  - { offsetInCU: 0x378BB, offset: 0x378BB, size: 0x8, addend: 0x0, symName: __ZNSt3__119__constexpr_memmoveB8ne180100IffLi0EEEPT_S2_PT0_NS_15__element_countE, symObjAddr: 0x19D84, symBinAddr: 0x10001B1C0, symSize: 0x64 }
  - { offsetInCU: 0x37929, offset: 0x37929, size: 0x8, addend: 0x0, symName: __ZNSt3__19make_pairB8ne180100IRPfS1_EENS_4pairINS_18__unwrap_ref_decayIT_E4typeENS4_IT0_E4typeEEEOS5_OS8_, symObjAddr: 0x19DE8, symBinAddr: 0x10001B224, symSize: 0x38 }
  - { offsetInCU: 0x379CB, offset: 0x379CB, size: 0x8, addend: 0x0, symName: __ZNSt3__112__to_addressB8ne180100IfEEPT_S2_, symObjAddr: 0x19EB4, symBinAddr: 0x10001B2F0, symSize: 0x14 }
  - { offsetInCU: 0x37A00, offset: 0x37A00, size: 0x8, addend: 0x0, symName: __ZNSt3__122__make_exception_guardB8ne180100INS_6vectorINS_12basic_stringIcNS_11char_traitsIcEENS_9allocatorIcEEEENS5_IS7_EEE16__destroy_vectorEEENS_28__exception_guard_exceptionsIT_EESC_, symObjAddr: 0x1A4A0, symBinAddr: 0x10001B8DC, symSize: 0x40 }
  - { offsetInCU: 0x37A35, offset: 0x37A35, size: 0x8, addend: 0x0, symName: __ZNSt3__119__allocate_at_leastB8ne180100INS_9allocatorINS_12basic_stringIcNS_11char_traitsIcEENS1_IcEEEEEEEENS_19__allocation_resultINS_16allocator_traitsIT_E7pointerEEERSA_m, symObjAddr: 0x1A790, symBinAddr: 0x10001BBCC, symSize: 0x40 }
  - { offsetInCU: 0x37A78, offset: 0x37A78, size: 0x8, addend: 0x0, symName: __ZNSt3__130__uninitialized_allocator_copyB8ne180100INS_9allocatorINS_12basic_stringIcNS_11char_traitsIcEENS1_IcEEEEEEPS6_S8_S8_EET2_RT_T0_T1_S9_, symObjAddr: 0x1A978, symBinAddr: 0x10001BDB4, symSize: 0x80 }
  - { offsetInCU: 0x37B15, offset: 0x37B15, size: 0x8, addend: 0x0, symName: __ZNSt3__114__unwrap_rangeB8ne180100IPNS_12basic_stringIcNS_11char_traitsIcEENS_9allocatorIcEEEES7_EENS_4pairIT0_S9_EET_SB_, symObjAddr: 0x1AA70, symBinAddr: 0x10001BEAC, symSize: 0x60 }
  - { offsetInCU: 0x37B61, offset: 0x37B61, size: 0x8, addend: 0x0, symName: __ZNSt3__135__uninitialized_allocator_copy_implB8ne180100INS_9allocatorINS_12basic_stringIcNS_11char_traitsIcEENS1_IcEEEEEEPS6_S8_S8_EET2_RT_T0_T1_S9_, symObjAddr: 0x1AAD0, symBinAddr: 0x10001BF0C, symSize: 0xF4 }
  - { offsetInCU: 0x37BFF, offset: 0x37BFF, size: 0x8, addend: 0x0, symName: __ZNSt3__113__unwrap_iterB8ne180100IPNS_12basic_stringIcNS_11char_traitsIcEENS_9allocatorIcEEEENS_18__unwrap_iter_implIS7_Lb1EEELi0EEEDTclsrT0_8__unwrapclsr3stdE7declvalIT_EEEESB_, symObjAddr: 0x1ABC4, symBinAddr: 0x10001C000, symSize: 0x24 }
  - { offsetInCU: 0x37C43, offset: 0x37C43, size: 0x8, addend: 0x0, symName: __ZNSt3__113__rewrap_iterB8ne180100IPNS_12basic_stringIcNS_11char_traitsIcEENS_9allocatorIcEEEES7_NS_18__unwrap_iter_implIS7_Lb1EEEEET_SA_T0_, symObjAddr: 0x1ABE8, symBinAddr: 0x10001C024, symSize: 0x3C }
  - { offsetInCU: 0x37C98, offset: 0x37C98, size: 0x8, addend: 0x0, symName: __ZNSt3__19make_pairB8ne180100IPNS_12basic_stringIcNS_11char_traitsIcEENS_9allocatorIcEEEES7_EENS_4pairINS_18__unwrap_ref_decayIT_E4typeENS9_IT0_E4typeEEEOSA_OSD_, symObjAddr: 0x1AC24, symBinAddr: 0x10001C060, symSize: 0x38 }
  - { offsetInCU: 0x37DBB, offset: 0x37DBB, size: 0x8, addend: 0x0, symName: __ZNSt3__122__make_exception_guardB8ne180100INS_29_AllocatorDestroyRangeReverseINS_9allocatorINS_12basic_stringIcNS_11char_traitsIcEENS2_IcEEEEEEPS7_EEEENS_28__exception_guard_exceptionsIT_EESC_, symObjAddr: 0x1ACCC, symBinAddr: 0x10001C108, symSize: 0x4C }
  - { offsetInCU: 0x37DF1, offset: 0x37DF1, size: 0x8, addend: 0x0, symName: __ZNSt3__112__to_addressB8ne180100INS_12basic_stringIcNS_11char_traitsIcEENS_9allocatorIcEEEEEEPT_S8_, symObjAddr: 0x1AD90, symBinAddr: 0x10001C1CC, symSize: 0x14 }
  - { offsetInCU: 0x37E26, offset: 0x37E26, size: 0x8, addend: 0x0, symName: __ZNSt3__119__allocator_destroyB8ne180100INS_9allocatorINS_12basic_stringIcNS_11char_traitsIcEENS1_IcEEEEEENS_16reverse_iteratorIPS6_EESA_EEvRT_T0_T1_, symObjAddr: 0x1AF70, symBinAddr: 0x10001C3AC, symSize: 0x70 }
  - { offsetInCU: 0x37E89, offset: 0x37E89, size: 0x8, addend: 0x0, symName: __ZNSt3__1neB8ne180100IPNS_12basic_stringIcNS_11char_traitsIcEENS_9allocatorIcEEEES7_EEbRKNS_16reverse_iteratorIT_EERKNS8_IT0_EE, symObjAddr: 0x1B014, symBinAddr: 0x10001C450, symSize: 0x48 }
  - { offsetInCU: 0x37ED5, offset: 0x37ED5, size: 0x8, addend: 0x0, symName: __ZNSt3__112__to_addressB8ne180100INS_16reverse_iteratorIPNS_12basic_stringIcNS_11char_traitsIcEENS_9allocatorIcEEEEEEvEEu7__decayIDTclsr19__to_address_helperIT_EE6__callclsr3stdE7declvalIRKSA_EEEEESC_, symObjAddr: 0x1B088, symBinAddr: 0x10001C4C4, symSize: 0x24 }
  - { offsetInCU: 0x37F88, offset: 0x37F88, size: 0x8, addend: 0x0, symName: __ZNSt3__119__allocator_destroyB8ne180100INS_9allocatorIN7tinyobj5tag_tEEENS_16reverse_iteratorIPS3_EES7_EEvRT_T0_T1_, symObjAddr: 0x1B608, symBinAddr: 0x10001CA44, symSize: 0x70 }
  - { offsetInCU: 0x37FEB, offset: 0x37FEB, size: 0x8, addend: 0x0, symName: __ZNSt3__1neB8ne180100IPN7tinyobj5tag_tES3_EEbRKNS_16reverse_iteratorIT_EERKNS4_IT0_EE, symObjAddr: 0x1B6AC, symBinAddr: 0x10001CAE8, symSize: 0x48 }
  - { offsetInCU: 0x38037, offset: 0x38037, size: 0x8, addend: 0x0, symName: __ZNSt3__112__to_addressB8ne180100INS_16reverse_iteratorIPN7tinyobj5tag_tEEEvEEu7__decayIDTclsr19__to_address_helperIT_EE6__callclsr3stdE7declvalIRKS6_EEEEES8_, symObjAddr: 0x1B720, symBinAddr: 0x10001CB5C, symSize: 0x24 }
  - { offsetInCU: 0x380EA, offset: 0x380EA, size: 0x8, addend: 0x0, symName: __ZNSt3__123__dispatch_copy_or_moveB8ne180100INS_17_ClassicAlgPolicyENS_11__copy_loopIS1_EENS_14__copy_trivialEPN7tinyobj5tag_tES7_S7_EENS_4pairIT2_T4_EES9_T3_SA_, symObjAddr: 0x1B924, symBinAddr: 0x10001CD60, symSize: 0x44 }
  - { offsetInCU: 0x38168, offset: 0x38168, size: 0x8, addend: 0x0, symName: __ZNSt3__121__unwrap_and_dispatchB8ne180100INS_10__overloadINS_11__copy_loopINS_17_ClassicAlgPolicyEEENS_14__copy_trivialEEEPN7tinyobj5tag_tES9_S9_Li0EEENS_4pairIT0_T2_EESB_T1_SC_, symObjAddr: 0x1B968, symBinAddr: 0x10001CDA4, symSize: 0xB4 }
  - { offsetInCU: 0x38287, offset: 0x38287, size: 0x8, addend: 0x0, symName: __ZNSt3__114__rewrap_rangeB8ne180100IPN7tinyobj5tag_tES3_EET_S4_T0_, symObjAddr: 0x1BAA4, symBinAddr: 0x10001CEE0, symSize: 0x2C }
  - { offsetInCU: 0x382D3, offset: 0x382D3, size: 0x8, addend: 0x0, symName: __ZNSt3__18distanceB8ne180100IPiEENS_15iterator_traitsIT_E15difference_typeES3_S3_, symObjAddr: 0x1BE78, symBinAddr: 0x10001D2B4, symSize: 0x2C }
  - { offsetInCU: 0x38316, offset: 0x38316, size: 0x8, addend: 0x0, symName: __ZNSt3__14nextB8ne180100IPiLi0EEET_S2_NS_15iterator_traitsIS2_E15difference_typeE, symObjAddr: 0x1BEA4, symBinAddr: 0x10001D2E0, symSize: 0x34 }
  - { offsetInCU: 0x38360, offset: 0x38360, size: 0x8, addend: 0x0, symName: __ZNSt3__19__advanceB8ne180100IPiEEvRT_NS_15iterator_traitsIS2_E15difference_typeENS_26random_access_iterator_tagE, symObjAddr: 0x1BFF0, symBinAddr: 0x10001D42C, symSize: 0x28 }
  - { offsetInCU: 0x383AA, offset: 0x383AA, size: 0x8, addend: 0x0, symName: __ZNSt3__110__distanceB8ne180100IPiEENS_15iterator_traitsIT_E15difference_typeES3_S3_NS_26random_access_iterator_tagE, symObjAddr: 0x1C070, symBinAddr: 0x10001D4AC, symSize: 0x28 }
  - { offsetInCU: 0x383F8, offset: 0x383F8, size: 0x8, addend: 0x0, symName: __ZNSt3__18distanceB8ne180100IPfEENS_15iterator_traitsIT_E15difference_typeES3_S3_, symObjAddr: 0x1C298, symBinAddr: 0x10001D6D4, symSize: 0x2C }
  - { offsetInCU: 0x3843B, offset: 0x3843B, size: 0x8, addend: 0x0, symName: __ZNSt3__14nextB8ne180100IPfLi0EEET_S2_NS_15iterator_traitsIS2_E15difference_typeE, symObjAddr: 0x1C2C4, symBinAddr: 0x10001D700, symSize: 0x34 }
  - { offsetInCU: 0x38485, offset: 0x38485, size: 0x8, addend: 0x0, symName: __ZNSt3__19__advanceB8ne180100IPfEEvRT_NS_15iterator_traitsIS2_E15difference_typeENS_26random_access_iterator_tagE, symObjAddr: 0x1C4C4, symBinAddr: 0x10001D900, symSize: 0x28 }
  - { offsetInCU: 0x384CF, offset: 0x384CF, size: 0x8, addend: 0x0, symName: __ZNSt3__110__distanceB8ne180100IPfEENS_15iterator_traitsIT_E15difference_typeES3_S3_NS_26random_access_iterator_tagE, symObjAddr: 0x1C500, symBinAddr: 0x10001D93C, symSize: 0x28 }
  - { offsetInCU: 0x3851D, offset: 0x3851D, size: 0x8, addend: 0x0, symName: __ZNSt3__18distanceB8ne180100IPNS_12basic_stringIcNS_11char_traitsIcEENS_9allocatorIcEEEEEENS_15iterator_traitsIT_E15difference_typeES9_S9_, symObjAddr: 0x1C728, symBinAddr: 0x10001DB64, symSize: 0x2C }
  - { offsetInCU: 0x38560, offset: 0x38560, size: 0x8, addend: 0x0, symName: __ZNSt3__14nextB8ne180100IPNS_12basic_stringIcNS_11char_traitsIcEENS_9allocatorIcEEEELi0EEET_S8_NS_15iterator_traitsIS8_E15difference_typeE, symObjAddr: 0x1C754, symBinAddr: 0x10001DB90, symSize: 0x34 }
  - { offsetInCU: 0x385A9, offset: 0x385A9, size: 0x8, addend: 0x0, symName: __ZNSt3__14copyB8ne180100IPNS_12basic_stringIcNS_11char_traitsIcEENS_9allocatorIcEEEES7_EET0_T_S9_S8_, symObjAddr: 0x1C788, symBinAddr: 0x10001DBC4, symSize: 0x40 }
  - { offsetInCU: 0x38603, offset: 0x38603, size: 0x8, addend: 0x0, symName: __ZNSt3__16__copyB8ne180100INS_17_ClassicAlgPolicyEPNS_12basic_stringIcNS_11char_traitsIcEENS_9allocatorIcEEEES8_S8_EENS_4pairIT0_T2_EESA_T1_SB_, symObjAddr: 0x1C7C8, symBinAddr: 0x10001DC04, symSize: 0x44 }
  - { offsetInCU: 0x38670, offset: 0x38670, size: 0x8, addend: 0x0, symName: __ZNSt3__19__advanceB8ne180100IPNS_12basic_stringIcNS_11char_traitsIcEENS_9allocatorIcEEEEEEvRT_NS_15iterator_traitsIS8_E15difference_typeENS_26random_access_iterator_tagE, symObjAddr: 0x1C9D8, symBinAddr: 0x10001DE14, symSize: 0x30 }
  - { offsetInCU: 0x386BA, offset: 0x386BA, size: 0x8, addend: 0x0, symName: __ZNSt3__123__dispatch_copy_or_moveB8ne180100INS_17_ClassicAlgPolicyENS_11__copy_loopIS1_EENS_14__copy_trivialEPNS_12basic_stringIcNS_11char_traitsIcEENS_9allocatorIcEEEESB_SB_EENS_4pairIT2_T4_EESD_T3_SE_, symObjAddr: 0x1CA08, symBinAddr: 0x10001DE44, symSize: 0x44 }
  - { offsetInCU: 0x38738, offset: 0x38738, size: 0x8, addend: 0x0, symName: __ZNSt3__121__unwrap_and_dispatchB8ne180100INS_10__overloadINS_11__copy_loopINS_17_ClassicAlgPolicyEEENS_14__copy_trivialEEEPNS_12basic_stringIcNS_11char_traitsIcEENS_9allocatorIcEEEESD_SD_Li0EEENS_4pairIT0_T2_EESF_T1_SG_, symObjAddr: 0x1CA4C, symBinAddr: 0x10001DE88, symSize: 0xB4 }
  - { offsetInCU: 0x387C6, offset: 0x387C6, size: 0x8, addend: 0x0, symName: __ZNSt3__114__rewrap_rangeB8ne180100IPNS_12basic_stringIcNS_11char_traitsIcEENS_9allocatorIcEEEES7_EET_S8_T0_, symObjAddr: 0x1CB88, symBinAddr: 0x10001DFC4, symSize: 0x2C }
  - { offsetInCU: 0x38812, offset: 0x38812, size: 0x8, addend: 0x0, symName: __ZNSt3__110__distanceB8ne180100IPNS_12basic_stringIcNS_11char_traitsIcEENS_9allocatorIcEEEEEENS_15iterator_traitsIT_E15difference_typeES9_S9_NS_26random_access_iterator_tagE, symObjAddr: 0x1CBC8, symBinAddr: 0x10001E004, symSize: 0x28 }
  - { offsetInCU: 0x38860, offset: 0x38860, size: 0x8, addend: 0x0, symName: __ZNSt3__119__allocate_at_leastB8ne180100INS_9allocatorIN7tinyobj5tag_tEEEEENS_19__allocation_resultINS_16allocator_traitsIT_E7pointerEEERS7_m, symObjAddr: 0x1CE60, symBinAddr: 0x10001E29C, symSize: 0x40 }
  - { offsetInCU: 0x388A3, offset: 0x388A3, size: 0x8, addend: 0x0, symName: __ZNSt3__110__distanceB8ne180100IPN7tinyobj5tag_tEEENS_15iterator_traitsIT_E15difference_typeES5_S5_NS_26random_access_iterator_tagE, symObjAddr: 0x1CFAC, symBinAddr: 0x10001E3E8, symSize: 0x28 }
  - { offsetInCU: 0x388F1, offset: 0x388F1, size: 0x8, addend: 0x0, symName: __ZNSt3__112__to_addressB8ne180100IN7tinyobj8__line_tEEEPT_S4_, symObjAddr: 0x1DEF4, symBinAddr: 0x10001F330, symSize: 0x14 }
  - { offsetInCU: 0x38926, offset: 0x38926, size: 0x8, addend: 0x0, symName: __ZNSt3__112__to_addressB8ne180100IN7tinyobj10__points_tEEEPT_S4_, symObjAddr: 0x1E084, symBinAddr: 0x10001F4C0, symSize: 0x14 }
  - { offsetInCU: 0x3895B, offset: 0x3895B, size: 0x8, addend: 0x0, symName: __ZNSt3__112__to_addressB8ne180100IN7tinyobj6face_tEEEPT_S4_, symObjAddr: 0x1EA00, symBinAddr: 0x10001FE3C, symSize: 0x14 }
  - { offsetInCU: 0x38990, offset: 0x38990, size: 0x8, addend: 0x0, symName: __ZNSt3__112__to_addressB8ne180100IN7tinyobj13skin_weight_tEEEPT_S4_, symObjAddr: 0x1F2BC, symBinAddr: 0x1000206F8, symSize: 0x14 }
  - { offsetInCU: 0x389C5, offset: 0x389C5, size: 0x8, addend: 0x0, symName: __ZNSt3__118__constexpr_strlenB8ne180100EPKc, symObjAddr: 0x1F45C, symBinAddr: 0x100020898, symSize: 0x24 }
  - { offsetInCU: 0x389F1, offset: 0x389F1, size: 0x8, addend: 0x0, symName: __ZNSt3__112__to_addressB8ne180100IN7tinyobj7shape_tEEEPT_S4_, symObjAddr: 0x1FAB4, symBinAddr: 0x100020EF0, symSize: 0x14 }
  - { offsetInCU: 0x38A26, offset: 0x38A26, size: 0x8, addend: 0x0, symName: __ZNSt3__112__to_addressB8ne180100IN7tinyobj10material_tEEEPT_S4_, symObjAddr: 0x1FE80, symBinAddr: 0x1000212BC, symSize: 0x14 }
  - { offsetInCU: 0x38A5B, offset: 0x38A5B, size: 0x8, addend: 0x0, symName: __ZNSt3__112__to_addressB8ne180100IN7tinyobj7index_tEEEPT_S4_, symObjAddr: 0x2044C, symBinAddr: 0x100021888, symSize: 0x14 }
  - { offsetInCU: 0x38A90, offset: 0x38A90, size: 0x8, addend: 0x0, symName: __ZNSt3__119__allocate_at_leastB8ne180100INS_9allocatorIN7tinyobj7index_tEEEEENS_19__allocation_resultINS_16allocator_traitsIT_E7pointerEEERS7_m, symObjAddr: 0x20990, symBinAddr: 0x100021DCC, symSize: 0x40 }
  - { offsetInCU: 0x38AD3, offset: 0x38AD3, size: 0x8, addend: 0x0, symName: __ZNSt3__142__uninitialized_allocator_move_if_noexceptB8ne180100INS_9allocatorIN7tinyobj7index_tEEENS_16reverse_iteratorIPS3_EES7_S3_vEET1_RT_T0_SB_S8_, symObjAddr: 0x20B64, symBinAddr: 0x100021FA0, symSize: 0x78 }
  - { offsetInCU: 0x38B51, offset: 0x38B51, size: 0x8, addend: 0x0, symName: __ZNSt3__14swapB8ne180100IPN7tinyobj7index_tEEENS_9enable_ifIXaasr21is_move_constructibleIT_EE5valuesr18is_move_assignableIS5_EE5valueEvE4typeERS5_S8_, symObjAddr: 0x20C28, symBinAddr: 0x100022064, symSize: 0x3C }
  - { offsetInCU: 0x38BA2, offset: 0x38BA2, size: 0x8, addend: 0x0, symName: __ZNSt3__14moveB8ne180100INS_16reverse_iteratorIPN7tinyobj7index_tEEES5_EET0_T_S7_S6_, symObjAddr: 0x20C78, symBinAddr: 0x1000220B4, symSize: 0x78 }
  - { offsetInCU: 0x38BFC, offset: 0x38BFC, size: 0x8, addend: 0x0, symName: __ZNSt3__16__moveB8ne180100INS_17_ClassicAlgPolicyENS_16reverse_iteratorIPN7tinyobj7index_tEEES6_S6_EENS_4pairIT0_T2_EES8_T1_S9_, symObjAddr: 0x20CF0, symBinAddr: 0x10002212C, symSize: 0x64 }
  - { offsetInCU: 0x38C68, offset: 0x38C68, size: 0x8, addend: 0x0, symName: __ZNSt3__123__dispatch_copy_or_moveB8ne180100INS_17_ClassicAlgPolicyENS_11__move_loopIS1_EENS_14__move_trivialENS_16reverse_iteratorIPN7tinyobj7index_tEEES9_S9_EENS_4pairIT2_T4_EESB_T3_SC_, symObjAddr: 0x20D54, symBinAddr: 0x100022190, symSize: 0x64 }
  - { offsetInCU: 0x38CE6, offset: 0x38CE6, size: 0x8, addend: 0x0, symName: __ZNSt3__121__unwrap_and_dispatchB8ne180100INS_10__overloadINS_11__move_loopINS_17_ClassicAlgPolicyEEENS_14__move_trivialEEENS_16reverse_iteratorIPN7tinyobj7index_tEEESB_SB_Li0EEENS_4pairIT0_T2_EESD_T1_SE_, symObjAddr: 0x20DB8, symBinAddr: 0x1000221F4, symSize: 0x12C }
  - { offsetInCU: 0x38D76, offset: 0x38D76, size: 0x8, addend: 0x0, symName: __ZNSt3__114__unwrap_rangeB8ne180100INS_16reverse_iteratorIPN7tinyobj7index_tEEES5_EENS_4pairIT0_S7_EET_S9_, symObjAddr: 0x20EE4, symBinAddr: 0x100022320, symSize: 0x84 }
  - { offsetInCU: 0x38E96, offset: 0x38E96, size: 0x8, addend: 0x0, symName: __ZNSt3__113__unwrap_iterB8ne180100INS_16reverse_iteratorIPN7tinyobj7index_tEEENS_18__unwrap_iter_implIS5_Lb0EEELi0EEEDTclsrT0_8__unwrapclsr3stdE7declvalIT_EEEES9_, symObjAddr: 0x21010, symBinAddr: 0x10002244C, symSize: 0x44 }
  - { offsetInCU: 0x38EDA, offset: 0x38EDA, size: 0x8, addend: 0x0, symName: __ZNSt3__19make_pairB8ne180100INS_16reverse_iteratorIPN7tinyobj7index_tEEES5_EENS_4pairINS_18__unwrap_ref_decayIT_E4typeENS7_IT0_E4typeEEEOS8_OSB_, symObjAddr: 0x21054, symBinAddr: 0x100022490, symSize: 0x38 }
  - { offsetInCU: 0x38F29, offset: 0x38F29, size: 0x8, addend: 0x0, symName: __ZNSt3__114__rewrap_rangeB8ne180100INS_16reverse_iteratorIPN7tinyobj7index_tEEES5_EET_S6_T0_, symObjAddr: 0x2108C, symBinAddr: 0x1000224C8, symSize: 0x5C }
  - { offsetInCU: 0x38F75, offset: 0x38F75, size: 0x8, addend: 0x0, symName: __ZNSt3__113__rewrap_iterB8ne180100INS_16reverse_iteratorIPN7tinyobj7index_tEEES5_NS_18__unwrap_iter_implIS5_Lb0EEEEET_S8_T0_, symObjAddr: 0x210E8, symBinAddr: 0x100022524, symSize: 0x74 }
  - { offsetInCU: 0x38FCA, offset: 0x38FCA, size: 0x8, addend: 0x0, symName: __ZNSt3__1neB8ne180100IPN7tinyobj7index_tES3_EEbRKNS_16reverse_iteratorIT_EERKNS4_IT0_EE, symObjAddr: 0x2115C, symBinAddr: 0x100022598, symSize: 0x48 }
  - { offsetInCU: 0x39069, offset: 0x39069, size: 0x8, addend: 0x0, symName: __ZNSt3__142__uninitialized_allocator_move_if_noexceptB8ne180100INS_9allocatorINS_12basic_stringIcNS_11char_traitsIcEENS1_IcEEEEEENS_16reverse_iteratorIPS6_EESA_SA_EET2_RT_T0_T1_SB_, symObjAddr: 0x21CBC, symBinAddr: 0x1000230F8, symSize: 0x11C }
  - { offsetInCU: 0x39109, offset: 0x39109, size: 0x8, addend: 0x0, symName: __ZNSt3__14swapB8ne180100IPNS_12basic_stringIcNS_11char_traitsIcEENS_9allocatorIcEEEEEENS_9enable_ifIXaasr21is_move_constructibleIT_EE5valuesr18is_move_assignableIS9_EE5valueEvE4typeERS9_SC_, symObjAddr: 0x21DD8, symBinAddr: 0x100023214, symSize: 0x3C }
  - { offsetInCU: 0x3915A, offset: 0x3915A, size: 0x8, addend: 0x0, symName: __ZNSt3__122__make_exception_guardB8ne180100INS_29_AllocatorDestroyRangeReverseINS_9allocatorINS_12basic_stringIcNS_11char_traitsIcEENS2_IcEEEEEENS_16reverse_iteratorIPS7_EEEEEENS_28__exception_guard_exceptionsIT_EESE_, symObjAddr: 0x21E14, symBinAddr: 0x100023250, symSize: 0x4C }
  - { offsetInCU: 0x39190, offset: 0x39190, size: 0x8, addend: 0x0, symName: __ZNSt3__119__allocator_destroyB8ne180100INS_9allocatorINS_12basic_stringIcNS_11char_traitsIcEENS1_IcEEEEEENS_16reverse_iteratorINS8_IPS6_EEEESB_EEvRT_T0_T1_, symObjAddr: 0x220F0, symBinAddr: 0x10002352C, symSize: 0x70 }
  - { offsetInCU: 0x391F5, offset: 0x391F5, size: 0x8, addend: 0x0, symName: __ZNSt3__1neB8ne180100INS_16reverse_iteratorIPNS_12basic_stringIcNS_11char_traitsIcEENS_9allocatorIcEEEEEES9_EEbRKNS1_IT_EERKNS1_IT0_EE, symObjAddr: 0x2219C, symBinAddr: 0x1000235D8, symSize: 0x60 }
  - { offsetInCU: 0x39241, offset: 0x39241, size: 0x8, addend: 0x0, symName: __ZNSt3__112__to_addressB8ne180100INS_16reverse_iteratorINS1_IPNS_12basic_stringIcNS_11char_traitsIcEENS_9allocatorIcEEEEEEEEvEEu7__decayIDTclsr19__to_address_helperIT_EE6__callclsr3stdE7declvalIRKSB_EEEEESD_, symObjAddr: 0x221FC, symBinAddr: 0x100023638, symSize: 0x24 }
  - { offsetInCU: 0x392A1, offset: 0x392A1, size: 0x8, addend: 0x0, symName: __ZNSt3__122__str_find_last_not_ofB8ne180100IcmNS_11char_traitsIcEELm18446744073709551615EEET0_PKT_S3_S6_S3_S3_, symObjAddr: 0x227F4, symBinAddr: 0x100023C30, symSize: 0xDC }
  - { offsetInCU: 0x39356, offset: 0x39356, size: 0x8, addend: 0x0, symName: __ZNSt3__118__constexpr_memchrB8ne180100IKccEEPT_S3_T0_m, symObjAddr: 0x22940, symBinAddr: 0x100023D7C, symSize: 0x40 }
  - { offsetInCU: 0x393D5, offset: 0x393D5, size: 0x8, addend: 0x0, symName: __ZNSt3__1ltB8ne180100IcNS_11char_traitsIcEENS_9allocatorIcEEEEbRKNS_12basic_stringIT_T0_T1_EESB_, symObjAddr: 0x231DC, symBinAddr: 0x100024618, symSize: 0x38 }
  - { offsetInCU: 0x3942D, offset: 0x3942D, size: 0x8, addend: 0x0, symName: __ZNSt3__17launderB8ne180100IKNS_4pairIKNS_12basic_stringIcNS_11char_traitsIcEENS_9allocatorIcEEEEiEEEEPT_SC_, symObjAddr: 0x234A8, symBinAddr: 0x1000248E4, symSize: 0x24 }
  - { offsetInCU: 0x39465, offset: 0x39465, size: 0x8, addend: 0x0, symName: __ZNSt3__19__launderB8ne180100IKNS_4pairIKNS_12basic_stringIcNS_11char_traitsIcEENS_9allocatorIcEEEEiEEEEPT_SC_, symObjAddr: 0x234CC, symBinAddr: 0x100024908, symSize: 0x14 }
  - { offsetInCU: 0x394BA, offset: 0x394BA, size: 0x8, addend: 0x0, symName: __ZNSt3__17launderB8ne180100INS_4pairIKNS_12basic_stringIcNS_11char_traitsIcEENS_9allocatorIcEEEEiEEEEPT_SB_, symObjAddr: 0x2395C, symBinAddr: 0x100024D98, symSize: 0x24 }
  - { offsetInCU: 0x394F2, offset: 0x394F2, size: 0x8, addend: 0x0, symName: __ZNSt3__19__launderB8ne180100INS_4pairIKNS_12basic_stringIcNS_11char_traitsIcEENS_9allocatorIcEEEEiEEEEPT_SB_, symObjAddr: 0x23980, symBinAddr: 0x100024DBC, symSize: 0x14 }
  - { offsetInCU: 0x39529, offset: 0x39529, size: 0x8, addend: 0x0, symName: __ZNSt3__127__tree_balance_after_insertB8ne180100IPNS_16__tree_node_baseIPvEEEEvT_S5_, symObjAddr: 0x23A1C, symBinAddr: 0x100024E58, symSize: 0x32C }
  - { offsetInCU: 0x395A5, offset: 0x395A5, size: 0x8, addend: 0x0, symName: __ZNSt3__120__tree_is_left_childB8ne180100IPNS_16__tree_node_baseIPvEEEEbT_, symObjAddr: 0x23D88, symBinAddr: 0x1000251C4, symSize: 0x2C }
  - { offsetInCU: 0x395DA, offset: 0x395DA, size: 0x8, addend: 0x0, symName: __ZNSt3__118__tree_left_rotateB8ne180100IPNS_16__tree_node_baseIPvEEEEvT_, symObjAddr: 0x23DB4, symBinAddr: 0x1000251F0, symSize: 0xD8 }
  - { offsetInCU: 0x39619, offset: 0x39619, size: 0x8, addend: 0x0, symName: __ZNSt3__119__tree_right_rotateB8ne180100IPNS_16__tree_node_baseIPvEEEEvT_, symObjAddr: 0x23E8C, symBinAddr: 0x1000252C8, symSize: 0xCC }
  - { offsetInCU: 0x3965B, offset: 0x3965B, size: 0x8, addend: 0x0, symName: __ZNSt3__112__destroy_atB8ne180100INS_4pairIKNS_12basic_stringIcNS_11char_traitsIcEENS_9allocatorIcEEEEiEELi0EEEvPT_, symObjAddr: 0x24170, symBinAddr: 0x1000255AC, symSize: 0x24 }
  - { offsetInCU: 0x39692, offset: 0x39692, size: 0x8, addend: 0x0, symName: __ZNSt3__1neB8ne180100ERKNS_20__map_const_iteratorINS_21__tree_const_iteratorINS_12__value_typeINS_12basic_stringIcNS_11char_traitsIcEENS_9allocatorIcEEEES8_EEPNS_11__tree_nodeIS9_PvEElEEEESH_, symObjAddr: 0x25184, symBinAddr: 0x1000265C0, symSize: 0x30 }
  - { offsetInCU: 0x396CF, offset: 0x396CF, size: 0x8, addend: 0x0, symName: __ZNSt3__1neB8ne180100ERKNS_21__tree_const_iteratorINS_12__value_typeINS_12basic_stringIcNS_11char_traitsIcEENS_9allocatorIcEEEES7_EEPNS_11__tree_nodeIS8_PvEElEESF_, symObjAddr: 0x2528C, symBinAddr: 0x1000266C8, symSize: 0x34 }
  - { offsetInCU: 0x3970D, offset: 0x3970D, size: 0x8, addend: 0x0, symName: __ZNSt3__1eqB8ne180100ERKNS_21__tree_const_iteratorINS_12__value_typeINS_12basic_stringIcNS_11char_traitsIcEENS_9allocatorIcEEEES7_EEPNS_11__tree_nodeIS8_PvEElEESF_, symObjAddr: 0x252C0, symBinAddr: 0x1000266FC, symSize: 0x30 }
  - { offsetInCU: 0x3974A, offset: 0x3974A, size: 0x8, addend: 0x0, symName: __ZNSt3__14nextB8ne180100INS_21__tree_const_iteratorINS_12__value_typeINS_12basic_stringIcNS_11char_traitsIcEENS_9allocatorIcEEEES8_EEPNS_11__tree_nodeIS9_PvEElEELi0EEET_SF_NS_15iterator_traitsISF_E15difference_typeE, symObjAddr: 0x25DC8, symBinAddr: 0x100027204, symSize: 0x3C }
  - { offsetInCU: 0x39793, offset: 0x39793, size: 0x8, addend: 0x0, symName: __ZNSt3__17launderB8ne180100IKNS_4pairIKNS_12basic_stringIcNS_11char_traitsIcEENS_9allocatorIcEEEES7_EEEEPT_SC_, symObjAddr: 0x25EEC, symBinAddr: 0x100027328, symSize: 0x24 }
  - { offsetInCU: 0x397CB, offset: 0x397CB, size: 0x8, addend: 0x0, symName: __ZNSt3__19__launderB8ne180100IKNS_4pairIKNS_12basic_stringIcNS_11char_traitsIcEENS_9allocatorIcEEEES7_EEEEPT_SC_, symObjAddr: 0x25F10, symBinAddr: 0x10002734C, symSize: 0x14 }
  - { offsetInCU: 0x39802, offset: 0x39802, size: 0x8, addend: 0x0, symName: __ZNSt3__116__tree_prev_iterB8ne180100IPNS_16__tree_node_baseIPvEEPNS_15__tree_end_nodeIS4_EEEET_T0_, symObjAddr: 0x25F24, symBinAddr: 0x100027360, symSize: 0x88 }
  - { offsetInCU: 0x3984E, offset: 0x3984E, size: 0x8, addend: 0x0, symName: __ZNSt3__110__tree_maxB8ne180100IPNS_16__tree_node_baseIPvEEEET_S5_, symObjAddr: 0x25FAC, symBinAddr: 0x1000273E8, symSize: 0x40 }
  - { offsetInCU: 0x39883, offset: 0x39883, size: 0x8, addend: 0x0, symName: __ZNSt3__19__advanceB8ne180100INS_21__tree_const_iteratorINS_12__value_typeINS_12basic_stringIcNS_11char_traitsIcEENS_9allocatorIcEEEES8_EEPNS_11__tree_nodeIS9_PvEElEEEEvRT_NS_15iterator_traitsISF_E15difference_typeENS_26bidirectional_iterator_tagE, symObjAddr: 0x26048, symBinAddr: 0x100027484, symSize: 0xA4 }
  - { offsetInCU: 0x398CD, offset: 0x398CD, size: 0x8, addend: 0x0, symName: __ZNSt3__116__tree_next_iterB8ne180100IPNS_15__tree_end_nodeIPNS_16__tree_node_baseIPvEEEES5_EET_T0_, symObjAddr: 0x26124, symBinAddr: 0x100027560, symSize: 0x80 }
  - { offsetInCU: 0x3990B, offset: 0x3990B, size: 0x8, addend: 0x0, symName: __ZNSt3__110__tree_minB8ne180100IPNS_16__tree_node_baseIPvEEEET_S5_, symObjAddr: 0x261A4, symBinAddr: 0x1000275E0, symSize: 0x40 }
  - { offsetInCU: 0x39991, offset: 0x39991, size: 0x8, addend: 0x0, symName: __ZNSt3__119__allocate_at_leastB8ne180100INS_9allocatorIN7tinyobj10material_tEEEEENS_19__allocation_resultINS_16allocator_traitsIT_E7pointerEEERS7_m, symObjAddr: 0x26DF0, symBinAddr: 0x10002822C, symSize: 0x40 }
  - { offsetInCU: 0x399D4, offset: 0x399D4, size: 0x8, addend: 0x0, symName: __ZNSt3__142__uninitialized_allocator_move_if_noexceptB8ne180100INS_9allocatorIN7tinyobj10material_tEEENS_16reverse_iteratorIPS3_EES7_S7_EET2_RT_T0_T1_S8_, symObjAddr: 0x26FA8, symBinAddr: 0x1000283E4, symSize: 0x12C }
  - { offsetInCU: 0x39A74, offset: 0x39A74, size: 0x8, addend: 0x0, symName: __ZNSt3__14swapB8ne180100IPN7tinyobj10material_tEEENS_9enable_ifIXaasr21is_move_constructibleIT_EE5valuesr18is_move_assignableIS5_EE5valueEvE4typeERS5_S8_, symObjAddr: 0x27120, symBinAddr: 0x10002855C, symSize: 0x3C }
  - { offsetInCU: 0x39AC5, offset: 0x39AC5, size: 0x8, addend: 0x0, symName: __ZNSt3__122__make_exception_guardB8ne180100INS_29_AllocatorDestroyRangeReverseINS_9allocatorIN7tinyobj10material_tEEENS_16reverse_iteratorIPS4_EEEEEENS_28__exception_guard_exceptionsIT_EESB_, symObjAddr: 0x27170, symBinAddr: 0x1000285AC, symSize: 0x4C }
  - { offsetInCU: 0x39AFB, offset: 0x39AFB, size: 0x8, addend: 0x0, symName: __ZNSt3__1neB8ne180100IPN7tinyobj10material_tES3_EEbRKNS_16reverse_iteratorIT_EERKNS4_IT0_EE, symObjAddr: 0x27200, symBinAddr: 0x10002863C, symSize: 0x48 }
  - { offsetInCU: 0x39B47, offset: 0x39B47, size: 0x8, addend: 0x0, symName: __ZNSt3__112__to_addressB8ne180100INS_16reverse_iteratorIPN7tinyobj10material_tEEEvEEu7__decayIDTclsr19__to_address_helperIT_EE6__callclsr3stdE7declvalIRKS6_EEEEES8_, symObjAddr: 0x2727C, symBinAddr: 0x1000286B8, symSize: 0x24 }
  - { offsetInCU: 0x39BA7, offset: 0x39BA7, size: 0x8, addend: 0x0, symName: __ZNSt3__119__allocator_destroyB8ne180100INS_9allocatorIN7tinyobj10material_tEEENS_16reverse_iteratorINS5_IPS3_EEEES8_EEvRT_T0_T1_, symObjAddr: 0x27A44, symBinAddr: 0x100028E80, symSize: 0x70 }
  - { offsetInCU: 0x39C0C, offset: 0x39C0C, size: 0x8, addend: 0x0, symName: __ZNSt3__1neB8ne180100INS_16reverse_iteratorIPN7tinyobj10material_tEEES5_EEbRKNS1_IT_EERKNS1_IT0_EE, symObjAddr: 0x27AF0, symBinAddr: 0x100028F2C, symSize: 0x60 }
  - { offsetInCU: 0x39C58, offset: 0x39C58, size: 0x8, addend: 0x0, symName: __ZNSt3__112__to_addressB8ne180100INS_16reverse_iteratorINS1_IPN7tinyobj10material_tEEEEEvEEu7__decayIDTclsr19__to_address_helperIT_EE6__callclsr3stdE7declvalIRKS7_EEEEES9_, symObjAddr: 0x27B50, symBinAddr: 0x100028F8C, symSize: 0x24 }
  - { offsetInCU: 0x39CB8, offset: 0x39CB8, size: 0x8, addend: 0x0, symName: __ZNSt3__116__pad_and_outputB8ne180100IcNS_11char_traitsIcEEEENS_19ostreambuf_iteratorIT_T0_EES6_PKS4_S8_S8_RNS_8ios_baseES4_, symObjAddr: 0x280C0, symBinAddr: 0x1000294FC, symSize: 0x240 }
  - { offsetInCU: 0x39D87, offset: 0x39D87, size: 0x8, addend: 0x0, symName: __ZNSt3__19use_facetB8ne180100INS_5ctypeIcEEEERKT_RKNS_6localeE, symObjAddr: 0x28604, symBinAddr: 0x100029A40, symSize: 0x2C }
  - { offsetInCU: 0x3A254, offset: 0x3A254, size: 0x8, addend: 0x0, symName: __ZNSt3__112__destroy_atB8ne180100INS_12basic_stringIcNS_11char_traitsIcEENS_9allocatorIcEEEELi0EEEvPT_, symObjAddr: 0x29490, symBinAddr: 0x10002A8CC, symSize: 0x24 }
  - { offsetInCU: 0x3A28B, offset: 0x3A28B, size: 0x8, addend: 0x0, symName: __ZNSt3__142__uninitialized_allocator_move_if_noexceptB8ne180100INS_9allocatorIfEENS_16reverse_iteratorIPfEES5_fvEET1_RT_T0_S9_S6_, symObjAddr: 0x2A404, symBinAddr: 0x10002B840, symSize: 0x78 }
  - { offsetInCU: 0x3A309, offset: 0x3A309, size: 0x8, addend: 0x0, symName: __ZNSt3__14swapB8ne180100IPfEENS_9enable_ifIXaasr21is_move_constructibleIT_EE5valuesr18is_move_assignableIS3_EE5valueEvE4typeERS3_S6_, symObjAddr: 0x2A4C8, symBinAddr: 0x10002B904, symSize: 0x3C }
  - { offsetInCU: 0x3A35A, offset: 0x3A35A, size: 0x8, addend: 0x0, symName: __ZNSt3__14moveB8ne180100INS_16reverse_iteratorIPfEES3_EET0_T_S5_S4_, symObjAddr: 0x2A504, symBinAddr: 0x10002B940, symSize: 0x78 }
  - { offsetInCU: 0x3A3B4, offset: 0x3A3B4, size: 0x8, addend: 0x0, symName: __ZNSt3__16__moveB8ne180100INS_17_ClassicAlgPolicyENS_16reverse_iteratorIPfEES4_S4_EENS_4pairIT0_T2_EES6_T1_S7_, symObjAddr: 0x2A57C, symBinAddr: 0x10002B9B8, symSize: 0x64 }
  - { offsetInCU: 0x3A420, offset: 0x3A420, size: 0x8, addend: 0x0, symName: __ZNSt3__123__dispatch_copy_or_moveB8ne180100INS_17_ClassicAlgPolicyENS_11__move_loopIS1_EENS_14__move_trivialENS_16reverse_iteratorIPfEES7_S7_EENS_4pairIT2_T4_EES9_T3_SA_, symObjAddr: 0x2A5E0, symBinAddr: 0x10002BA1C, symSize: 0x64 }
  - { offsetInCU: 0x3A49E, offset: 0x3A49E, size: 0x8, addend: 0x0, symName: __ZNSt3__121__unwrap_and_dispatchB8ne180100INS_10__overloadINS_11__move_loopINS_17_ClassicAlgPolicyEEENS_14__move_trivialEEENS_16reverse_iteratorIPfEES9_S9_Li0EEENS_4pairIT0_T2_EESB_T1_SC_, symObjAddr: 0x2A644, symBinAddr: 0x10002BA80, symSize: 0x12C }
  - { offsetInCU: 0x3A52E, offset: 0x3A52E, size: 0x8, addend: 0x0, symName: __ZNSt3__114__unwrap_rangeB8ne180100INS_16reverse_iteratorIPfEES3_EENS_4pairIT0_S5_EET_S7_, symObjAddr: 0x2A770, symBinAddr: 0x10002BBAC, symSize: 0x84 }
  - { offsetInCU: 0x3A64E, offset: 0x3A64E, size: 0x8, addend: 0x0, symName: __ZNSt3__113__unwrap_iterB8ne180100INS_16reverse_iteratorIPfEENS_18__unwrap_iter_implIS3_Lb0EEELi0EEEDTclsrT0_8__unwrapclsr3stdE7declvalIT_EEEES7_, symObjAddr: 0x2A894, symBinAddr: 0x10002BCD0, symSize: 0x44 }
  - { offsetInCU: 0x3A692, offset: 0x3A692, size: 0x8, addend: 0x0, symName: __ZNSt3__19make_pairB8ne180100INS_16reverse_iteratorIPfEES3_EENS_4pairINS_18__unwrap_ref_decayIT_E4typeENS5_IT0_E4typeEEEOS6_OS9_, symObjAddr: 0x2A8D8, symBinAddr: 0x10002BD14, symSize: 0x38 }
  - { offsetInCU: 0x3A6E1, offset: 0x3A6E1, size: 0x8, addend: 0x0, symName: __ZNSt3__114__rewrap_rangeB8ne180100INS_16reverse_iteratorIPfEES3_EET_S4_T0_, symObjAddr: 0x2A910, symBinAddr: 0x10002BD4C, symSize: 0x5C }
  - { offsetInCU: 0x3A72D, offset: 0x3A72D, size: 0x8, addend: 0x0, symName: __ZNSt3__113__rewrap_iterB8ne180100INS_16reverse_iteratorIPfEES3_NS_18__unwrap_iter_implIS3_Lb0EEEEET_S6_T0_, symObjAddr: 0x2A96C, symBinAddr: 0x10002BDA8, symSize: 0x74 }
  - { offsetInCU: 0x3A782, offset: 0x3A782, size: 0x8, addend: 0x0, symName: __ZNSt3__1neB8ne180100IPfS1_EEbRKNS_16reverse_iteratorIT_EERKNS2_IT0_EE, symObjAddr: 0x2A9E0, symBinAddr: 0x10002BE1C, symSize: 0x48 }
  - { offsetInCU: 0x3A821, offset: 0x3A821, size: 0x8, addend: 0x0, symName: __ZNSt3__119__allocate_at_leastB8ne180100INS_9allocatorIN7tinyobj18joint_and_weight_tEEEEENS_19__allocation_resultINS_16allocator_traitsIT_E7pointerEEERS7_m, symObjAddr: 0x2B4F0, symBinAddr: 0x10002C92C, symSize: 0x40 }
  - { offsetInCU: 0x3A864, offset: 0x3A864, size: 0x8, addend: 0x0, symName: __ZNSt3__142__uninitialized_allocator_move_if_noexceptB8ne180100INS_9allocatorIN7tinyobj18joint_and_weight_tEEENS_16reverse_iteratorIPS3_EES7_S3_vEET1_RT_T0_SB_S8_, symObjAddr: 0x2B6A4, symBinAddr: 0x10002CAE0, symSize: 0x78 }
  - { offsetInCU: 0x3A8E2, offset: 0x3A8E2, size: 0x8, addend: 0x0, symName: __ZNSt3__14swapB8ne180100IPN7tinyobj18joint_and_weight_tEEENS_9enable_ifIXaasr21is_move_constructibleIT_EE5valuesr18is_move_assignableIS5_EE5valueEvE4typeERS5_S8_, symObjAddr: 0x2B768, symBinAddr: 0x10002CBA4, symSize: 0x3C }
  - { offsetInCU: 0x3A933, offset: 0x3A933, size: 0x8, addend: 0x0, symName: __ZNSt3__14moveB8ne180100INS_16reverse_iteratorIPN7tinyobj18joint_and_weight_tEEES5_EET0_T_S7_S6_, symObjAddr: 0x2B7B8, symBinAddr: 0x10002CBF4, symSize: 0x78 }
  - { offsetInCU: 0x3A98D, offset: 0x3A98D, size: 0x8, addend: 0x0, symName: __ZNSt3__16__moveB8ne180100INS_17_ClassicAlgPolicyENS_16reverse_iteratorIPN7tinyobj18joint_and_weight_tEEES6_S6_EENS_4pairIT0_T2_EES8_T1_S9_, symObjAddr: 0x2B830, symBinAddr: 0x10002CC6C, symSize: 0x64 }
  - { offsetInCU: 0x3A9F9, offset: 0x3A9F9, size: 0x8, addend: 0x0, symName: __ZNSt3__123__dispatch_copy_or_moveB8ne180100INS_17_ClassicAlgPolicyENS_11__move_loopIS1_EENS_14__move_trivialENS_16reverse_iteratorIPN7tinyobj18joint_and_weight_tEEES9_S9_EENS_4pairIT2_T4_EESB_T3_SC_, symObjAddr: 0x2B894, symBinAddr: 0x10002CCD0, symSize: 0x64 }
  - { offsetInCU: 0x3AA77, offset: 0x3AA77, size: 0x8, addend: 0x0, symName: __ZNSt3__121__unwrap_and_dispatchB8ne180100INS_10__overloadINS_11__move_loopINS_17_ClassicAlgPolicyEEENS_14__move_trivialEEENS_16reverse_iteratorIPN7tinyobj18joint_and_weight_tEEESB_SB_Li0EEENS_4pairIT0_T2_EESD_T1_SE_, symObjAddr: 0x2B8F8, symBinAddr: 0x10002CD34, symSize: 0x12C }
  - { offsetInCU: 0x3AB07, offset: 0x3AB07, size: 0x8, addend: 0x0, symName: __ZNSt3__114__unwrap_rangeB8ne180100INS_16reverse_iteratorIPN7tinyobj18joint_and_weight_tEEES5_EENS_4pairIT0_S7_EET_S9_, symObjAddr: 0x2BA24, symBinAddr: 0x10002CE60, symSize: 0x84 }
  - { offsetInCU: 0x3AC27, offset: 0x3AC27, size: 0x8, addend: 0x0, symName: __ZNSt3__113__unwrap_iterB8ne180100INS_16reverse_iteratorIPN7tinyobj18joint_and_weight_tEEENS_18__unwrap_iter_implIS5_Lb0EEELi0EEEDTclsrT0_8__unwrapclsr3stdE7declvalIT_EEEES9_, symObjAddr: 0x2BB48, symBinAddr: 0x10002CF84, symSize: 0x44 }
  - { offsetInCU: 0x3AC6B, offset: 0x3AC6B, size: 0x8, addend: 0x0, symName: __ZNSt3__19make_pairB8ne180100INS_16reverse_iteratorIPN7tinyobj18joint_and_weight_tEEES5_EENS_4pairINS_18__unwrap_ref_decayIT_E4typeENS7_IT0_E4typeEEEOS8_OSB_, symObjAddr: 0x2BB8C, symBinAddr: 0x10002CFC8, symSize: 0x38 }
  - { offsetInCU: 0x3ACBA, offset: 0x3ACBA, size: 0x8, addend: 0x0, symName: __ZNSt3__114__rewrap_rangeB8ne180100INS_16reverse_iteratorIPN7tinyobj18joint_and_weight_tEEES5_EET_S6_T0_, symObjAddr: 0x2BBC4, symBinAddr: 0x10002D000, symSize: 0x5C }
  - { offsetInCU: 0x3AD06, offset: 0x3AD06, size: 0x8, addend: 0x0, symName: __ZNSt3__113__rewrap_iterB8ne180100INS_16reverse_iteratorIPN7tinyobj18joint_and_weight_tEEES5_NS_18__unwrap_iter_implIS5_Lb0EEEEET_S8_T0_, symObjAddr: 0x2BC20, symBinAddr: 0x10002D05C, symSize: 0x74 }
  - { offsetInCU: 0x3AD5B, offset: 0x3AD5B, size: 0x8, addend: 0x0, symName: __ZNSt3__1neB8ne180100IPN7tinyobj18joint_and_weight_tES3_EEbRKNS_16reverse_iteratorIT_EERKNS4_IT0_EE, symObjAddr: 0x2BC94, symBinAddr: 0x10002D0D0, symSize: 0x48 }
  - { offsetInCU: 0x3ADFA, offset: 0x3ADFA, size: 0x8, addend: 0x0, symName: __ZNSt3__122__make_exception_guardB8ne180100INS_6vectorIN7tinyobj18joint_and_weight_tENS_9allocatorIS3_EEE16__destroy_vectorEEENS_28__exception_guard_exceptionsIT_EES9_, symObjAddr: 0x2C5B0, symBinAddr: 0x10002D9EC, symSize: 0x40 }
  - { offsetInCU: 0x3AE2F, offset: 0x3AE2F, size: 0x8, addend: 0x0, symName: __ZNSt3__130__uninitialized_allocator_copyB8ne180100INS_9allocatorIN7tinyobj18joint_and_weight_tEEEPS3_S5_S5_EET2_RT_T0_T1_S6_, symObjAddr: 0x2C7C8, symBinAddr: 0x10002DC04, symSize: 0x80 }
  - { offsetInCU: 0x3AECC, offset: 0x3AECC, size: 0x8, addend: 0x0, symName: __ZNSt3__114__unwrap_rangeB8ne180100IPN7tinyobj18joint_and_weight_tES3_EENS_4pairIT0_S5_EET_S7_, symObjAddr: 0x2C848, symBinAddr: 0x10002DC84, symSize: 0x60 }
  - { offsetInCU: 0x3AF18, offset: 0x3AF18, size: 0x8, addend: 0x0, symName: __ZNSt3__135__uninitialized_allocator_copy_implB8ne180100INS_9allocatorIN7tinyobj18joint_and_weight_tEEES3_S3_S3_LPv0EEEPT2_RT_PT0_SB_S7_, symObjAddr: 0x2C8A8, symBinAddr: 0x10002DCE4, symSize: 0x38 }
  - { offsetInCU: 0x3AF9A, offset: 0x3AF9A, size: 0x8, addend: 0x0, symName: __ZNSt3__113__unwrap_iterB8ne180100IPN7tinyobj18joint_and_weight_tENS_18__unwrap_iter_implIS3_Lb1EEELi0EEEDTclsrT0_8__unwrapclsr3stdE7declvalIT_EEEES7_, symObjAddr: 0x2C8E0, symBinAddr: 0x10002DD1C, symSize: 0x24 }
  - { offsetInCU: 0x3AFDE, offset: 0x3AFDE, size: 0x8, addend: 0x0, symName: __ZNSt3__113__rewrap_iterB8ne180100IPN7tinyobj18joint_and_weight_tES3_NS_18__unwrap_iter_implIS3_Lb1EEEEET_S6_T0_, symObjAddr: 0x2C904, symBinAddr: 0x10002DD40, symSize: 0x3C }
  - { offsetInCU: 0x3B033, offset: 0x3B033, size: 0x8, addend: 0x0, symName: __ZNSt3__19make_pairB8ne180100IPN7tinyobj18joint_and_weight_tES3_EENS_4pairINS_18__unwrap_ref_decayIT_E4typeENS5_IT0_E4typeEEEOS6_OS9_, symObjAddr: 0x2C940, symBinAddr: 0x10002DD7C, symSize: 0x38 }
  - { offsetInCU: 0x3B185, offset: 0x3B185, size: 0x8, addend: 0x0, symName: __ZNSt3__14copyB8ne180100IPN7tinyobj18joint_and_weight_tES3_EET0_T_S5_S4_, symObjAddr: 0x2C9E8, symBinAddr: 0x10002DE24, symSize: 0x40 }
  - { offsetInCU: 0x3B1DF, offset: 0x3B1DF, size: 0x8, addend: 0x0, symName: __ZNSt3__16__copyB8ne180100INS_17_ClassicAlgPolicyEPN7tinyobj18joint_and_weight_tES4_S4_EENS_4pairIT0_T2_EES6_T1_S7_, symObjAddr: 0x2CA28, symBinAddr: 0x10002DE64, symSize: 0x44 }
  - { offsetInCU: 0x3B24B, offset: 0x3B24B, size: 0x8, addend: 0x0, symName: __ZNSt3__123__dispatch_copy_or_moveB8ne180100INS_17_ClassicAlgPolicyENS_11__copy_loopIS1_EENS_14__copy_trivialEPN7tinyobj18joint_and_weight_tES7_S7_EENS_4pairIT2_T4_EES9_T3_SA_, symObjAddr: 0x2CA6C, symBinAddr: 0x10002DEA8, symSize: 0x44 }
  - { offsetInCU: 0x3B2C9, offset: 0x3B2C9, size: 0x8, addend: 0x0, symName: __ZNSt3__121__unwrap_and_dispatchB8ne180100INS_10__overloadINS_11__copy_loopINS_17_ClassicAlgPolicyEEENS_14__copy_trivialEEEPN7tinyobj18joint_and_weight_tES9_S9_Li0EEENS_4pairIT0_T2_EESB_T1_SC_, symObjAddr: 0x2CAB0, symBinAddr: 0x10002DEEC, symSize: 0xB4 }
  - { offsetInCU: 0x3B357, offset: 0x3B357, size: 0x8, addend: 0x0, symName: __ZNSt3__114__rewrap_rangeB8ne180100IPN7tinyobj18joint_and_weight_tES3_EET_S4_T0_, symObjAddr: 0x2CBAC, symBinAddr: 0x10002DFE8, symSize: 0x2C }
  - { offsetInCU: 0x3B3A3, offset: 0x3B3A3, size: 0x8, addend: 0x0, symName: __ZNSt3__119__copy_trivial_implB8ne180100IN7tinyobj18joint_and_weight_tES2_EENS_4pairIPT_PT0_EES5_S5_S7_, symObjAddr: 0x2CBD8, symBinAddr: 0x10002E014, symSize: 0x80 }
  - { offsetInCU: 0x3B40B, offset: 0x3B40B, size: 0x8, addend: 0x0, symName: __ZNSt3__119__constexpr_memmoveB8ne180100IN7tinyobj18joint_and_weight_tES2_Li0EEEPT_S4_PT0_NS_15__element_countE, symObjAddr: 0x2CC58, symBinAddr: 0x10002E094, symSize: 0x64 }
  - { offsetInCU: 0x3B479, offset: 0x3B479, size: 0x8, addend: 0x0, symName: __ZNSt3__19make_pairB8ne180100IRPN7tinyobj18joint_and_weight_tES3_EENS_4pairINS_18__unwrap_ref_decayIT_E4typeENS6_IT0_E4typeEEEOS7_OSA_, symObjAddr: 0x2CCBC, symBinAddr: 0x10002E0F8, symSize: 0x38 }
  - { offsetInCU: 0x3B51B, offset: 0x3B51B, size: 0x8, addend: 0x0, symName: __ZNSt3__119__allocate_at_leastB8ne180100INS_9allocatorIN7tinyobj13skin_weight_tEEEEENS_19__allocation_resultINS_16allocator_traitsIT_E7pointerEEERS7_m, symObjAddr: 0x2D2C0, symBinAddr: 0x10002E6FC, symSize: 0x40 }
  - { offsetInCU: 0x3B55E, offset: 0x3B55E, size: 0x8, addend: 0x0, symName: __ZNSt3__142__uninitialized_allocator_move_if_noexceptB8ne180100INS_9allocatorIN7tinyobj13skin_weight_tEEENS_16reverse_iteratorIPS3_EES7_S7_EET2_RT_T0_T1_S8_, symObjAddr: 0x2D474, symBinAddr: 0x10002E8B0, symSize: 0x12C }
  - { offsetInCU: 0x3B5FE, offset: 0x3B5FE, size: 0x8, addend: 0x0, symName: __ZNSt3__14swapB8ne180100IPN7tinyobj13skin_weight_tEEENS_9enable_ifIXaasr21is_move_constructibleIT_EE5valuesr18is_move_assignableIS5_EE5valueEvE4typeERS5_S8_, symObjAddr: 0x2D5EC, symBinAddr: 0x10002EA28, symSize: 0x3C }
  - { offsetInCU: 0x3B64F, offset: 0x3B64F, size: 0x8, addend: 0x0, symName: __ZNSt3__122__make_exception_guardB8ne180100INS_29_AllocatorDestroyRangeReverseINS_9allocatorIN7tinyobj13skin_weight_tEEENS_16reverse_iteratorIPS4_EEEEEENS_28__exception_guard_exceptionsIT_EESB_, symObjAddr: 0x2D63C, symBinAddr: 0x10002EA78, symSize: 0x4C }
  - { offsetInCU: 0x3B685, offset: 0x3B685, size: 0x8, addend: 0x0, symName: __ZNSt3__1neB8ne180100IPN7tinyobj13skin_weight_tES3_EEbRKNS_16reverse_iteratorIT_EERKNS4_IT0_EE, symObjAddr: 0x2D6CC, symBinAddr: 0x10002EB08, symSize: 0x48 }
  - { offsetInCU: 0x3B6D1, offset: 0x3B6D1, size: 0x8, addend: 0x0, symName: __ZNSt3__112__to_addressB8ne180100INS_16reverse_iteratorIPN7tinyobj13skin_weight_tEEEvEEu7__decayIDTclsr19__to_address_helperIT_EE6__callclsr3stdE7declvalIRKS6_EEEEES8_, symObjAddr: 0x2D748, symBinAddr: 0x10002EB84, symSize: 0x24 }
  - { offsetInCU: 0x3B731, offset: 0x3B731, size: 0x8, addend: 0x0, symName: __ZNSt3__119__allocator_destroyB8ne180100INS_9allocatorIN7tinyobj13skin_weight_tEEENS_16reverse_iteratorINS5_IPS3_EEEES8_EEvRT_T0_T1_, symObjAddr: 0x2DB9C, symBinAddr: 0x10002EFD8, symSize: 0x70 }
  - { offsetInCU: 0x3B796, offset: 0x3B796, size: 0x8, addend: 0x0, symName: __ZNSt3__1neB8ne180100INS_16reverse_iteratorIPN7tinyobj13skin_weight_tEEES5_EEbRKNS1_IT_EERKNS1_IT0_EE, symObjAddr: 0x2DC48, symBinAddr: 0x10002F084, symSize: 0x60 }
  - { offsetInCU: 0x3B7E2, offset: 0x3B7E2, size: 0x8, addend: 0x0, symName: __ZNSt3__112__to_addressB8ne180100INS_16reverse_iteratorINS1_IPN7tinyobj13skin_weight_tEEEEEvEEu7__decayIDTclsr19__to_address_helperIT_EE6__callclsr3stdE7declvalIRKS7_EEEEES9_, symObjAddr: 0x2DCA8, symBinAddr: 0x10002F0E4, symSize: 0x24 }
  - { offsetInCU: 0x3B842, offset: 0x3B842, size: 0x8, addend: 0x0, symName: __ZNSt3__142__uninitialized_allocator_move_if_noexceptB8ne180100INS_9allocatorIN7tinyobj14vertex_index_tEEENS_16reverse_iteratorIPS3_EES7_S3_vEET1_RT_T0_SB_S8_, symObjAddr: 0x2E658, symBinAddr: 0x10002FA94, symSize: 0x78 }
  - { offsetInCU: 0x3B8C0, offset: 0x3B8C0, size: 0x8, addend: 0x0, symName: __ZNSt3__14swapB8ne180100IPN7tinyobj14vertex_index_tEEENS_9enable_ifIXaasr21is_move_constructibleIT_EE5valuesr18is_move_assignableIS5_EE5valueEvE4typeERS5_S8_, symObjAddr: 0x2E71C, symBinAddr: 0x10002FB58, symSize: 0x3C }
  - { offsetInCU: 0x3B911, offset: 0x3B911, size: 0x8, addend: 0x0, symName: __ZNSt3__14moveB8ne180100INS_16reverse_iteratorIPN7tinyobj14vertex_index_tEEES5_EET0_T_S7_S6_, symObjAddr: 0x2E758, symBinAddr: 0x10002FB94, symSize: 0x78 }
  - { offsetInCU: 0x3B96B, offset: 0x3B96B, size: 0x8, addend: 0x0, symName: __ZNSt3__16__moveB8ne180100INS_17_ClassicAlgPolicyENS_16reverse_iteratorIPN7tinyobj14vertex_index_tEEES6_S6_EENS_4pairIT0_T2_EES8_T1_S9_, symObjAddr: 0x2E7D0, symBinAddr: 0x10002FC0C, symSize: 0x64 }
  - { offsetInCU: 0x3B9D7, offset: 0x3B9D7, size: 0x8, addend: 0x0, symName: __ZNSt3__123__dispatch_copy_or_moveB8ne180100INS_17_ClassicAlgPolicyENS_11__move_loopIS1_EENS_14__move_trivialENS_16reverse_iteratorIPN7tinyobj14vertex_index_tEEES9_S9_EENS_4pairIT2_T4_EESB_T3_SC_, symObjAddr: 0x2E834, symBinAddr: 0x10002FC70, symSize: 0x64 }
  - { offsetInCU: 0x3BA55, offset: 0x3BA55, size: 0x8, addend: 0x0, symName: __ZNSt3__121__unwrap_and_dispatchB8ne180100INS_10__overloadINS_11__move_loopINS_17_ClassicAlgPolicyEEENS_14__move_trivialEEENS_16reverse_iteratorIPN7tinyobj14vertex_index_tEEESB_SB_Li0EEENS_4pairIT0_T2_EESD_T1_SE_, symObjAddr: 0x2E898, symBinAddr: 0x10002FCD4, symSize: 0x12C }
  - { offsetInCU: 0x3BAE5, offset: 0x3BAE5, size: 0x8, addend: 0x0, symName: __ZNSt3__114__unwrap_rangeB8ne180100INS_16reverse_iteratorIPN7tinyobj14vertex_index_tEEES5_EENS_4pairIT0_S7_EET_S9_, symObjAddr: 0x2E9C4, symBinAddr: 0x10002FE00, symSize: 0x84 }
  - { offsetInCU: 0x3BC05, offset: 0x3BC05, size: 0x8, addend: 0x0, symName: __ZNSt3__113__unwrap_iterB8ne180100INS_16reverse_iteratorIPN7tinyobj14vertex_index_tEEENS_18__unwrap_iter_implIS5_Lb0EEELi0EEEDTclsrT0_8__unwrapclsr3stdE7declvalIT_EEEES9_, symObjAddr: 0x2EAF0, symBinAddr: 0x10002FF2C, symSize: 0x44 }
  - { offsetInCU: 0x3BC49, offset: 0x3BC49, size: 0x8, addend: 0x0, symName: __ZNSt3__19make_pairB8ne180100INS_16reverse_iteratorIPN7tinyobj14vertex_index_tEEES5_EENS_4pairINS_18__unwrap_ref_decayIT_E4typeENS7_IT0_E4typeEEEOS8_OSB_, symObjAddr: 0x2EB34, symBinAddr: 0x10002FF70, symSize: 0x38 }
  - { offsetInCU: 0x3BC98, offset: 0x3BC98, size: 0x8, addend: 0x0, symName: __ZNSt3__114__rewrap_rangeB8ne180100INS_16reverse_iteratorIPN7tinyobj14vertex_index_tEEES5_EET_S6_T0_, symObjAddr: 0x2EB6C, symBinAddr: 0x10002FFA8, symSize: 0x5C }
  - { offsetInCU: 0x3BCE4, offset: 0x3BCE4, size: 0x8, addend: 0x0, symName: __ZNSt3__113__rewrap_iterB8ne180100INS_16reverse_iteratorIPN7tinyobj14vertex_index_tEEES5_NS_18__unwrap_iter_implIS5_Lb0EEEEET_S8_T0_, symObjAddr: 0x2EBC8, symBinAddr: 0x100030004, symSize: 0x74 }
  - { offsetInCU: 0x3BD39, offset: 0x3BD39, size: 0x8, addend: 0x0, symName: __ZNSt3__1neB8ne180100IPN7tinyobj14vertex_index_tES3_EEbRKNS_16reverse_iteratorIT_EERKNS4_IT0_EE, symObjAddr: 0x2EC3C, symBinAddr: 0x100030078, symSize: 0x48 }
  - { offsetInCU: 0x3BDD8, offset: 0x3BDD8, size: 0x8, addend: 0x0, symName: __ZNSt3__119__allocate_at_leastB8ne180100INS_9allocatorIN7tinyobj8__line_tEEEEENS_19__allocation_resultINS_16allocator_traitsIT_E7pointerEEERS7_m, symObjAddr: 0x2F7AC, symBinAddr: 0x100030BE8, symSize: 0x40 }
  - { offsetInCU: 0x3BE1B, offset: 0x3BE1B, size: 0x8, addend: 0x0, symName: __ZNSt3__142__uninitialized_allocator_move_if_noexceptB8ne180100INS_9allocatorIN7tinyobj8__line_tEEENS_16reverse_iteratorIPS3_EES7_S7_EET2_RT_T0_T1_S8_, symObjAddr: 0x2F964, symBinAddr: 0x100030DA0, symSize: 0x12C }
  - { offsetInCU: 0x3BEBB, offset: 0x3BEBB, size: 0x8, addend: 0x0, symName: __ZNSt3__14swapB8ne180100IPN7tinyobj8__line_tEEENS_9enable_ifIXaasr21is_move_constructibleIT_EE5valuesr18is_move_assignableIS5_EE5valueEvE4typeERS5_S8_, symObjAddr: 0x2FADC, symBinAddr: 0x100030F18, symSize: 0x3C }
  - { offsetInCU: 0x3BF0C, offset: 0x3BF0C, size: 0x8, addend: 0x0, symName: __ZNSt3__122__make_exception_guardB8ne180100INS_29_AllocatorDestroyRangeReverseINS_9allocatorIN7tinyobj8__line_tEEENS_16reverse_iteratorIPS4_EEEEEENS_28__exception_guard_exceptionsIT_EESB_, symObjAddr: 0x2FB2C, symBinAddr: 0x100030F68, symSize: 0x4C }
  - { offsetInCU: 0x3BF42, offset: 0x3BF42, size: 0x8, addend: 0x0, symName: __ZNSt3__1neB8ne180100IPN7tinyobj8__line_tES3_EEbRKNS_16reverse_iteratorIT_EERKNS4_IT0_EE, symObjAddr: 0x2FBBC, symBinAddr: 0x100030FF8, symSize: 0x48 }
  - { offsetInCU: 0x3BF8E, offset: 0x3BF8E, size: 0x8, addend: 0x0, symName: __ZNSt3__112__to_addressB8ne180100INS_16reverse_iteratorIPN7tinyobj8__line_tEEEvEEu7__decayIDTclsr19__to_address_helperIT_EE6__callclsr3stdE7declvalIRKS6_EEEEES8_, symObjAddr: 0x2FC38, symBinAddr: 0x100031074, symSize: 0x24 }
  - { offsetInCU: 0x3BFEE, offset: 0x3BFEE, size: 0x8, addend: 0x0, symName: __ZNSt3__119__allocator_destroyB8ne180100INS_9allocatorIN7tinyobj8__line_tEEENS_16reverse_iteratorINS5_IPS3_EEEES8_EEvRT_T0_T1_, symObjAddr: 0x30078, symBinAddr: 0x1000314B4, symSize: 0x70 }
  - { offsetInCU: 0x3C053, offset: 0x3C053, size: 0x8, addend: 0x0, symName: __ZNSt3__1neB8ne180100INS_16reverse_iteratorIPN7tinyobj8__line_tEEES5_EEbRKNS1_IT_EERKNS1_IT0_EE, symObjAddr: 0x30124, symBinAddr: 0x100031560, symSize: 0x60 }
  - { offsetInCU: 0x3C09F, offset: 0x3C09F, size: 0x8, addend: 0x0, symName: __ZNSt3__112__to_addressB8ne180100INS_16reverse_iteratorINS1_IPN7tinyobj8__line_tEEEEEvEEu7__decayIDTclsr19__to_address_helperIT_EE6__callclsr3stdE7declvalIRKS7_EEEEES9_, symObjAddr: 0x30184, symBinAddr: 0x1000315C0, symSize: 0x24 }
  - { offsetInCU: 0x3C0FF, offset: 0x3C0FF, size: 0x8, addend: 0x0, symName: __ZNSt3__119__allocate_at_leastB8ne180100INS_9allocatorIN7tinyobj10__points_tEEEEENS_19__allocation_resultINS_16allocator_traitsIT_E7pointerEEERS7_m, symObjAddr: 0x30CCC, symBinAddr: 0x100032108, symSize: 0x40 }
  - { offsetInCU: 0x3C142, offset: 0x3C142, size: 0x8, addend: 0x0, symName: __ZNSt3__142__uninitialized_allocator_move_if_noexceptB8ne180100INS_9allocatorIN7tinyobj10__points_tEEENS_16reverse_iteratorIPS3_EES7_S7_EET2_RT_T0_T1_S8_, symObjAddr: 0x30E84, symBinAddr: 0x1000322C0, symSize: 0x12C }
  - { offsetInCU: 0x3C1E2, offset: 0x3C1E2, size: 0x8, addend: 0x0, symName: __ZNSt3__14swapB8ne180100IPN7tinyobj10__points_tEEENS_9enable_ifIXaasr21is_move_constructibleIT_EE5valuesr18is_move_assignableIS5_EE5valueEvE4typeERS5_S8_, symObjAddr: 0x30FFC, symBinAddr: 0x100032438, symSize: 0x3C }
  - { offsetInCU: 0x3C233, offset: 0x3C233, size: 0x8, addend: 0x0, symName: __ZNSt3__122__make_exception_guardB8ne180100INS_29_AllocatorDestroyRangeReverseINS_9allocatorIN7tinyobj10__points_tEEENS_16reverse_iteratorIPS4_EEEEEENS_28__exception_guard_exceptionsIT_EESB_, symObjAddr: 0x3104C, symBinAddr: 0x100032488, symSize: 0x4C }
  - { offsetInCU: 0x3C269, offset: 0x3C269, size: 0x8, addend: 0x0, symName: __ZNSt3__1neB8ne180100IPN7tinyobj10__points_tES3_EEbRKNS_16reverse_iteratorIT_EERKNS4_IT0_EE, symObjAddr: 0x310DC, symBinAddr: 0x100032518, symSize: 0x48 }
  - { offsetInCU: 0x3C2B5, offset: 0x3C2B5, size: 0x8, addend: 0x0, symName: __ZNSt3__112__to_addressB8ne180100INS_16reverse_iteratorIPN7tinyobj10__points_tEEEvEEu7__decayIDTclsr19__to_address_helperIT_EE6__callclsr3stdE7declvalIRKS6_EEEEES8_, symObjAddr: 0x31158, symBinAddr: 0x100032594, symSize: 0x24 }
  - { offsetInCU: 0x3C315, offset: 0x3C315, size: 0x8, addend: 0x0, symName: __ZNSt3__119__allocator_destroyB8ne180100INS_9allocatorIN7tinyobj10__points_tEEENS_16reverse_iteratorINS5_IPS3_EEEES8_EEvRT_T0_T1_, symObjAddr: 0x314A0, symBinAddr: 0x1000328DC, symSize: 0x70 }
  - { offsetInCU: 0x3C37A, offset: 0x3C37A, size: 0x8, addend: 0x0, symName: __ZNSt3__1neB8ne180100INS_16reverse_iteratorIPN7tinyobj10__points_tEEES5_EEbRKNS1_IT_EERKNS1_IT0_EE, symObjAddr: 0x3154C, symBinAddr: 0x100032988, symSize: 0x60 }
  - { offsetInCU: 0x3C3C6, offset: 0x3C3C6, size: 0x8, addend: 0x0, symName: __ZNSt3__112__to_addressB8ne180100INS_16reverse_iteratorINS1_IPN7tinyobj10__points_tEEEEEvEEu7__decayIDTclsr19__to_address_helperIT_EE6__callclsr3stdE7declvalIRKS7_EEEEES9_, symObjAddr: 0x315AC, symBinAddr: 0x1000329E8, symSize: 0x24 }
  - { offsetInCU: 0x3C426, offset: 0x3C426, size: 0x8, addend: 0x0, symName: __ZNSt3__119__allocate_at_leastB8ne180100INS_9allocatorIN7tinyobj6face_tEEEEENS_19__allocation_resultINS_16allocator_traitsIT_E7pointerEEERS7_m, symObjAddr: 0x32074, symBinAddr: 0x1000334B0, symSize: 0x40 }
  - { offsetInCU: 0x3C469, offset: 0x3C469, size: 0x8, addend: 0x0, symName: __ZNSt3__142__uninitialized_allocator_move_if_noexceptB8ne180100INS_9allocatorIN7tinyobj6face_tEEENS_16reverse_iteratorIPS3_EES7_S7_EET2_RT_T0_T1_S8_, symObjAddr: 0x32228, symBinAddr: 0x100033664, symSize: 0x12C }
  - { offsetInCU: 0x3C509, offset: 0x3C509, size: 0x8, addend: 0x0, symName: __ZNSt3__14swapB8ne180100IPN7tinyobj6face_tEEENS_9enable_ifIXaasr21is_move_constructibleIT_EE5valuesr18is_move_assignableIS5_EE5valueEvE4typeERS5_S8_, symObjAddr: 0x323A0, symBinAddr: 0x1000337DC, symSize: 0x3C }
  - { offsetInCU: 0x3C55A, offset: 0x3C55A, size: 0x8, addend: 0x0, symName: __ZNSt3__122__make_exception_guardB8ne180100INS_29_AllocatorDestroyRangeReverseINS_9allocatorIN7tinyobj6face_tEEENS_16reverse_iteratorIPS4_EEEEEENS_28__exception_guard_exceptionsIT_EESB_, symObjAddr: 0x323F0, symBinAddr: 0x10003382C, symSize: 0x4C }
  - { offsetInCU: 0x3C590, offset: 0x3C590, size: 0x8, addend: 0x0, symName: __ZNSt3__1neB8ne180100IPN7tinyobj6face_tES3_EEbRKNS_16reverse_iteratorIT_EERKNS4_IT0_EE, symObjAddr: 0x32480, symBinAddr: 0x1000338BC, symSize: 0x48 }
  - { offsetInCU: 0x3C5DC, offset: 0x3C5DC, size: 0x8, addend: 0x0, symName: __ZNSt3__112__to_addressB8ne180100INS_16reverse_iteratorIPN7tinyobj6face_tEEEvEEu7__decayIDTclsr19__to_address_helperIT_EE6__callclsr3stdE7declvalIRKS6_EEEEES8_, symObjAddr: 0x324FC, symBinAddr: 0x100033938, symSize: 0x24 }
  - { offsetInCU: 0x3C63C, offset: 0x3C63C, size: 0x8, addend: 0x0, symName: __ZNSt3__119__allocator_destroyB8ne180100INS_9allocatorIN7tinyobj6face_tEEENS_16reverse_iteratorINS5_IPS3_EEEES8_EEvRT_T0_T1_, symObjAddr: 0x32858, symBinAddr: 0x100033C94, symSize: 0x70 }
  - { offsetInCU: 0x3C6A1, offset: 0x3C6A1, size: 0x8, addend: 0x0, symName: __ZNSt3__1neB8ne180100INS_16reverse_iteratorIPN7tinyobj6face_tEEES5_EEbRKNS1_IT_EERKNS1_IT0_EE, symObjAddr: 0x32904, symBinAddr: 0x100033D40, symSize: 0x60 }
  - { offsetInCU: 0x3C6ED, offset: 0x3C6ED, size: 0x8, addend: 0x0, symName: __ZNSt3__112__to_addressB8ne180100INS_16reverse_iteratorINS1_IPN7tinyobj6face_tEEEEEvEEu7__decayIDTclsr19__to_address_helperIT_EE6__callclsr3stdE7declvalIRKS7_EEEEES9_, symObjAddr: 0x32964, symBinAddr: 0x100033DA0, symSize: 0x24 }
  - { offsetInCU: 0x3C74D, offset: 0x3C74D, size: 0x8, addend: 0x0, symName: __ZNSt3__1neB8ne180100ERKNS_15__tree_iteratorINS_12__value_typeINS_12basic_stringIcNS_11char_traitsIcEENS_9allocatorIcEEEEiEEPNS_11__tree_nodeIS8_PvEElEESF_, symObjAddr: 0x32E68, symBinAddr: 0x1000342A4, symSize: 0x34 }
  - { offsetInCU: 0x3C78B, offset: 0x3C78B, size: 0x8, addend: 0x0, symName: __ZNSt3__1eqB8ne180100ERKNS_15__tree_iteratorINS_12__value_typeINS_12basic_stringIcNS_11char_traitsIcEENS_9allocatorIcEEEEiEEPNS_11__tree_nodeIS8_PvEElEESF_, symObjAddr: 0x32F4C, symBinAddr: 0x100034388, symSize: 0x30 }
  - { offsetInCU: 0x3C7C8, offset: 0x3C7C8, size: 0x8, addend: 0x0, symName: __ZNSt3__1neB8ne180100ERKNS_21__tree_const_iteratorINS_12__value_typeINS_12basic_stringIcNS_11char_traitsIcEENS_9allocatorIcEEEEiEEPNS_11__tree_nodeIS8_PvEElEESF_, symObjAddr: 0x33024, symBinAddr: 0x100034460, symSize: 0x34 }
  - { offsetInCU: 0x3C806, offset: 0x3C806, size: 0x8, addend: 0x0, symName: __ZNSt3__1eqB8ne180100ERKNS_21__tree_const_iteratorINS_12__value_typeINS_12basic_stringIcNS_11char_traitsIcEENS_9allocatorIcEEEEiEEPNS_11__tree_nodeIS8_PvEElEESF_, symObjAddr: 0x33058, symBinAddr: 0x100034494, symSize: 0x30 }
  - { offsetInCU: 0x3C8C7, offset: 0x3C8C7, size: 0x8, addend: 0x0, symName: __ZNSt3__122__make_exception_guardB8ne180100INS_6vectorIN7tinyobj7index_tENS_9allocatorIS3_EEE16__destroy_vectorEEENS_28__exception_guard_exceptionsIT_EES9_, symObjAddr: 0x34748, symBinAddr: 0x100035B84, symSize: 0x40 }
  - { offsetInCU: 0x3C8FC, offset: 0x3C8FC, size: 0x8, addend: 0x0, symName: __ZNSt3__130__uninitialized_allocator_copyB8ne180100INS_9allocatorIN7tinyobj7index_tEEEPS3_S5_S5_EET2_RT_T0_T1_S6_, symObjAddr: 0x34968, symBinAddr: 0x100035DA4, symSize: 0x80 }
  - { offsetInCU: 0x3C999, offset: 0x3C999, size: 0x8, addend: 0x0, symName: __ZNSt3__114__unwrap_rangeB8ne180100IPN7tinyobj7index_tES3_EENS_4pairIT0_S5_EET_S7_, symObjAddr: 0x349E8, symBinAddr: 0x100035E24, symSize: 0x60 }
  - { offsetInCU: 0x3C9E5, offset: 0x3C9E5, size: 0x8, addend: 0x0, symName: __ZNSt3__135__uninitialized_allocator_copy_implB8ne180100INS_9allocatorIN7tinyobj7index_tEEES3_S3_S3_LPv0EEEPT2_RT_PT0_SB_S7_, symObjAddr: 0x34A48, symBinAddr: 0x100035E84, symSize: 0x38 }
  - { offsetInCU: 0x3CA67, offset: 0x3CA67, size: 0x8, addend: 0x0, symName: __ZNSt3__113__unwrap_iterB8ne180100IPN7tinyobj7index_tENS_18__unwrap_iter_implIS3_Lb1EEELi0EEEDTclsrT0_8__unwrapclsr3stdE7declvalIT_EEEES7_, symObjAddr: 0x34A80, symBinAddr: 0x100035EBC, symSize: 0x24 }
  - { offsetInCU: 0x3CAAB, offset: 0x3CAAB, size: 0x8, addend: 0x0, symName: __ZNSt3__113__rewrap_iterB8ne180100IPN7tinyobj7index_tES3_NS_18__unwrap_iter_implIS3_Lb1EEEEET_S6_T0_, symObjAddr: 0x34AA4, symBinAddr: 0x100035EE0, symSize: 0x3C }
  - { offsetInCU: 0x3CB00, offset: 0x3CB00, size: 0x8, addend: 0x0, symName: __ZNSt3__19make_pairB8ne180100IPN7tinyobj7index_tES3_EENS_4pairINS_18__unwrap_ref_decayIT_E4typeENS5_IT0_E4typeEEEOS6_OS9_, symObjAddr: 0x34AE0, symBinAddr: 0x100035F1C, symSize: 0x38 }
  - { offsetInCU: 0x3CC52, offset: 0x3CC52, size: 0x8, addend: 0x0, symName: __ZNSt3__14copyB8ne180100IPN7tinyobj7index_tES3_EET0_T_S5_S4_, symObjAddr: 0x34B88, symBinAddr: 0x100035FC4, symSize: 0x40 }
  - { offsetInCU: 0x3CCAC, offset: 0x3CCAC, size: 0x8, addend: 0x0, symName: __ZNSt3__16__copyB8ne180100INS_17_ClassicAlgPolicyEPN7tinyobj7index_tES4_S4_EENS_4pairIT0_T2_EES6_T1_S7_, symObjAddr: 0x34BC8, symBinAddr: 0x100036004, symSize: 0x44 }
  - { offsetInCU: 0x3CD18, offset: 0x3CD18, size: 0x8, addend: 0x0, symName: __ZNSt3__123__dispatch_copy_or_moveB8ne180100INS_17_ClassicAlgPolicyENS_11__copy_loopIS1_EENS_14__copy_trivialEPN7tinyobj7index_tES7_S7_EENS_4pairIT2_T4_EES9_T3_SA_, symObjAddr: 0x34C0C, symBinAddr: 0x100036048, symSize: 0x44 }
  - { offsetInCU: 0x3CD96, offset: 0x3CD96, size: 0x8, addend: 0x0, symName: __ZNSt3__121__unwrap_and_dispatchB8ne180100INS_10__overloadINS_11__copy_loopINS_17_ClassicAlgPolicyEEENS_14__copy_trivialEEEPN7tinyobj7index_tES9_S9_Li0EEENS_4pairIT0_T2_EESB_T1_SC_, symObjAddr: 0x34C50, symBinAddr: 0x10003608C, symSize: 0xB4 }
  - { offsetInCU: 0x3CE24, offset: 0x3CE24, size: 0x8, addend: 0x0, symName: __ZNSt3__114__rewrap_rangeB8ne180100IPN7tinyobj7index_tES3_EET_S4_T0_, symObjAddr: 0x34D4C, symBinAddr: 0x100036188, symSize: 0x2C }
  - { offsetInCU: 0x3CE70, offset: 0x3CE70, size: 0x8, addend: 0x0, symName: __ZNSt3__119__copy_trivial_implB8ne180100IN7tinyobj7index_tES2_EENS_4pairIPT_PT0_EES5_S5_S7_, symObjAddr: 0x34D78, symBinAddr: 0x1000361B4, symSize: 0x88 }
  - { offsetInCU: 0x3CED8, offset: 0x3CED8, size: 0x8, addend: 0x0, symName: __ZNSt3__119__constexpr_memmoveB8ne180100IN7tinyobj7index_tES2_Li0EEEPT_S4_PT0_NS_15__element_countE, symObjAddr: 0x34E00, symBinAddr: 0x10003623C, symSize: 0x68 }
  - { offsetInCU: 0x3CF46, offset: 0x3CF46, size: 0x8, addend: 0x0, symName: __ZNSt3__19make_pairB8ne180100IRPN7tinyobj7index_tES3_EENS_4pairINS_18__unwrap_ref_decayIT_E4typeENS6_IT0_E4typeEEEOS7_OSA_, symObjAddr: 0x34E68, symBinAddr: 0x1000362A4, symSize: 0x38 }
  - { offsetInCU: 0x3CFE8, offset: 0x3CFE8, size: 0x8, addend: 0x0, symName: __ZNSt3__122__make_exception_guardB8ne180100INS_6vectorIjNS_9allocatorIjEEE16__destroy_vectorEEENS_28__exception_guard_exceptionsIT_EES7_, symObjAddr: 0x351C8, symBinAddr: 0x100036604, symSize: 0x40 }
  - { offsetInCU: 0x3D01D, offset: 0x3D01D, size: 0x8, addend: 0x0, symName: __ZNSt3__130__uninitialized_allocator_copyB8ne180100INS_9allocatorIjEEPjS3_S3_EET2_RT_T0_T1_S4_, symObjAddr: 0x353E0, symBinAddr: 0x10003681C, symSize: 0x80 }
  - { offsetInCU: 0x3D0BA, offset: 0x3D0BA, size: 0x8, addend: 0x0, symName: __ZNSt3__114__unwrap_rangeB8ne180100IPjS1_EENS_4pairIT0_S3_EET_S5_, symObjAddr: 0x35460, symBinAddr: 0x10003689C, symSize: 0x60 }
  - { offsetInCU: 0x3D106, offset: 0x3D106, size: 0x8, addend: 0x0, symName: __ZNSt3__135__uninitialized_allocator_copy_implB8ne180100INS_9allocatorIjEEjjjLPv0EEEPT2_RT_PT0_S9_S5_, symObjAddr: 0x354C0, symBinAddr: 0x1000368FC, symSize: 0x38 }
  - { offsetInCU: 0x3D188, offset: 0x3D188, size: 0x8, addend: 0x0, symName: __ZNSt3__113__unwrap_iterB8ne180100IPjNS_18__unwrap_iter_implIS1_Lb1EEELi0EEEDTclsrT0_8__unwrapclsr3stdE7declvalIT_EEEES5_, symObjAddr: 0x354F8, symBinAddr: 0x100036934, symSize: 0x24 }
  - { offsetInCU: 0x3D1CC, offset: 0x3D1CC, size: 0x8, addend: 0x0, symName: __ZNSt3__113__rewrap_iterB8ne180100IPjS1_NS_18__unwrap_iter_implIS1_Lb1EEEEET_S4_T0_, symObjAddr: 0x3551C, symBinAddr: 0x100036958, symSize: 0x3C }
  - { offsetInCU: 0x3D221, offset: 0x3D221, size: 0x8, addend: 0x0, symName: __ZNSt3__19make_pairB8ne180100IPjS1_EENS_4pairINS_18__unwrap_ref_decayIT_E4typeENS3_IT0_E4typeEEEOS4_OS7_, symObjAddr: 0x35558, symBinAddr: 0x100036994, symSize: 0x38 }
  - { offsetInCU: 0x3D373, offset: 0x3D373, size: 0x8, addend: 0x0, symName: __ZNSt3__14copyB8ne180100IPjS1_EET0_T_S3_S2_, symObjAddr: 0x35600, symBinAddr: 0x100036A3C, symSize: 0x40 }
  - { offsetInCU: 0x3D3CD, offset: 0x3D3CD, size: 0x8, addend: 0x0, symName: __ZNSt3__16__copyB8ne180100INS_17_ClassicAlgPolicyEPjS2_S2_EENS_4pairIT0_T2_EES4_T1_S5_, symObjAddr: 0x35640, symBinAddr: 0x100036A7C, symSize: 0x44 }
  - { offsetInCU: 0x3D439, offset: 0x3D439, size: 0x8, addend: 0x0, symName: __ZNSt3__123__dispatch_copy_or_moveB8ne180100INS_17_ClassicAlgPolicyENS_11__copy_loopIS1_EENS_14__copy_trivialEPjS5_S5_EENS_4pairIT2_T4_EES7_T3_S8_, symObjAddr: 0x35684, symBinAddr: 0x100036AC0, symSize: 0x44 }
  - { offsetInCU: 0x3D4B7, offset: 0x3D4B7, size: 0x8, addend: 0x0, symName: __ZNSt3__121__unwrap_and_dispatchB8ne180100INS_10__overloadINS_11__copy_loopINS_17_ClassicAlgPolicyEEENS_14__copy_trivialEEEPjS7_S7_Li0EEENS_4pairIT0_T2_EES9_T1_SA_, symObjAddr: 0x356C8, symBinAddr: 0x100036B04, symSize: 0xB4 }
  - { offsetInCU: 0x3D545, offset: 0x3D545, size: 0x8, addend: 0x0, symName: __ZNSt3__114__rewrap_rangeB8ne180100IPjS1_EET_S2_T0_, symObjAddr: 0x357C4, symBinAddr: 0x100036C00, symSize: 0x2C }
  - { offsetInCU: 0x3D591, offset: 0x3D591, size: 0x8, addend: 0x0, symName: __ZNSt3__119__copy_trivial_implB8ne180100IjjEENS_4pairIPT_PT0_EES3_S3_S5_, symObjAddr: 0x357F0, symBinAddr: 0x100036C2C, symSize: 0x80 }
  - { offsetInCU: 0x3D5F9, offset: 0x3D5F9, size: 0x8, addend: 0x0, symName: __ZNSt3__119__constexpr_memmoveB8ne180100IjjLi0EEEPT_S2_PT0_NS_15__element_countE, symObjAddr: 0x35870, symBinAddr: 0x100036CAC, symSize: 0x64 }
  - { offsetInCU: 0x3D667, offset: 0x3D667, size: 0x8, addend: 0x0, symName: __ZNSt3__19make_pairB8ne180100IRPjS1_EENS_4pairINS_18__unwrap_ref_decayIT_E4typeENS4_IT0_E4typeEEEOS5_OS8_, symObjAddr: 0x358D4, symBinAddr: 0x100036D10, symSize: 0x38 }
  - { offsetInCU: 0x3D709, offset: 0x3D709, size: 0x8, addend: 0x0, symName: __ZNSt3__122__make_exception_guardB8ne180100INS_6vectorIN7tinyobj5tag_tENS_9allocatorIS3_EEE16__destroy_vectorEEENS_28__exception_guard_exceptionsIT_EES9_, symObjAddr: 0x35C2C, symBinAddr: 0x100037068, symSize: 0x40 }
  - { offsetInCU: 0x3D73E, offset: 0x3D73E, size: 0x8, addend: 0x0, symName: __ZNSt3__119__allocate_at_leastB8ne180100INS_9allocatorIN7tinyobj7shape_tEEEEENS_19__allocation_resultINS_16allocator_traitsIT_E7pointerEEERS7_m, symObjAddr: 0x36288, symBinAddr: 0x1000376C4, symSize: 0x40 }
  - { offsetInCU: 0x3D781, offset: 0x3D781, size: 0x8, addend: 0x0, symName: __ZNSt3__142__uninitialized_allocator_move_if_noexceptB8ne180100INS_9allocatorIN7tinyobj7shape_tEEENS_16reverse_iteratorIPS3_EES7_S7_EET2_RT_T0_T1_S8_, symObjAddr: 0x36440, symBinAddr: 0x10003787C, symSize: 0x12C }
  - { offsetInCU: 0x3D821, offset: 0x3D821, size: 0x8, addend: 0x0, symName: __ZNSt3__14swapB8ne180100IPN7tinyobj7shape_tEEENS_9enable_ifIXaasr21is_move_constructibleIT_EE5valuesr18is_move_assignableIS5_EE5valueEvE4typeERS5_S8_, symObjAddr: 0x365B8, symBinAddr: 0x1000379F4, symSize: 0x3C }
  - { offsetInCU: 0x3D872, offset: 0x3D872, size: 0x8, addend: 0x0, symName: __ZNSt3__122__make_exception_guardB8ne180100INS_29_AllocatorDestroyRangeReverseINS_9allocatorIN7tinyobj7shape_tEEENS_16reverse_iteratorIPS4_EEEEEENS_28__exception_guard_exceptionsIT_EESB_, symObjAddr: 0x36608, symBinAddr: 0x100037A44, symSize: 0x4C }
  - { offsetInCU: 0x3D8A8, offset: 0x3D8A8, size: 0x8, addend: 0x0, symName: __ZNSt3__1neB8ne180100IPN7tinyobj7shape_tES3_EEbRKNS_16reverse_iteratorIT_EERKNS4_IT0_EE, symObjAddr: 0x36698, symBinAddr: 0x100037AD4, symSize: 0x48 }
  - { offsetInCU: 0x3D8F4, offset: 0x3D8F4, size: 0x8, addend: 0x0, symName: __ZNSt3__112__to_addressB8ne180100INS_16reverse_iteratorIPN7tinyobj7shape_tEEEvEEu7__decayIDTclsr19__to_address_helperIT_EE6__callclsr3stdE7declvalIRKS6_EEEEES8_, symObjAddr: 0x36714, symBinAddr: 0x100037B50, symSize: 0x24 }
  - { offsetInCU: 0x3D954, offset: 0x3D954, size: 0x8, addend: 0x0, symName: __ZNSt3__119__allocator_destroyB8ne180100INS_9allocatorIN7tinyobj7shape_tEEENS_16reverse_iteratorINS5_IPS3_EEEES8_EEvRT_T0_T1_, symObjAddr: 0x37014, symBinAddr: 0x100038450, symSize: 0x70 }
  - { offsetInCU: 0x3D9B9, offset: 0x3D9B9, size: 0x8, addend: 0x0, symName: __ZNSt3__1neB8ne180100INS_16reverse_iteratorIPN7tinyobj7shape_tEEES5_EEbRKNS1_IT_EERKNS1_IT0_EE, symObjAddr: 0x370C0, symBinAddr: 0x1000384FC, symSize: 0x60 }
  - { offsetInCU: 0x3DA05, offset: 0x3DA05, size: 0x8, addend: 0x0, symName: __ZNSt3__112__to_addressB8ne180100INS_16reverse_iteratorINS1_IPN7tinyobj7shape_tEEEEEvEEu7__decayIDTclsr19__to_address_helperIT_EE6__callclsr3stdE7declvalIRKS7_EEEEES9_, symObjAddr: 0x37120, symBinAddr: 0x10003855C, symSize: 0x24 }
  - { offsetInCU: 0x3DA65, offset: 0x3DA65, size: 0x8, addend: 0x0, symName: __ZNSt3__142__uninitialized_allocator_move_if_noexceptB8ne180100INS_9allocatorIN7tinyobj5tag_tEEENS_16reverse_iteratorIPS3_EES7_S7_EET2_RT_T0_T1_S8_, symObjAddr: 0x384FC, symBinAddr: 0x100039938, symSize: 0x11C }
  - { offsetInCU: 0x3DB05, offset: 0x3DB05, size: 0x8, addend: 0x0, symName: __ZNSt3__14swapB8ne180100IPN7tinyobj5tag_tEEENS_9enable_ifIXaasr21is_move_constructibleIT_EE5valuesr18is_move_assignableIS5_EE5valueEvE4typeERS5_S8_, symObjAddr: 0x38618, symBinAddr: 0x100039A54, symSize: 0x3C }
  - { offsetInCU: 0x3DB56, offset: 0x3DB56, size: 0x8, addend: 0x0, symName: __ZNSt3__122__make_exception_guardB8ne180100INS_29_AllocatorDestroyRangeReverseINS_9allocatorIN7tinyobj5tag_tEEENS_16reverse_iteratorIPS4_EEEEEENS_28__exception_guard_exceptionsIT_EESB_, symObjAddr: 0x38654, symBinAddr: 0x100039A90, symSize: 0x4C }
  - { offsetInCU: 0x3DB8C, offset: 0x3DB8C, size: 0x8, addend: 0x0, symName: __ZNSt3__119__allocator_destroyB8ne180100INS_9allocatorIN7tinyobj5tag_tEEENS_16reverse_iteratorINS5_IPS3_EEEES8_EEvRT_T0_T1_, symObjAddr: 0x38BC4, symBinAddr: 0x10003A000, symSize: 0x70 }
  - { offsetInCU: 0x3DBF1, offset: 0x3DBF1, size: 0x8, addend: 0x0, symName: __ZNSt3__1neB8ne180100INS_16reverse_iteratorIPN7tinyobj5tag_tEEES5_EEbRKNS1_IT_EERKNS1_IT0_EE, symObjAddr: 0x38C70, symBinAddr: 0x10003A0AC, symSize: 0x60 }
  - { offsetInCU: 0x3DC3D, offset: 0x3DC3D, size: 0x8, addend: 0x0, symName: __ZNSt3__112__to_addressB8ne180100INS_16reverse_iteratorINS1_IPN7tinyobj5tag_tEEEEEvEEu7__decayIDTclsr19__to_address_helperIT_EE6__callclsr3stdE7declvalIRKS7_EEEEES9_, symObjAddr: 0x38CD0, symBinAddr: 0x10003A10C, symSize: 0x24 }
  - { offsetInCU: 0x3DC9E, offset: 0x3DC9E, size: 0x8, addend: 0x0, symName: __ZNSt3__116__swap_allocatorB8ne180100INS_9allocatorIfEEEEvRT_S4_NS_17integral_constantIbLb0EEE, symObjAddr: 0x39010, symBinAddr: 0x10003A44C, symSize: 0x14 }
  - { offsetInCU: 0x3DCE3, offset: 0x3DCE3, size: 0x8, addend: 0x0, symName: __ZNSt3__116__swap_allocatorB8ne180100INS_9allocatorIN7tinyobj13skin_weight_tEEEEEvRT_S6_NS_17integral_constantIbLb0EEE, symObjAddr: 0x39024, symBinAddr: 0x10003A460, symSize: 0x14 }
  - { offsetInCU: 0x3DD27, offset: 0x3DD27, size: 0x8, addend: 0x0, symName: __ZNSt3__112__to_addressB8ne180100IPKcEEPT_S4_, symObjAddr: 0x3943C, symBinAddr: 0x10003A878, symSize: 0x14 }
  - { offsetInCU: 0x3DD5D, offset: 0x3DD5D, size: 0x8, addend: 0x0, symName: __ZNSt3__120__throw_out_of_rangeB8ne180100EPKc, symObjAddr: 0x3956C, symBinAddr: 0x10003A9A8, symSize: 0x64 }
  - { offsetInCU: 0x3DD85, offset: 0x3DD85, size: 0x8, addend: 0x0, symName: __ZNSt3__119__allocate_at_leastB8ne180100INS_9allocatorIPKcEEEENS_19__allocation_resultINS_16allocator_traitsIT_E7pointerEEERS7_m, symObjAddr: 0x39F08, symBinAddr: 0x10003B344, symSize: 0x40 }
  - { offsetInCU: 0x3DDC8, offset: 0x3DDC8, size: 0x8, addend: 0x0, symName: __ZNSt3__142__uninitialized_allocator_move_if_noexceptB8ne180100INS_9allocatorIPKcEENS_16reverse_iteratorIPS3_EES7_S3_vEET1_RT_T0_SB_S8_, symObjAddr: 0x3A188, symBinAddr: 0x10003B5C4, symSize: 0x78 }
  - { offsetInCU: 0x3DE46, offset: 0x3DE46, size: 0x8, addend: 0x0, symName: __ZNSt3__14swapB8ne180100IPPKcEENS_9enable_ifIXaasr21is_move_constructibleIT_EE5valuesr18is_move_assignableIS5_EE5valueEvE4typeERS5_S8_, symObjAddr: 0x3A24C, symBinAddr: 0x10003B688, symSize: 0x3C }
  - { offsetInCU: 0x3DE97, offset: 0x3DE97, size: 0x8, addend: 0x0, symName: __ZNSt3__14moveB8ne180100INS_16reverse_iteratorIPPKcEES5_EET0_T_S7_S6_, symObjAddr: 0x3A29C, symBinAddr: 0x10003B6D8, symSize: 0x78 }
  - { offsetInCU: 0x3DEF1, offset: 0x3DEF1, size: 0x8, addend: 0x0, symName: __ZNSt3__16__moveB8ne180100INS_17_ClassicAlgPolicyENS_16reverse_iteratorIPPKcEES6_S6_EENS_4pairIT0_T2_EES8_T1_S9_, symObjAddr: 0x3A314, symBinAddr: 0x10003B750, symSize: 0x64 }
  - { offsetInCU: 0x3DF5D, offset: 0x3DF5D, size: 0x8, addend: 0x0, symName: __ZNSt3__123__dispatch_copy_or_moveB8ne180100INS_17_ClassicAlgPolicyENS_11__move_loopIS1_EENS_14__move_trivialENS_16reverse_iteratorIPPKcEES9_S9_EENS_4pairIT2_T4_EESB_T3_SC_, symObjAddr: 0x3A378, symBinAddr: 0x10003B7B4, symSize: 0x64 }
  - { offsetInCU: 0x3DFDB, offset: 0x3DFDB, size: 0x8, addend: 0x0, symName: __ZNSt3__121__unwrap_and_dispatchB8ne180100INS_10__overloadINS_11__move_loopINS_17_ClassicAlgPolicyEEENS_14__move_trivialEEENS_16reverse_iteratorIPPKcEESB_SB_Li0EEENS_4pairIT0_T2_EESD_T1_SE_, symObjAddr: 0x3A3DC, symBinAddr: 0x10003B818, symSize: 0x12C }
  - { offsetInCU: 0x3E06B, offset: 0x3E06B, size: 0x8, addend: 0x0, symName: __ZNSt3__114__unwrap_rangeB8ne180100INS_16reverse_iteratorIPPKcEES5_EENS_4pairIT0_S7_EET_S9_, symObjAddr: 0x3A508, symBinAddr: 0x10003B944, symSize: 0x84 }
  - { offsetInCU: 0x3E18B, offset: 0x3E18B, size: 0x8, addend: 0x0, symName: __ZNSt3__113__unwrap_iterB8ne180100INS_16reverse_iteratorIPPKcEENS_18__unwrap_iter_implIS5_Lb0EEELi0EEEDTclsrT0_8__unwrapclsr3stdE7declvalIT_EEEES9_, symObjAddr: 0x3A62C, symBinAddr: 0x10003BA68, symSize: 0x44 }
  - { offsetInCU: 0x3E1CF, offset: 0x3E1CF, size: 0x8, addend: 0x0, symName: __ZNSt3__19make_pairB8ne180100INS_16reverse_iteratorIPPKcEES5_EENS_4pairINS_18__unwrap_ref_decayIT_E4typeENS7_IT0_E4typeEEEOS8_OSB_, symObjAddr: 0x3A670, symBinAddr: 0x10003BAAC, symSize: 0x38 }
  - { offsetInCU: 0x3E21E, offset: 0x3E21E, size: 0x8, addend: 0x0, symName: __ZNSt3__114__rewrap_rangeB8ne180100INS_16reverse_iteratorIPPKcEES5_EET_S6_T0_, symObjAddr: 0x3A6A8, symBinAddr: 0x10003BAE4, symSize: 0x5C }
  - { offsetInCU: 0x3E26A, offset: 0x3E26A, size: 0x8, addend: 0x0, symName: __ZNSt3__113__rewrap_iterB8ne180100INS_16reverse_iteratorIPPKcEES5_NS_18__unwrap_iter_implIS5_Lb0EEEEET_S8_T0_, symObjAddr: 0x3A704, symBinAddr: 0x10003BB40, symSize: 0x74 }
  - { offsetInCU: 0x3E2BF, offset: 0x3E2BF, size: 0x8, addend: 0x0, symName: __ZNSt3__1neB8ne180100IPPKcS3_EEbRKNS_16reverse_iteratorIT_EERKNS4_IT0_EE, symObjAddr: 0x3A778, symBinAddr: 0x10003BBB4, symSize: 0x48 }
  - { offsetInCU: 0x3E35E, offset: 0x3E35E, size: 0x8, addend: 0x0, symName: __ZNSt3__118__str_find_last_ofB8ne180100IcmNS_11char_traitsIcEELm18446744073709551615EEET0_PKT_S3_S6_S3_S3_, symObjAddr: 0x3AB38, symBinAddr: 0x10003BF74, symSize: 0xFC }
  - { offsetInCU: 0x3F352, offset: 0x3F352, size: 0x8, addend: 0x0, symName: __ZSt28__throw_bad_array_new_lengthB8ne180100v, symObjAddr: 0xF82C, symBinAddr: 0x100010C68, symSize: 0x34 }
  - { offsetInCU: 0x40026, offset: 0x40026, size: 0x8, addend: 0x0, symName: __ZN3glm6rotateIfLNS_9qualifierE0EEENS_3matILi4ELi4ET_XT0_EEERKS4_S3_RKNS_3vecILi3ES3_XT0_EEE, symObjAddr: 0xDD30, symBinAddr: 0x10000F16C, symSize: 0x8E4 }
  - { offsetInCU: 0x400E7, offset: 0x400E7, size: 0x8, addend: 0x0, symName: __ZN3glm6lookAtIfLNS_9qualifierE0EEENS_3matILi4ELi4ET_XT0_EEERKNS_3vecILi3ES3_XT0_EEES8_S8_, symObjAddr: 0xE658, symBinAddr: 0x10000FA94, symSize: 0x34 }
  - { offsetInCU: 0x40142, offset: 0x40142, size: 0x8, addend: 0x0, symName: __ZN3glm11perspectiveIfEENS_3matILi4ELi4ET_LNS_9qualifierE0EEES2_S2_S2_S2_, symObjAddr: 0xE68C, symBinAddr: 0x10000FAC8, symSize: 0x3C }
  - { offsetInCU: 0x401A6, offset: 0x401A6, size: 0x8, addend: 0x0, symName: __ZN3glm7radiansIfEET_S1_, symObjAddr: 0xE6C8, symBinAddr: 0x10000FB04, symSize: 0x24 }
  - { offsetInCU: 0x401DB, offset: 0x401DB, size: 0x8, addend: 0x0, symName: __ZN3glm9value_ptrIfLNS_9qualifierE0EEEPT_RNS_3matILi4ELi4ES2_XT0_EEE, symObjAddr: 0xE6EC, symBinAddr: 0x10000FB28, symSize: 0x28 }
  - { offsetInCU: 0x4021A, offset: 0x4021A, size: 0x8, addend: 0x0, symName: __ZN3glm9value_ptrIfLNS_9qualifierE0EEEPT_RNS_3vecILi3ES2_XT0_EEE, symObjAddr: 0xE714, symBinAddr: 0x10000FB50, symSize: 0x14 }
  - { offsetInCU: 0x40259, offset: 0x40259, size: 0x8, addend: 0x0, symName: __ZN3glm9normalizeILi3EfLNS_9qualifierE0EEENS_3vecIXT_ET0_XT1_EEERKS4_, symObjAddr: 0x3AE2C, symBinAddr: 0x10003C268, symSize: 0x3C }
  - { offsetInCU: 0x402A2, offset: 0x402A2, size: 0x8, addend: 0x0, symName: __ZN3glmmlIfLNS_9qualifierE0EEENS_3vecILi3ET_XT0_EEES3_RKS4_, symObjAddr: 0x3AE68, symBinAddr: 0x10003C2A4, symSize: 0x5C }
  - { offsetInCU: 0x415EB, offset: 0x415EB, size: 0x8, addend: 0x0, symName: __ZN3glmplIfLNS_9qualifierE0EEENS_3vecILi4ET_XT0_EEERKS4_S6_, symObjAddr: 0x3B1A0, symBinAddr: 0x10003C5DC, symSize: 0x50 }
  - { offsetInCU: 0x4163B, offset: 0x4163B, size: 0x8, addend: 0x0, symName: __ZN3glmmlIfLNS_9qualifierE0EEENS_3vecILi4ET_XT0_EEERKS4_S3_, symObjAddr: 0x3B1F0, symBinAddr: 0x10003C62C, symSize: 0x50 }
  - { offsetInCU: 0x41A0A, offset: 0x41A0A, size: 0x8, addend: 0x0, symName: __ZN3glmmlIfLNS_9qualifierE0EEENS_3vecILi3ET_XT0_EEERKS4_S3_, symObjAddr: 0x3B340, symBinAddr: 0x10003C77C, symSize: 0x5C }
  - { offsetInCU: 0x41A5A, offset: 0x41A5A, size: 0x8, addend: 0x0, symName: __ZN3glm11inversesqrtIfEET_S1_, symObjAddr: 0x3B39C, symBinAddr: 0x10003C7D8, symSize: 0x30 }
  - { offsetInCU: 0x41A8F, offset: 0x41A8F, size: 0x8, addend: 0x0, symName: __ZN3glm3dotILi3EfLNS_9qualifierE0EEET0_RKNS_3vecIXT_ES2_XT1_EEES6_, symObjAddr: 0x3B3CC, symBinAddr: 0x10003C808, symSize: 0x2C }
  - { offsetInCU: 0x41AE6, offset: 0x41AE6, size: 0x8, addend: 0x0, symName: __ZN3glmmlIfLNS_9qualifierE0EEENS_3vecILi3ET_XT0_EEERKS4_S6_, symObjAddr: 0x3B620, symBinAddr: 0x10003CA5C, symSize: 0x5C }
  - { offsetInCU: 0x41B36, offset: 0x41B36, size: 0x8, addend: 0x0, symName: __ZN3glm8lookAtRHIfLNS_9qualifierE0EEENS_3matILi4ELi4ET_XT0_EEERKNS_3vecILi3ES3_XT0_EEES8_S8_, symObjAddr: 0x3BAD0, symBinAddr: 0x10003CF0C, symSize: 0x2E4 }
  - { offsetInCU: 0x41BCC, offset: 0x41BCC, size: 0x8, addend: 0x0, symName: __ZN3glmmiIfLNS_9qualifierE0EEENS_3vecILi3ET_XT0_EEERKS4_S6_, symObjAddr: 0x3BDB4, symBinAddr: 0x10003D1F0, symSize: 0x5C }
  - { offsetInCU: 0x41C1C, offset: 0x41C1C, size: 0x8, addend: 0x0, symName: __ZN3glm5crossIfLNS_9qualifierE0EEENS_3vecILi3ET_XT0_EEERKS4_S6_, symObjAddr: 0x3BE10, symBinAddr: 0x10003D24C, symSize: 0x44 }
  - { offsetInCU: 0x41C69, offset: 0x41C69, size: 0x8, addend: 0x0, symName: __ZN3glm16perspectiveRH_NOIfEENS_3matILi4ELi4ET_LNS_9qualifierE0EEES2_S2_S2_S2_, symObjAddr: 0x3C060, symBinAddr: 0x10003D49C, symSize: 0x1C8 }
  - { offsetInCU: 0x41CE6, offset: 0x41CE6, size: 0x8, addend: 0x0, symName: __ZN3glm3absIfEET_S1_, symObjAddr: 0x3C228, symBinAddr: 0x10003D664, symSize: 0x24 }
  - { offsetInCU: 0x42999, offset: 0x42999, size: 0x8, addend: 0x0, symName: __ZNSt3__16vectorIiNS_9allocatorIiEEE26__swap_out_circular_bufferERNS_14__split_bufferIiRS2_EE, symObjAddr: 0x142A4, symBinAddr: 0x1000156E0, symSize: 0x110 }
  - { offsetInCU: 0x42B86, offset: 0x42B86, size: 0x8, addend: 0x0, symName: __ZNSt3__16vectorIjNS_9allocatorIjEEE26__swap_out_circular_bufferERNS_14__split_bufferIjRS2_EE, symObjAddr: 0x15858, symBinAddr: 0x100016C94, symSize: 0x110 }
  - { offsetInCU: 0x43B21, offset: 0x43B21, size: 0x8, addend: 0x0, symName: __ZNSt3__16vectorIN7tinyobj7index_tENS_9allocatorIS2_EEE26__swap_out_circular_bufferERNS_14__split_bufferIS2_RS4_EE, symObjAddr: 0x20620, symBinAddr: 0x100021A5C, symSize: 0x110 }
  - { offsetInCU: 0x43B79, offset: 0x43B79, size: 0x8, addend: 0x0, symName: __ZNSt3__16vectorINS_12basic_stringIcNS_11char_traitsIcEENS_9allocatorIcEEEENS4_IS6_EEE26__swap_out_circular_bufferERNS_14__split_bufferIS6_RS7_EE, symObjAddr: 0x21948, symBinAddr: 0x100022D84, symSize: 0x110 }
  - { offsetInCU: 0x43EE6, offset: 0x43EE6, size: 0x8, addend: 0x0, symName: __ZNSt3__16vectorIN7tinyobj10material_tENS_9allocatorIS2_EEE26__swap_out_circular_bufferERNS_14__split_bufferIS2_RS4_EE, symObjAddr: 0x26A78, symBinAddr: 0x100027EB4, symSize: 0x110 }
  - { offsetInCU: 0x44459, offset: 0x44459, size: 0x8, addend: 0x0, symName: __ZNSt3__16vectorIfNS_9allocatorIfEEE26__swap_out_circular_bufferERNS_14__split_bufferIfRS2_EE, symObjAddr: 0x2A09C, symBinAddr: 0x10002B4D8, symSize: 0x110 }
  - { offsetInCU: 0x444B1, offset: 0x444B1, size: 0x8, addend: 0x0, symName: __ZNSt3__16vectorIN7tinyobj18joint_and_weight_tENS_9allocatorIS2_EEE26__swap_out_circular_bufferERNS_14__split_bufferIS2_RS4_EE, symObjAddr: 0x2B190, symBinAddr: 0x10002C5CC, symSize: 0x110 }
  - { offsetInCU: 0x44525, offset: 0x44525, size: 0x8, addend: 0x0, symName: __ZNSt3__16vectorIN7tinyobj13skin_weight_tENS_9allocatorIS2_EEE26__swap_out_circular_bufferERNS_14__split_bufferIS2_RS4_EE, symObjAddr: 0x2CF60, symBinAddr: 0x10002E39C, symSize: 0x110 }
  - { offsetInCU: 0x445BD, offset: 0x445BD, size: 0x8, addend: 0x0, symName: __ZNSt3__16vectorIN7tinyobj14vertex_index_tENS_9allocatorIS2_EEE26__swap_out_circular_bufferERNS_14__split_bufferIS2_RS4_EE, symObjAddr: 0x2E2E4, symBinAddr: 0x10002F720, symSize: 0x110 }
  - { offsetInCU: 0x44615, offset: 0x44615, size: 0x8, addend: 0x0, symName: __ZNSt3__16vectorIN7tinyobj8__line_tENS_9allocatorIS2_EEE26__swap_out_circular_bufferERNS_14__split_bufferIS2_RS4_EE, symObjAddr: 0x2F43C, symBinAddr: 0x100030878, symSize: 0x110 }
  - { offsetInCU: 0x446AD, offset: 0x446AD, size: 0x8, addend: 0x0, symName: __ZNSt3__16vectorIN7tinyobj10__points_tENS_9allocatorIS2_EEE26__swap_out_circular_bufferERNS_14__split_bufferIS2_RS4_EE, symObjAddr: 0x3095C, symBinAddr: 0x100031D98, symSize: 0x110 }
  - { offsetInCU: 0x44745, offset: 0x44745, size: 0x8, addend: 0x0, symName: __ZNSt3__16vectorIN7tinyobj6face_tENS_9allocatorIS2_EEE26__swap_out_circular_bufferERNS_14__split_bufferIS2_RS4_EE, symObjAddr: 0x31D14, symBinAddr: 0x100033150, symSize: 0x110 }
  - { offsetInCU: 0x44831, offset: 0x44831, size: 0x8, addend: 0x0, symName: __ZNSt3__16vectorIN7tinyobj7shape_tENS_9allocatorIS2_EEE26__swap_out_circular_bufferERNS_14__split_bufferIS2_RS4_EE, symObjAddr: 0x35F10, symBinAddr: 0x10003734C, symSize: 0x110 }
  - { offsetInCU: 0x448C9, offset: 0x448C9, size: 0x8, addend: 0x0, symName: __ZNSt3__16vectorIN7tinyobj5tag_tENS_9allocatorIS2_EEE26__swap_out_circular_bufferERNS_14__split_bufferIS2_RS4_EE, symObjAddr: 0x38188, symBinAddr: 0x1000395C4, symSize: 0x110 }
  - { offsetInCU: 0x44AF2, offset: 0x44AF2, size: 0x8, addend: 0x0, symName: __ZNSt3__16vectorIPKcNS_9allocatorIS2_EEE26__swap_out_circular_bufferERNS_14__split_bufferIS2_RS4_EE, symObjAddr: 0x39A5C, symBinAddr: 0x10003AE98, symSize: 0x110 }
  - { offsetInCU: 0x46EA7, offset: 0x46EA7, size: 0x8, addend: 0x0, symName: __ZN7tinyobj14MaterialReaderD2Ev, symObjAddr: 0x0, symBinAddr: 0x10000143C, symSize: 0x14 }
  - { offsetInCU: 0x46ED3, offset: 0x46ED3, size: 0x8, addend: 0x0, symName: __ZN7tinyobj14MaterialReaderD1Ev, symObjAddr: 0x14, symBinAddr: 0x100001450, symSize: 0x14 }
  - { offsetInCU: 0x46EFF, offset: 0x46EFF, size: 0x8, addend: 0x0, symName: __ZN7tinyobj14MaterialReaderD0Ev, symObjAddr: 0x28, symBinAddr: 0x100001464, symSize: 0xC }
  - { offsetInCU: 0x46F2B, offset: 0x46F2B, size: 0x8, addend: 0x0, symName: __ZNSt3__112basic_stringIcNS_11char_traitsIcEENS_9allocatorIcEEEC1B8ne180100Ev, symObjAddr: 0xA5C, symBinAddr: 0x100001E98, symSize: 0x2C }
  - { offsetInCU: 0x46F55, offset: 0x46F55, size: 0x8, addend: 0x0, symName: __ZNSt3__112basic_stringIcNS_11char_traitsIcEENS_9allocatorIcEEEaSB8ne180100EOS5_, symObjAddr: 0x10D8, symBinAddr: 0x100002514, symSize: 0x34 }
  - { offsetInCU: 0x46F8F, offset: 0x46F8F, size: 0x8, addend: 0x0, symName: __ZNSt3__112basic_stringIcNS_11char_traitsIcEENS_9allocatorIcEEEC1B8ne180100ILi0EEEPKc, symObjAddr: 0x110C, symBinAddr: 0x100002548, symSize: 0x34 }
  - { offsetInCU: 0x46FCE, offset: 0x46FCE, size: 0x8, addend: 0x0, symName: __ZNKSt3__112basic_stringIcNS_11char_traitsIcEENS_9allocatorIcEEE6lengthB8ne180100Ev, symObjAddr: 0x1140, symBinAddr: 0x10000257C, symSize: 0x24 }
  - { offsetInCU: 0x46FF9, offset: 0x46FF9, size: 0x8, addend: 0x0, symName: __ZN7tinyobj10material_tC1Ev, symObjAddr: 0x2C7C, symBinAddr: 0x1000040B8, symSize: 0x2C }
  - { offsetInCU: 0x47110, offset: 0x47110, size: 0x8, addend: 0x0, symName: __ZNSt3__118basic_stringstreamIcNS_11char_traitsIcEENS_9allocatorIcEEEC1B8ne180100Ev, symObjAddr: 0x2FB0, symBinAddr: 0x1000043EC, symSize: 0x104 }
  - { offsetInCU: 0x4713A, offset: 0x4713A, size: 0x8, addend: 0x0, symName: __ZNKSt3__112basic_stringIcNS_11char_traitsIcEENS_9allocatorIcEEE4sizeB8ne180100Ev, symObjAddr: 0x320C, symBinAddr: 0x100004648, symSize: 0x54 }
  - { offsetInCU: 0x47160, offset: 0x47160, size: 0x8, addend: 0x0, symName: __ZNKSt3__112basic_stringIcNS_11char_traitsIcEENS_9allocatorIcEEE6substrB8ne180100Emm, symObjAddr: 0x3260, symBinAddr: 0x10000469C, symSize: 0x68 }
  - { offsetInCU: 0x471A4, offset: 0x471A4, size: 0x8, addend: 0x0, symName: __ZNKSt3__112basic_stringIcNS_11char_traitsIcEENS_9allocatorIcEEE16find_last_not_ofB8ne180100EPKcm, symObjAddr: 0x32C8, symBinAddr: 0x100004704, symSize: 0x74 }
  - { offsetInCU: 0x471EA, offset: 0x471EA, size: 0x8, addend: 0x0, symName: __ZNSt3__112basic_stringIcNS_11char_traitsIcEENS_9allocatorIcEEEixB8ne180100Em, symObjAddr: 0x333C, symBinAddr: 0x100004778, symSize: 0x48 }
  - { offsetInCU: 0x4721F, offset: 0x4721F, size: 0x8, addend: 0x0, symName: __ZNKSt3__112basic_stringIcNS_11char_traitsIcEENS_9allocatorIcEEE5emptyB8ne180100Ev, symObjAddr: 0x3384, symBinAddr: 0x1000047C0, symSize: 0x30 }
  - { offsetInCU: 0x47245, offset: 0x47245, size: 0x8, addend: 0x0, symName: __ZNKSt3__112basic_stringIcNS_11char_traitsIcEENS_9allocatorIcEEE5c_strB8ne180100Ev, symObjAddr: 0x33B4, symBinAddr: 0x1000047F0, symSize: 0x24 }
  - { offsetInCU: 0x47287, offset: 0x47287, size: 0x8, addend: 0x0, symName: __ZNSt3__13mapINS_12basic_stringIcNS_11char_traitsIcEENS_9allocatorIcEEEEiNS_4lessIS6_EENS4_INS_4pairIKS6_iEEEEE6insertB8ne180100INS9_IS6_iEEvEENS9_INS_14__map_iteratorINS_15__tree_iteratorINS_12__value_typeIS6_iEEPNS_11__tree_nodeISJ_PvEElEEEEbEEOT_, symObjAddr: 0x33D8, symBinAddr: 0x100004814, symSize: 0x4C }
  - { offsetInCU: 0x472C6, offset: 0x472C6, size: 0x8, addend: 0x0, symName: __ZNKSt3__16vectorIN7tinyobj10material_tENS_9allocatorIS2_EEE4sizeB8ne180100Ev, symObjAddr: 0x3424, symBinAddr: 0x100004860, symSize: 0x28 }
  - { offsetInCU: 0x472F2, offset: 0x472F2, size: 0x8, addend: 0x0, symName: __ZNSt3__14pairINS_12basic_stringIcNS_11char_traitsIcEENS_9allocatorIcEEEEiEC1B8ne180100IRS6_iLi0EEEOT_OT0_, symObjAddr: 0x344C, symBinAddr: 0x100004888, symSize: 0x3C }
  - { offsetInCU: 0x47350, offset: 0x47350, size: 0x8, addend: 0x0, symName: __ZNSt3__14pairINS_12basic_stringIcNS_11char_traitsIcEENS_9allocatorIcEEEEiED1Ev, symObjAddr: 0x3488, symBinAddr: 0x1000048C4, symSize: 0x2C }
  - { offsetInCU: 0x4737C, offset: 0x4737C, size: 0x8, addend: 0x0, symName: __ZNSt3__16vectorIN7tinyobj10material_tENS_9allocatorIS2_EEE9push_backB8ne180100ERKS2_, symObjAddr: 0x34B4, symBinAddr: 0x1000048F0, symSize: 0x90 }
  - { offsetInCU: 0x473C2, offset: 0x473C2, size: 0x8, addend: 0x0, symName: __ZNSt3__112basic_stringIcNS_11char_traitsIcEENS_9allocatorIcEEEpLB8ne180100EPKc, symObjAddr: 0x3544, symBinAddr: 0x100004980, symSize: 0x2C }
  - { offsetInCU: 0x473F7, offset: 0x473F7, size: 0x8, addend: 0x0, symName: __ZNSt3__112basic_stringIcNS_11char_traitsIcEENS_9allocatorIcEEEaSB8ne180100EPKc, symObjAddr: 0x3604, symBinAddr: 0x100004A40, symSize: 0x2C }
  - { offsetInCU: 0x4742B, offset: 0x4742B, size: 0x8, addend: 0x0, symName: __Z6strchrB8ne180100Ua9enable_ifIXLb1EEEPKci, symObjAddr: 0x3630, symBinAddr: 0x100004A6C, symSize: 0x2C }
  - { offsetInCU: 0x47466, offset: 0x47466, size: 0x8, addend: 0x0, symName: __ZNSt3__112basic_stringIcNS_11char_traitsIcEENS_9allocatorIcEEEC1B8ne180100EPKcm, symObjAddr: 0x365C, symBinAddr: 0x100004A98, symSize: 0x3C }
  - { offsetInCU: 0x474CA, offset: 0x474CA, size: 0x8, addend: 0x0, symName: __ZNSt3__13mapINS_12basic_stringIcNS_11char_traitsIcEENS_9allocatorIcEEEES6_NS_4lessIS6_EENS4_INS_4pairIKS6_S6_EEEEE6insertB8ne180100INS9_IS6_S6_EEvEENS9_INS_14__map_iteratorINS_15__tree_iteratorINS_12__value_typeIS6_S6_EEPNS_11__tree_nodeISJ_PvEElEEEEbEEOT_, symObjAddr: 0x3698, symBinAddr: 0x100004AD4, symSize: 0x4C }
  - { offsetInCU: 0x47509, offset: 0x47509, size: 0x8, addend: 0x0, symName: __ZNSt3__14pairINS_12basic_stringIcNS_11char_traitsIcEENS_9allocatorIcEEEES6_EC1B8ne180100IRS6_S9_Li0EEEOT_OT0_, symObjAddr: 0x36E4, symBinAddr: 0x100004B20, symSize: 0x3C }
  - { offsetInCU: 0x47567, offset: 0x47567, size: 0x8, addend: 0x0, symName: __ZNSt3__14pairINS_12basic_stringIcNS_11char_traitsIcEENS_9allocatorIcEEEES6_ED1Ev, symObjAddr: 0x3720, symBinAddr: 0x100004B5C, symSize: 0x2C }
  - { offsetInCU: 0x47593, offset: 0x47593, size: 0x8, addend: 0x0, symName: __ZNKSt3__118basic_stringstreamIcNS_11char_traitsIcEENS_9allocatorIcEEE3strB8ne180100Ev, symObjAddr: 0x374C, symBinAddr: 0x100004B88, symSize: 0x30 }
  - { offsetInCU: 0x475BE, offset: 0x475BE, size: 0x8, addend: 0x0, symName: __ZNSt3__118basic_stringstreamIcNS_11char_traitsIcEENS_9allocatorIcEEED1Ev, symObjAddr: 0x377C, symBinAddr: 0x100004BB8, symSize: 0x40 }
  - { offsetInCU: 0x475EB, offset: 0x475EB, size: 0x8, addend: 0x0, symName: __ZN7tinyobj10material_tD1Ev, symObjAddr: 0x37BC, symBinAddr: 0x100004BF8, symSize: 0x2C }
  - { offsetInCU: 0x4761C, offset: 0x4761C, size: 0x8, addend: 0x0, symName: __ZN7tinyobj18MaterialFileReaderclERKNSt3__112basic_stringIcNS1_11char_traitsIcEENS1_9allocatorIcEEEEPNS1_6vectorINS_10material_tENS5_ISB_EEEEPNS1_3mapIS7_iNS1_4lessIS7_EENS5_INS1_4pairIS8_iEEEEEEPS7_SN_, symObjAddr: 0x37E8, symBinAddr: 0x100004C24, symSize: 0x5C0 }
  - { offsetInCU: 0x47775, offset: 0x47775, size: 0x8, addend: 0x0, symName: __ZNSt3__16vectorINS_12basic_stringIcNS_11char_traitsIcEENS_9allocatorIcEEEENS4_IS6_EEEC1B8ne180100Ev, symObjAddr: 0x3DA8, symBinAddr: 0x1000051E4, symSize: 0x2C }
  - { offsetInCU: 0x477C5, offset: 0x477C5, size: 0x8, addend: 0x0, symName: __ZNSt3__119basic_istringstreamIcNS_11char_traitsIcEENS_9allocatorIcEEEC1B8ne180100ERKNS_12basic_stringIcS2_S4_EEj, symObjAddr: 0x3DD4, symBinAddr: 0x100005210, symSize: 0xFC }
  - { offsetInCU: 0x4780D, offset: 0x4780D, size: 0x8, addend: 0x0, symName: __ZNKSt3__19basic_iosIcNS_11char_traitsIcEEEcvbB8ne180100Ev, symObjAddr: 0x4108, symBinAddr: 0x100005544, symSize: 0x2C }
  - { offsetInCU: 0x47833, offset: 0x47833, size: 0x8, addend: 0x0, symName: __ZNSt3__16vectorINS_12basic_stringIcNS_11char_traitsIcEENS_9allocatorIcEEEENS4_IS6_EEE9push_backB8ne180100ERKS6_, symObjAddr: 0x4134, symBinAddr: 0x100005570, symSize: 0x90 }
  - { offsetInCU: 0x47879, offset: 0x47879, size: 0x8, addend: 0x0, symName: __ZNKSt3__16vectorINS_12basic_stringIcNS_11char_traitsIcEENS_9allocatorIcEEEENS4_IS6_EEE4sizeB8ne180100Ev, symObjAddr: 0x41C4, symBinAddr: 0x100005600, symSize: 0x28 }
  - { offsetInCU: 0x4789F, offset: 0x4789F, size: 0x8, addend: 0x0, symName: __ZNSt3__16vectorINS_12basic_stringIcNS_11char_traitsIcEENS_9allocatorIcEEEENS4_IS6_EEEixB8ne180100Em, symObjAddr: 0x4314, symBinAddr: 0x100005750, symSize: 0x2C }
  - { offsetInCU: 0x47977, offset: 0x47977, size: 0x8, addend: 0x0, symName: __ZNSt3__114basic_ifstreamIcNS_11char_traitsIcEEEC1EPKcj, symObjAddr: 0x4340, symBinAddr: 0x10000577C, symSize: 0x16C }
  - { offsetInCU: 0x479C6, offset: 0x479C6, size: 0x8, addend: 0x0, symName: __ZNSt3__114basic_ifstreamIcNS_11char_traitsIcEEED1Ev, symObjAddr: 0x44AC, symBinAddr: 0x1000058E8, symSize: 0x40 }
  - { offsetInCU: 0x479F3, offset: 0x479F3, size: 0x8, addend: 0x0, symName: __ZNSt3__112basic_stringIcNS_11char_traitsIcEENS_9allocatorIcEEEpLB8ne180100ERKS5_, symObjAddr: 0x44EC, symBinAddr: 0x100005928, symSize: 0x2C }
  - { offsetInCU: 0x47A2D, offset: 0x47A2D, size: 0x8, addend: 0x0, symName: __ZNSt3__119basic_istringstreamIcNS_11char_traitsIcEENS_9allocatorIcEEED1Ev, symObjAddr: 0x4518, symBinAddr: 0x100005954, symSize: 0x40 }
  - { offsetInCU: 0x47A5A, offset: 0x47A5A, size: 0x8, addend: 0x0, symName: __ZNSt3__16vectorINS_12basic_stringIcNS_11char_traitsIcEENS_9allocatorIcEEEENS4_IS6_EEED1B8ne180100Ev, symObjAddr: 0x4558, symBinAddr: 0x100005994, symSize: 0x2C }
  - { offsetInCU: 0x47A8F, offset: 0x47A8F, size: 0x8, addend: 0x0, symName: __ZN7tinyobj20MaterialStreamReaderclERKNSt3__112basic_stringIcNS1_11char_traitsIcEENS1_9allocatorIcEEEEPNS1_6vectorINS_10material_tENS5_ISB_EEEEPNS1_3mapIS7_iNS1_4lessIS7_EENS5_INS1_4pairIS8_iEEEEEEPS7_SN_, symObjAddr: 0x4584, symBinAddr: 0x1000059C0, symSize: 0x150 }
  - { offsetInCU: 0x47B21, offset: 0x47B21, size: 0x8, addend: 0x0, symName: __ZNKSt3__19basic_iosIcNS_11char_traitsIcEEEntB8ne180100Ev, symObjAddr: 0x46D4, symBinAddr: 0x100005B10, symSize: 0x28 }
  - { offsetInCU: 0x47B47, offset: 0x47B47, size: 0x8, addend: 0x0, symName: __ZNSt3__16vectorIfNS_9allocatorIfEEE5clearB8ne180100Ev, symObjAddr: 0x4A50, symBinAddr: 0x100005E8C, symSize: 0x44 }
  - { offsetInCU: 0x47B7C, offset: 0x47B7C, size: 0x8, addend: 0x0, symName: __ZNSt3__16vectorIN7tinyobj7shape_tENS_9allocatorIS2_EEE5clearB8ne180100Ev, symObjAddr: 0x4A94, symBinAddr: 0x100005ED0, symSize: 0x44 }
  - { offsetInCU: 0x47BB1, offset: 0x47BB1, size: 0x8, addend: 0x0, symName: __ZNSt3__112basic_stringIcNS_11char_traitsIcEENS_9allocatorIcEEEpLB8ne180100Ec, symObjAddr: 0x4AD8, symBinAddr: 0x100005F14, symSize: 0x34 }
  - { offsetInCU: 0x47BE6, offset: 0x47BE6, size: 0x8, addend: 0x0, symName: __ZN7tinyobj18MaterialFileReaderC1ERKNSt3__112basic_stringIcNS1_11char_traitsIcEENS1_9allocatorIcEEEE, symObjAddr: 0x4B0C, symBinAddr: 0x100005F48, symSize: 0x34 }
  - { offsetInCU: 0x47C1F, offset: 0x47C1F, size: 0x8, addend: 0x0, symName: __ZN7tinyobj18MaterialFileReaderD1Ev, symObjAddr: 0x76A8, symBinAddr: 0x100008AE4, symSize: 0x2C }
  - { offsetInCU: 0x47C49, offset: 0x47C49, size: 0x8, addend: 0x0, symName: __ZNSt3__16vectorIfNS_9allocatorIfEEEC1B8ne180100Ev, symObjAddr: 0x76D4, symBinAddr: 0x100008B10, symSize: 0x2C }
  - { offsetInCU: 0x47C73, offset: 0x47C73, size: 0x8, addend: 0x0, symName: __ZNSt3__16vectorIN7tinyobj13skin_weight_tENS_9allocatorIS2_EEEC1B8ne180100Ev, symObjAddr: 0x7700, symBinAddr: 0x100008B3C, symSize: 0x2C }
  - { offsetInCU: 0x47C9D, offset: 0x47C9D, size: 0x8, addend: 0x0, symName: __ZNSt3__16vectorIN7tinyobj5tag_tENS_9allocatorIS2_EEEC1B8ne180100Ev, symObjAddr: 0x772C, symBinAddr: 0x100008B68, symSize: 0x2C }
  - { offsetInCU: 0x47CD6, offset: 0x47CD6, size: 0x8, addend: 0x0, symName: __ZN7tinyobj9PrimGroupC1Ev, symObjAddr: 0x7758, symBinAddr: 0x100008B94, symSize: 0x2C }
  - { offsetInCU: 0x47E27, offset: 0x47E27, size: 0x8, addend: 0x0, symName: __ZNSt3__13setINS_12basic_stringIcNS_11char_traitsIcEENS_9allocatorIcEEEENS_4lessIS6_EENS4_IS6_EEEC1B8ne180100Ev, symObjAddr: 0x7784, symBinAddr: 0x100008BC0, symSize: 0x2C }
  - { offsetInCU: 0x47E51, offset: 0x47E51, size: 0x8, addend: 0x0, symName: __ZNSt3__13mapINS_12basic_stringIcNS_11char_traitsIcEENS_9allocatorIcEEEEiNS_4lessIS6_EENS4_INS_4pairIKS6_iEEEEEC1B8ne180100Ev, symObjAddr: 0x77B0, symBinAddr: 0x100008BEC, symSize: 0x2C }
  - { offsetInCU: 0x47E80, offset: 0x47E80, size: 0x8, addend: 0x0, symName: __ZN7tinyobj7shape_tC1Ev, symObjAddr: 0x77DC, symBinAddr: 0x100008C18, symSize: 0x2C }
  - { offsetInCU: 0x47EAD, offset: 0x47EAD, size: 0x8, addend: 0x0, symName: __ZNSt3__16vectorIfNS_9allocatorIfEEE9push_backB8ne180100ERKf, symObjAddr: 0x7970, symBinAddr: 0x100008DAC, symSize: 0x90 }
  - { offsetInCU: 0x47EF8, offset: 0x47EF8, size: 0x8, addend: 0x0, symName: __ZN7tinyobj13skin_weight_tC1Ev, symObjAddr: 0x7A00, symBinAddr: 0x100008E3C, symSize: 0x2C }
  - { offsetInCU: 0x47F25, offset: 0x47F25, size: 0x8, addend: 0x0, symName: __ZNSt3__16vectorIN7tinyobj18joint_and_weight_tENS_9allocatorIS2_EEE9push_backB8ne180100ERKS2_, symObjAddr: 0x7A2C, symBinAddr: 0x100008E68, symSize: 0x90 }
  - { offsetInCU: 0x47F6B, offset: 0x47F6B, size: 0x8, addend: 0x0, symName: __ZNSt3__16vectorIN7tinyobj13skin_weight_tENS_9allocatorIS2_EEE9push_backB8ne180100ERKS2_, symObjAddr: 0x7ABC, symBinAddr: 0x100008EF8, symSize: 0x90 }
  - { offsetInCU: 0x47FB1, offset: 0x47FB1, size: 0x8, addend: 0x0, symName: __ZN7tinyobj13skin_weight_tD1Ev, symObjAddr: 0x7B4C, symBinAddr: 0x100008F88, symSize: 0x2C }
  - { offsetInCU: 0x47FE3, offset: 0x47FE3, size: 0x8, addend: 0x0, symName: __ZN7tinyobj8__line_tC1Ev, symObjAddr: 0x7B78, symBinAddr: 0x100008FB4, symSize: 0x2C }
  - { offsetInCU: 0x48010, offset: 0x48010, size: 0x8, addend: 0x0, symName: __ZN7tinyobj14vertex_index_tC1Ev, symObjAddr: 0x7BA4, symBinAddr: 0x100008FE0, symSize: 0x2C }
  - { offsetInCU: 0x4803A, offset: 0x4803A, size: 0x8, addend: 0x0, symName: __ZNKSt3__16vectorIfNS_9allocatorIfEEE4sizeB8ne180100Ev, symObjAddr: 0x7F00, symBinAddr: 0x10000933C, symSize: 0x28 }
  - { offsetInCU: 0x48060, offset: 0x48060, size: 0x8, addend: 0x0, symName: __ZNSt3__16vectorIN7tinyobj14vertex_index_tENS_9allocatorIS2_EEE9push_backB8ne180100ERKS2_, symObjAddr: 0x8048, symBinAddr: 0x100009484, symSize: 0x90 }
  - { offsetInCU: 0x480A6, offset: 0x480A6, size: 0x8, addend: 0x0, symName: __ZNSt3__16vectorIN7tinyobj8__line_tENS_9allocatorIS2_EEE9push_backB8ne180100ERKS2_, symObjAddr: 0x80D8, symBinAddr: 0x100009514, symSize: 0x90 }
  - { offsetInCU: 0x480EC, offset: 0x480EC, size: 0x8, addend: 0x0, symName: __ZN7tinyobj8__line_tD1Ev, symObjAddr: 0x8168, symBinAddr: 0x1000095A4, symSize: 0x2C }
  - { offsetInCU: 0x4811E, offset: 0x4811E, size: 0x8, addend: 0x0, symName: __ZN7tinyobj10__points_tC1Ev, symObjAddr: 0x8194, symBinAddr: 0x1000095D0, symSize: 0x2C }
  - { offsetInCU: 0x4814B, offset: 0x4814B, size: 0x8, addend: 0x0, symName: __ZNSt3__16vectorIN7tinyobj10__points_tENS_9allocatorIS2_EEE9push_backB8ne180100ERKS2_, symObjAddr: 0x81C0, symBinAddr: 0x1000095FC, symSize: 0x90 }
  - { offsetInCU: 0x48191, offset: 0x48191, size: 0x8, addend: 0x0, symName: __ZN7tinyobj10__points_tD1Ev, symObjAddr: 0x8250, symBinAddr: 0x10000968C, symSize: 0x2C }
  - { offsetInCU: 0x481BE, offset: 0x481BE, size: 0x8, addend: 0x0, symName: __ZN7tinyobj6face_tC1Ev, symObjAddr: 0x827C, symBinAddr: 0x1000096B8, symSize: 0x2C }
  - { offsetInCU: 0x481E8, offset: 0x481E8, size: 0x8, addend: 0x0, symName: __ZNSt3__16vectorIN7tinyobj14vertex_index_tENS_9allocatorIS2_EEE7reserveEm, symObjAddr: 0x82A8, symBinAddr: 0x1000096E4, symSize: 0xE8 }
  - { offsetInCU: 0x48244, offset: 0x48244, size: 0x8, addend: 0x0, symName: __ZNSt3__16vectorIN7tinyobj6face_tENS_9allocatorIS2_EEE9push_backB8ne180100ERKS2_, symObjAddr: 0x8390, symBinAddr: 0x1000097CC, symSize: 0x90 }
  - { offsetInCU: 0x4828A, offset: 0x4828A, size: 0x8, addend: 0x0, symName: __ZN7tinyobj6face_tD1Ev, symObjAddr: 0x8420, symBinAddr: 0x10000985C, symSize: 0x2C }
  - { offsetInCU: 0x482B7, offset: 0x482B7, size: 0x8, addend: 0x0, symName: __ZNSt3__13mapINS_12basic_stringIcNS_11char_traitsIcEENS_9allocatorIcEEEEiNS_4lessIS6_EENS4_INS_4pairIKS6_iEEEEE4findB8ne180100ERSA_, symObjAddr: 0x844C, symBinAddr: 0x100009888, symSize: 0x40 }
  - { offsetInCU: 0x482EC, offset: 0x482EC, size: 0x8, addend: 0x0, symName: __ZNSt3__120__map_const_iteratorINS_21__tree_const_iteratorINS_12__value_typeINS_12basic_stringIcNS_11char_traitsIcEENS_9allocatorIcEEEEiEEPNS_11__tree_nodeIS9_PvEElEEEC1B8ne180100ENS_14__map_iteratorINS_15__tree_iteratorIS9_SD_lEEEE, symObjAddr: 0x848C, symBinAddr: 0x1000098C8, symSize: 0x34 }
  - { offsetInCU: 0x48325, offset: 0x48325, size: 0x8, addend: 0x0, symName: __ZNSt3__13mapINS_12basic_stringIcNS_11char_traitsIcEENS_9allocatorIcEEEEiNS_4lessIS6_EENS4_INS_4pairIKS6_iEEEEE3endB8ne180100Ev, symObjAddr: 0x84F0, symBinAddr: 0x10000992C, symSize: 0x38 }
  - { offsetInCU: 0x4834B, offset: 0x4834B, size: 0x8, addend: 0x0, symName: __ZNKSt3__120__map_const_iteratorINS_21__tree_const_iteratorINS_12__value_typeINS_12basic_stringIcNS_11char_traitsIcEENS_9allocatorIcEEEEiEEPNS_11__tree_nodeIS9_PvEElEEEptB8ne180100Ev, symObjAddr: 0x8528, symBinAddr: 0x100009964, symSize: 0x2C }
  - { offsetInCU: 0x48371, offset: 0x48371, size: 0x8, addend: 0x0, symName: __ZNSt3__16vectorIN7tinyobj6face_tENS_9allocatorIS2_EEE5clearB8ne180100Ev, symObjAddr: 0x9E9C, symBinAddr: 0x10000B2D8, symSize: 0x44 }
  - { offsetInCU: 0x483A6, offset: 0x483A6, size: 0x8, addend: 0x0, symName: __ZNKSt3__16vectorINS_12basic_stringIcNS_11char_traitsIcEENS_9allocatorIcEEEENS4_IS6_EEE5emptyB8ne180100Ev, symObjAddr: 0xA038, symBinAddr: 0x10000B474, symSize: 0x28 }
  - { offsetInCU: 0x483CC, offset: 0x483CC, size: 0x8, addend: 0x0, symName: __ZNKSt3__13setINS_12basic_stringIcNS_11char_traitsIcEENS_9allocatorIcEEEENS_4lessIS6_EENS4_IS6_EEE5countB8ne180100ERKS6_, symObjAddr: 0xA060, symBinAddr: 0x10000B49C, symSize: 0x2C }
  - { offsetInCU: 0x48401, offset: 0x48401, size: 0x8, addend: 0x0, symName: __ZNSt3__13setINS_12basic_stringIcNS_11char_traitsIcEENS_9allocatorIcEEEENS_4lessIS6_EENS4_IS6_EEE6insertB8ne180100ERKS6_, symObjAddr: 0xA08C, symBinAddr: 0x10000B4C8, symSize: 0x4C }
  - { offsetInCU: 0x48436, offset: 0x48436, size: 0x8, addend: 0x0, symName: __ZNKSt3__16vectorIN7tinyobj7index_tENS_9allocatorIS2_EEE4sizeB8ne180100Ev, symObjAddr: 0xA0D8, symBinAddr: 0x10000B514, symSize: 0x28 }
  - { offsetInCU: 0x4845C, offset: 0x4845C, size: 0x8, addend: 0x0, symName: __ZNSt3__16vectorIN7tinyobj7shape_tENS_9allocatorIS2_EEE9push_backB8ne180100ERKS2_, symObjAddr: 0xA100, symBinAddr: 0x10000B53C, symSize: 0x90 }
  - { offsetInCU: 0x484A8, offset: 0x484A8, size: 0x8, addend: 0x0, symName: __ZN7tinyobj7shape_taSEOS0_, symObjAddr: 0xA190, symBinAddr: 0x10000B5CC, symSize: 0x70 }
  - { offsetInCU: 0x484DA, offset: 0x484DA, size: 0x8, addend: 0x0, symName: __ZN7tinyobj7shape_tD1Ev, symObjAddr: 0xA200, symBinAddr: 0x10000B63C, symSize: 0x2C }
  - { offsetInCU: 0x48507, offset: 0x48507, size: 0x8, addend: 0x0, symName: __ZN7tinyobj9PrimGroup5clearEv, symObjAddr: 0xA22C, symBinAddr: 0x10000B668, symSize: 0x40 }
  - { offsetInCU: 0x48532, offset: 0x48532, size: 0x8, addend: 0x0, symName: __ZN7tinyobj5tag_tC1Ev, symObjAddr: 0xA26C, symBinAddr: 0x10000B6A8, symSize: 0x2C }
  - { offsetInCU: 0x4855F, offset: 0x4855F, size: 0x8, addend: 0x0, symName: __ZNSt3__16vectorIiNS_9allocatorIiEEE6resizeEm, symObjAddr: 0xA438, symBinAddr: 0x10000B874, symSize: 0x94 }
  - { offsetInCU: 0x485A5, offset: 0x485A5, size: 0x8, addend: 0x0, symName: __ZNSt3__16vectorIiNS_9allocatorIiEEEixB8ne180100Em, symObjAddr: 0xA4CC, symBinAddr: 0x10000B908, symSize: 0x24 }
  - { offsetInCU: 0x485DC, offset: 0x485DC, size: 0x8, addend: 0x0, symName: __ZNSt3__16vectorIfNS_9allocatorIfEEE6resizeEm, symObjAddr: 0xA4F0, symBinAddr: 0x10000B92C, symSize: 0x94 }
  - { offsetInCU: 0x48622, offset: 0x48622, size: 0x8, addend: 0x0, symName: __ZNSt3__16vectorIfNS_9allocatorIfEEEixB8ne180100Em, symObjAddr: 0xA584, symBinAddr: 0x10000B9C0, symSize: 0x24 }
  - { offsetInCU: 0x48659, offset: 0x48659, size: 0x8, addend: 0x0, symName: __ZNSt3__16vectorINS_12basic_stringIcNS_11char_traitsIcEENS_9allocatorIcEEEENS4_IS6_EEE6resizeEm, symObjAddr: 0xA5A8, symBinAddr: 0x10000B9E4, symSize: 0x9C }
  - { offsetInCU: 0x4869F, offset: 0x4869F, size: 0x8, addend: 0x0, symName: __ZNSt3__16vectorIN7tinyobj5tag_tENS_9allocatorIS2_EEE9push_backB8ne180100ERKS2_, symObjAddr: 0xA644, symBinAddr: 0x10000BA80, symSize: 0x90 }
  - { offsetInCU: 0x486E5, offset: 0x486E5, size: 0x8, addend: 0x0, symName: __ZN7tinyobj5tag_tD1Ev, symObjAddr: 0xA6D4, symBinAddr: 0x10000BB10, symSize: 0x2C }
  - { offsetInCU: 0x48712, offset: 0x48712, size: 0x8, addend: 0x0, symName: __ZNSt3__16vectorIfNS_9allocatorIfEEE4swapERS3_, symObjAddr: 0xA700, symBinAddr: 0x10000BB3C, symSize: 0x84 }
  - { offsetInCU: 0x48749, offset: 0x48749, size: 0x8, addend: 0x0, symName: __ZNSt3__16vectorIN7tinyobj13skin_weight_tENS_9allocatorIS2_EEE4swapERS5_, symObjAddr: 0xA784, symBinAddr: 0x10000BBC0, symSize: 0x84 }
  - { offsetInCU: 0x48780, offset: 0x48780, size: 0x8, addend: 0x0, symName: __ZNSt3__13mapINS_12basic_stringIcNS_11char_traitsIcEENS_9allocatorIcEEEEiNS_4lessIS6_EENS4_INS_4pairIKS6_iEEEEED1B8ne180100Ev, symObjAddr: 0xA808, symBinAddr: 0x10000BC44, symSize: 0x2C }
  - { offsetInCU: 0x487AA, offset: 0x487AA, size: 0x8, addend: 0x0, symName: __ZNSt3__13setINS_12basic_stringIcNS_11char_traitsIcEENS_9allocatorIcEEEENS_4lessIS6_EENS4_IS6_EEED1B8ne180100Ev, symObjAddr: 0xA834, symBinAddr: 0x10000BC70, symSize: 0x2C }
  - { offsetInCU: 0x487D4, offset: 0x487D4, size: 0x8, addend: 0x0, symName: __ZN7tinyobj9PrimGroupD1Ev, symObjAddr: 0xA860, symBinAddr: 0x10000BC9C, symSize: 0x2C }
  - { offsetInCU: 0x48801, offset: 0x48801, size: 0x8, addend: 0x0, symName: __ZNSt3__16vectorIN7tinyobj5tag_tENS_9allocatorIS2_EEED1B8ne180100Ev, symObjAddr: 0xA88C, symBinAddr: 0x10000BCC8, symSize: 0x2C }
  - { offsetInCU: 0x4882B, offset: 0x4882B, size: 0x8, addend: 0x0, symName: __ZNSt3__16vectorIN7tinyobj13skin_weight_tENS_9allocatorIS2_EEED1B8ne180100Ev, symObjAddr: 0xA8B8, symBinAddr: 0x10000BCF4, symSize: 0x2C }
  - { offsetInCU: 0x48855, offset: 0x48855, size: 0x8, addend: 0x0, symName: __ZNSt3__16vectorIfNS_9allocatorIfEEED1B8ne180100Ev, symObjAddr: 0xA8E4, symBinAddr: 0x10000BD20, symSize: 0x2C }
  - { offsetInCU: 0x4887F, offset: 0x4887F, size: 0x8, addend: 0x0, symName: __ZNSt3__16vectorIN7tinyobj7index_tENS_9allocatorIS2_EEEC1B8ne180100Ev, symObjAddr: 0xBC2C, symBinAddr: 0x10000D068, symSize: 0x2C }
  - { offsetInCU: 0x488A9, offset: 0x488A9, size: 0x8, addend: 0x0, symName: __ZNSt3__16vectorIN7tinyobj10material_tENS_9allocatorIS2_EEEC1B8ne180100Ev, symObjAddr: 0xBC58, symBinAddr: 0x10000D094, symSize: 0x2C }
  - { offsetInCU: 0x488D3, offset: 0x488D3, size: 0x8, addend: 0x0, symName: __ZNSt3__16vectorINS_12basic_stringIcNS_11char_traitsIcEENS_9allocatorIcEEEENS4_IS6_EEE7reserveEm, symObjAddr: 0xBC84, symBinAddr: 0x10000D0C0, symSize: 0xE8 }
  - { offsetInCU: 0x4892F, offset: 0x4892F, size: 0x8, addend: 0x0, symName: __ZNSt3__16vectorIPKcNS_9allocatorIS2_EEEC1B8ne180100Ev, symObjAddr: 0xBD6C, symBinAddr: 0x10000D1A8, symSize: 0x2C }
  - { offsetInCU: 0x48959, offset: 0x48959, size: 0x8, addend: 0x0, symName: __ZNSt3__16vectorIN7tinyobj7index_tENS_9allocatorIS2_EEE5clearB8ne180100Ev, symObjAddr: 0xBD98, symBinAddr: 0x10000D1D4, symSize: 0x44 }
  - { offsetInCU: 0x4898E, offset: 0x4898E, size: 0x8, addend: 0x0, symName: __ZNSt3__16vectorIN7tinyobj7index_tENS_9allocatorIS2_EEE9push_backB8ne180100ERKS2_, symObjAddr: 0xBFC4, symBinAddr: 0x10000D400, symSize: 0x90 }
  - { offsetInCU: 0x489D4, offset: 0x489D4, size: 0x8, addend: 0x0, symName: __ZNSt3__16vectorIN7tinyobj7index_tENS_9allocatorIS2_EEE2atEm, symObjAddr: 0xC054, symBinAddr: 0x10000D490, symSize: 0x68 }
  - { offsetInCU: 0x48A0B, offset: 0x48A0B, size: 0x8, addend: 0x0, symName: __ZNSt3__16vectorIN7tinyobj10material_tENS_9allocatorIS2_EEE2atEm, symObjAddr: 0xC0BC, symBinAddr: 0x10000D4F8, symSize: 0x68 }
  - { offsetInCU: 0x48A42, offset: 0x48A42, size: 0x8, addend: 0x0, symName: __ZNSt3__16vectorINS_12basic_stringIcNS_11char_traitsIcEENS_9allocatorIcEEEENS4_IS6_EEE5clearB8ne180100Ev, symObjAddr: 0xC124, symBinAddr: 0x10000D560, symSize: 0x44 }
  - { offsetInCU: 0x48A77, offset: 0x48A77, size: 0x8, addend: 0x0, symName: __ZNSt3__16vectorIPKcNS_9allocatorIS2_EEE6resizeEm, symObjAddr: 0xC168, symBinAddr: 0x10000D5A4, symSize: 0x94 }
  - { offsetInCU: 0x48ABD, offset: 0x48ABD, size: 0x8, addend: 0x0, symName: __ZNKSt3__16vectorIPKcNS_9allocatorIS2_EEE4sizeB8ne180100Ev, symObjAddr: 0xC1FC, symBinAddr: 0x10000D638, symSize: 0x28 }
  - { offsetInCU: 0x48AE3, offset: 0x48AE3, size: 0x8, addend: 0x0, symName: __ZNSt3__16vectorIPKcNS_9allocatorIS2_EEEixB8ne180100Em, symObjAddr: 0xC224, symBinAddr: 0x10000D660, symSize: 0x24 }
  - { offsetInCU: 0x48B1A, offset: 0x48B1A, size: 0x8, addend: 0x0, symName: __ZNSt3__16vectorIPKcNS_9allocatorIS2_EEE2atEm, symObjAddr: 0xC248, symBinAddr: 0x10000D684, symSize: 0x60 }
  - { offsetInCU: 0x48B51, offset: 0x48B51, size: 0x8, addend: 0x0, symName: __ZNSt3__16vectorIPKcNS_9allocatorIS2_EEED1B8ne180100Ev, symObjAddr: 0xC2A8, symBinAddr: 0x10000D6E4, symSize: 0x2C }
  - { offsetInCU: 0x48B7B, offset: 0x48B7B, size: 0x8, addend: 0x0, symName: __ZNSt3__16vectorIN7tinyobj10material_tENS_9allocatorIS2_EEED1B8ne180100Ev, symObjAddr: 0xC2D4, symBinAddr: 0x10000D710, symSize: 0x2C }
  - { offsetInCU: 0x48BA5, offset: 0x48BA5, size: 0x8, addend: 0x0, symName: __ZNSt3__16vectorIN7tinyobj7index_tENS_9allocatorIS2_EEED1B8ne180100Ev, symObjAddr: 0xC300, symBinAddr: 0x10000D73C, symSize: 0x2C }
  - { offsetInCU: 0x48C03, offset: 0x48C03, size: 0x8, addend: 0x0, symName: __ZN7tinyobj9ObjReader13ParseFromFileERKNSt3__112basic_stringIcNS1_11char_traitsIcEENS1_9allocatorIcEEEERKNS_15ObjReaderConfigE, symObjAddr: 0xC32C, symBinAddr: 0x10000D768, symSize: 0x19C }
  - { offsetInCU: 0x48C6D, offset: 0x48C6D, size: 0x8, addend: 0x0, symName: __ZNKSt3__112basic_stringIcNS_11char_traitsIcEENS_9allocatorIcEEE12find_last_ofB8ne180100EPKcm, symObjAddr: 0xC4C8, symBinAddr: 0x10000D904, symSize: 0x74 }
  - { offsetInCU: 0x48CB3, offset: 0x48CB3, size: 0x8, addend: 0x0, symName: __ZN7tinyobj9ObjReader15ParseFromStringERKNSt3__112basic_stringIcNS1_11char_traitsIcEENS1_9allocatorIcEEEES9_RKNS_15ObjReaderConfigE, symObjAddr: 0xC53C, symBinAddr: 0x10000D978, symSize: 0x1BC }
  - { offsetInCU: 0x48D56, offset: 0x48D56, size: 0x8, addend: 0x0, symName: __ZNSt3__115basic_stringbufIcNS_11char_traitsIcEENS_9allocatorIcEEEC1B8ne180100ERKNS_12basic_stringIcS2_S4_EEj, symObjAddr: 0xC6F8, symBinAddr: 0x10000DB34, symSize: 0x3C }
  - { offsetInCU: 0x48D9E, offset: 0x48D9E, size: 0x8, addend: 0x0, symName: __ZNSt3__113basic_istreamIcNS_11char_traitsIcEEEC1B8ne180100EPNS_15basic_streambufIcS2_EE, symObjAddr: 0xC734, symBinAddr: 0x10000DB70, symSize: 0xA0 }
  - { offsetInCU: 0x48DD6, offset: 0x48DD6, size: 0x8, addend: 0x0, symName: __ZN7tinyobj20MaterialStreamReaderC1ERNSt3__113basic_istreamIcNS1_11char_traitsIcEEEE, symObjAddr: 0xC7D4, symBinAddr: 0x10000DC10, symSize: 0x34 }
  - { offsetInCU: 0x48E0F, offset: 0x48E0F, size: 0x8, addend: 0x0, symName: __ZN7tinyobj20MaterialStreamReaderD1Ev, symObjAddr: 0xC808, symBinAddr: 0x10000DC44, symSize: 0x2C }
  - { offsetInCU: 0x48E3E, offset: 0x48E3E, size: 0x8, addend: 0x0, symName: __ZNSt3__115basic_stringbufIcNS_11char_traitsIcEENS_9allocatorIcEEED1Ev, symObjAddr: 0xC834, symBinAddr: 0x10000DC70, symSize: 0x2C }
  - { offsetInCU: 0x48E6B, offset: 0x48E6B, size: 0x8, addend: 0x0, symName: _main, symObjAddr: 0xC860, symBinAddr: 0x10000DC9C, symSize: 0x1078 }
  - { offsetInCU: 0x4910E, offset: 0x4910E, size: 0x8, addend: 0x0, symName: __ZNSt3__113basic_ostreamIcNS_11char_traitsIcEEElsB8ne180100EPFRS3_S4_E, symObjAddr: 0xD8D8, symBinAddr: 0x10000ED14, symSize: 0x2C }
  - { offsetInCU: 0x49141, offset: 0x49141, size: 0x8, addend: 0x0, symName: __Z12checkGLErrorRKNSt3__112basic_stringIcNS_11char_traitsIcEENS_9allocatorIcEEEE, symObjAddr: 0xD95C, symBinAddr: 0x10000ED98, symSize: 0x6C }
  - { offsetInCU: 0x4917B, offset: 0x4917B, size: 0x8, addend: 0x0, symName: __ZN7tinyobj8attrib_tC1Ev, symObjAddr: 0xD9C8, symBinAddr: 0x10000EE04, symSize: 0x2C }
  - { offsetInCU: 0x491A5, offset: 0x491A5, size: 0x8, addend: 0x0, symName: __ZNSt3__16vectorIN7tinyobj7shape_tENS_9allocatorIS2_EEEC1B8ne180100Ev, symObjAddr: 0xD9F4, symBinAddr: 0x10000EE30, symSize: 0x2C }
  - { offsetInCU: 0x491CF, offset: 0x491CF, size: 0x8, addend: 0x0, symName: __ZNSt3__16vectorIjNS_9allocatorIjEEEC1B8ne180100Ev, symObjAddr: 0xDA20, symBinAddr: 0x10000EE5C, symSize: 0x2C }
  - { offsetInCU: 0x491F9, offset: 0x491F9, size: 0x8, addend: 0x0, symName: __ZNKSt3__16vectorIN7tinyobj7shape_tENS_9allocatorIS2_EEE4sizeB8ne180100Ev, symObjAddr: 0xDA4C, symBinAddr: 0x10000EE88, symSize: 0x28 }
  - { offsetInCU: 0x4921F, offset: 0x4921F, size: 0x8, addend: 0x0, symName: __ZNSt3__16vectorIN7tinyobj7shape_tENS_9allocatorIS2_EEEixB8ne180100Em, symObjAddr: 0xDA74, symBinAddr: 0x10000EEB0, symSize: 0x2C }
  - { offsetInCU: 0x49256, offset: 0x49256, size: 0x8, addend: 0x0, symName: __ZNKSt3__16vectorIjNS_9allocatorIjEEE4sizeB8ne180100Ev, symObjAddr: 0xDAA0, symBinAddr: 0x10000EEDC, symSize: 0x28 }
  - { offsetInCU: 0x4927C, offset: 0x4927C, size: 0x8, addend: 0x0, symName: __ZNSt3__16vectorIjNS_9allocatorIjEEEixB8ne180100Em, symObjAddr: 0xDAC8, symBinAddr: 0x10000EF04, symSize: 0x24 }
  - { offsetInCU: 0x492B3, offset: 0x492B3, size: 0x8, addend: 0x0, symName: __ZNSt3__16vectorIN7tinyobj7index_tENS_9allocatorIS2_EEEixB8ne180100Em, symObjAddr: 0xDAEC, symBinAddr: 0x10000EF28, symSize: 0x2C }
  - { offsetInCU: 0x492EA, offset: 0x492EA, size: 0x8, addend: 0x0, symName: __ZNSt3__16vectorIjNS_9allocatorIjEEE9push_backB8ne180100EOj, symObjAddr: 0xDB18, symBinAddr: 0x10000EF54, symSize: 0x90 }
  - { offsetInCU: 0x49330, offset: 0x49330, size: 0x8, addend: 0x0, symName: __ZNSt3__16vectorIfNS_9allocatorIfEEE4dataB8ne180100Ev, symObjAddr: 0xDBA8, symBinAddr: 0x10000EFE4, symSize: 0x28 }
  - { offsetInCU: 0x49356, offset: 0x49356, size: 0x8, addend: 0x0, symName: __ZNSt3__16vectorIjNS_9allocatorIjEEE4dataB8ne180100Ev, symObjAddr: 0xDBD0, symBinAddr: 0x10000F00C, symSize: 0x28 }
  - { offsetInCU: 0x4937B, offset: 0x4937B, size: 0x8, addend: 0x0, symName: __Z12processInputP10GLFWwindow, symObjAddr: 0xDBF8, symBinAddr: 0x10000F034, symSize: 0x138 }
  - { offsetInCU: 0x493A6, offset: 0x493A6, size: 0x8, addend: 0x0, symName: __ZN3glm3vecILi3EfLNS_9qualifierE0EEC1Efff, symObjAddr: 0xE614, symBinAddr: 0x10000FA50, symSize: 0x44 }
  - { offsetInCU: 0x493FC, offset: 0x493FC, size: 0x8, addend: 0x0, symName: __ZNSt3__16vectorIjNS_9allocatorIjEEED1B8ne180100Ev, symObjAddr: 0xE728, symBinAddr: 0x10000FB64, symSize: 0x2C }
  - { offsetInCU: 0x49426, offset: 0x49426, size: 0x8, addend: 0x0, symName: __ZNSt3__16vectorIN7tinyobj7shape_tENS_9allocatorIS2_EEED1B8ne180100Ev, symObjAddr: 0xE754, symBinAddr: 0x10000FB90, symSize: 0x2C }
  - { offsetInCU: 0x49450, offset: 0x49450, size: 0x8, addend: 0x0, symName: __ZN7tinyobj8attrib_tD1Ev, symObjAddr: 0xE780, symBinAddr: 0x10000FBBC, symSize: 0x2C }
  - { offsetInCU: 0x4947D, offset: 0x4947D, size: 0x8, addend: 0x0, symName: __ZN7tinyobj18MaterialFileReaderD0Ev, symObjAddr: 0xE7AC, symBinAddr: 0x10000FBE8, symSize: 0x30 }
  - { offsetInCU: 0x494A7, offset: 0x494A7, size: 0x8, addend: 0x0, symName: __ZN7tinyobj20MaterialStreamReaderD0Ev, symObjAddr: 0xE7DC, symBinAddr: 0x10000FC18, symSize: 0x30 }
  - { offsetInCU: 0x494D1, offset: 0x494D1, size: 0x8, addend: 0x0, symName: __ZNSt3__112basic_stringIcNS_11char_traitsIcEENS_9allocatorIcEEEC1B8ne180100IPKcLi0EEET_S9_, symObjAddr: 0xEEE8, symBinAddr: 0x100010324, symSize: 0x3C }
  - { offsetInCU: 0x49528, offset: 0x49528, size: 0x8, addend: 0x0, symName: __ZNSt3__112basic_stringIcNS_11char_traitsIcEENS_9allocatorIcEEEC2B8ne180100IPKcLi0EEET_S9_, symObjAddr: 0xEF24, symBinAddr: 0x100010360, symSize: 0x4C }
  - { offsetInCU: 0x49585, offset: 0x49585, size: 0x8, addend: 0x0, symName: __ZNSt3__117__compressed_pairINS_12basic_stringIcNS_11char_traitsIcEENS_9allocatorIcEEE5__repES5_EC1B8ne180100INS_18__default_init_tagESA_EEOT_OT0_, symObjAddr: 0xEF70, symBinAddr: 0x1000103AC, symSize: 0x3C }
  - { offsetInCU: 0x495DD, offset: 0x495DD, size: 0x8, addend: 0x0, symName: __ZNSt3__112basic_stringIcNS_11char_traitsIcEENS_9allocatorIcEEE6__initIPKcLi0EEEvT_S9_, symObjAddr: 0xEFAC, symBinAddr: 0x1000103E8, symSize: 0x54 }
  - { offsetInCU: 0x49641, offset: 0x49641, size: 0x8, addend: 0x0, symName: __ZNSt3__117__compressed_pairINS_12basic_stringIcNS_11char_traitsIcEENS_9allocatorIcEEE5__repES5_EC2B8ne180100INS_18__default_init_tagESA_EEOT_OT0_, symObjAddr: 0xF000, symBinAddr: 0x10001043C, symSize: 0x3C }
  - { offsetInCU: 0x49699, offset: 0x49699, size: 0x8, addend: 0x0, symName: __ZNSt3__122__compressed_pair_elemINS_12basic_stringIcNS_11char_traitsIcEENS_9allocatorIcEEE5__repELi0ELb0EEC2B8ne180100ENS_18__default_init_tagE, symObjAddr: 0xF03C, symBinAddr: 0x100010478, symSize: 0x14 }
  - { offsetInCU: 0x496CE, offset: 0x496CE, size: 0x8, addend: 0x0, symName: __ZNSt3__122__compressed_pair_elemINS_9allocatorIcEELi1ELb1EEC2B8ne180100ENS_18__default_init_tagE, symObjAddr: 0xF050, symBinAddr: 0x10001048C, symSize: 0x2C }
  - { offsetInCU: 0x49703, offset: 0x49703, size: 0x8, addend: 0x0, symName: __ZNSt3__19allocatorIcEC2B8ne180100Ev, symObjAddr: 0xF07C, symBinAddr: 0x1000104B8, symSize: 0x2C }
  - { offsetInCU: 0x4972D, offset: 0x4972D, size: 0x8, addend: 0x0, symName: __ZNSt3__116__non_trivial_ifILb1ENS_9allocatorIcEEEC2B8ne180100Ev, symObjAddr: 0xF0A8, symBinAddr: 0x1000104E4, symSize: 0x14 }
  - { offsetInCU: 0x49757, offset: 0x49757, size: 0x8, addend: 0x0, symName: __ZNSt3__112basic_stringIcNS_11char_traitsIcEENS_9allocatorIcEEE16__init_with_sizeB8ne180100IPKcS8_EEvT_T0_m, symObjAddr: 0xF0E8, symBinAddr: 0x100010524, symSize: 0x150 }
  - { offsetInCU: 0x497EA, offset: 0x497EA, size: 0x8, addend: 0x0, symName: __ZNKSt3__112basic_stringIcNS_11char_traitsIcEENS_9allocatorIcEEE8max_sizeB8ne180100Ev, symObjAddr: 0xF258, symBinAddr: 0x100010694, symSize: 0xAC }
  - { offsetInCU: 0x4983C, offset: 0x4983C, size: 0x8, addend: 0x0, symName: __ZNKSt3__112basic_stringIcNS_11char_traitsIcEENS_9allocatorIcEEE20__throw_length_errorB8ne180100Ev, symObjAddr: 0xF304, symBinAddr: 0x100010740, symSize: 0x1C }
  - { offsetInCU: 0x49862, offset: 0x49862, size: 0x8, addend: 0x0, symName: __ZNSt3__112basic_stringIcNS_11char_traitsIcEENS_9allocatorIcEEE13__fits_in_ssoB8ne180100Em, symObjAddr: 0xF320, symBinAddr: 0x10001075C, symSize: 0x20 }
  - { offsetInCU: 0x49886, offset: 0x49886, size: 0x8, addend: 0x0, symName: __ZNSt3__112basic_stringIcNS_11char_traitsIcEENS_9allocatorIcEEE16__set_short_sizeB8ne180100Em, symObjAddr: 0xF340, symBinAddr: 0x10001077C, symSize: 0x78 }
  - { offsetInCU: 0x498BB, offset: 0x498BB, size: 0x8, addend: 0x0, symName: __ZNSt3__112basic_stringIcNS_11char_traitsIcEENS_9allocatorIcEEE19__get_short_pointerB8ne180100Ev, symObjAddr: 0xF3B8, symBinAddr: 0x1000107F4, symSize: 0x28 }
  - { offsetInCU: 0x498E1, offset: 0x498E1, size: 0x8, addend: 0x0, symName: __ZNSt3__112basic_stringIcNS_11char_traitsIcEENS_9allocatorIcEEE7__allocB8ne180100Ev, symObjAddr: 0xF420, symBinAddr: 0x10001085C, symSize: 0x24 }
  - { offsetInCU: 0x49907, offset: 0x49907, size: 0x8, addend: 0x0, symName: __ZNSt3__112basic_stringIcNS_11char_traitsIcEENS_9allocatorIcEEE11__recommendB8ne180100Em, symObjAddr: 0xF444, symBinAddr: 0x100010880, symSize: 0x84 }
  - { offsetInCU: 0x4993A, offset: 0x4993A, size: 0x8, addend: 0x0, symName: __ZNSt3__112basic_stringIcNS_11char_traitsIcEENS_9allocatorIcEEE16__begin_lifetimeB8ne180100EPcm, symObjAddr: 0xF4C8, symBinAddr: 0x100010904, symSize: 0x14 }
  - { offsetInCU: 0x4996D, offset: 0x4996D, size: 0x8, addend: 0x0, symName: __ZNSt3__112basic_stringIcNS_11char_traitsIcEENS_9allocatorIcEEE18__set_long_pointerB8ne180100EPc, symObjAddr: 0xF4DC, symBinAddr: 0x100010918, symSize: 0x38 }
  - { offsetInCU: 0x499A2, offset: 0x499A2, size: 0x8, addend: 0x0, symName: __ZNSt3__112basic_stringIcNS_11char_traitsIcEENS_9allocatorIcEEE14__set_long_capB8ne180100Em, symObjAddr: 0xF514, symBinAddr: 0x100010950, symSize: 0x70 }
  - { offsetInCU: 0x499D7, offset: 0x499D7, size: 0x8, addend: 0x0, symName: __ZNSt3__112basic_stringIcNS_11char_traitsIcEENS_9allocatorIcEEE15__set_long_sizeB8ne180100Em, symObjAddr: 0xF584, symBinAddr: 0x1000109C0, symSize: 0x38 }
  - { offsetInCU: 0x49A0C, offset: 0x49A0C, size: 0x8, addend: 0x0, symName: __ZNSt3__111char_traitsIcE6assignB8ne180100ERcRKc, symObjAddr: 0xF5BC, symBinAddr: 0x1000109F8, symSize: 0x24 }
  - { offsetInCU: 0x49A3D, offset: 0x49A3D, size: 0x8, addend: 0x0, symName: __ZNKSt3__112basic_stringIcNS_11char_traitsIcEENS_9allocatorIcEEE14__annotate_newB8ne180100Em, symObjAddr: 0xF5E0, symBinAddr: 0x100010A1C, symSize: 0x14 }
  - { offsetInCU: 0x49A7D, offset: 0x49A7D, size: 0x8, addend: 0x0, symName: __ZNSt3__116allocator_traitsINS_9allocatorIcEEE8max_sizeB8ne180100IS2_vEEmRKS2_, symObjAddr: 0xF5F4, symBinAddr: 0x100010A30, symSize: 0x24 }
  - { offsetInCU: 0x49AAB, offset: 0x49AAB, size: 0x8, addend: 0x0, symName: __ZNKSt3__112basic_stringIcNS_11char_traitsIcEENS_9allocatorIcEEE7__allocB8ne180100Ev, symObjAddr: 0xF618, symBinAddr: 0x100010A54, symSize: 0x24 }
  - { offsetInCU: 0x49AD1, offset: 0x49AD1, size: 0x8, addend: 0x0, symName: __ZNSt3__114numeric_limitsImE3maxB8ne180100Ev, symObjAddr: 0xF63C, symBinAddr: 0x100010A78, symSize: 0x14 }
  - { offsetInCU: 0x49AE5, offset: 0x49AE5, size: 0x8, addend: 0x0, symName: __ZNKSt3__19allocatorIcE8max_sizeB8ne180100Ev, symObjAddr: 0xF650, symBinAddr: 0x100010A8C, symSize: 0x14 }
  - { offsetInCU: 0x49B0B, offset: 0x49B0B, size: 0x8, addend: 0x0, symName: __ZNKSt3__117__compressed_pairINS_12basic_stringIcNS_11char_traitsIcEENS_9allocatorIcEEE5__repES5_E6secondB8ne180100Ev, symObjAddr: 0xF664, symBinAddr: 0x100010AA0, symSize: 0x24 }
  - { offsetInCU: 0x49B31, offset: 0x49B31, size: 0x8, addend: 0x0, symName: __ZNKSt3__122__compressed_pair_elemINS_9allocatorIcEELi1ELb1EE5__getB8ne180100Ev, symObjAddr: 0xF688, symBinAddr: 0x100010AC4, symSize: 0x14 }
  - { offsetInCU: 0x49B57, offset: 0x49B57, size: 0x8, addend: 0x0, symName: __ZNSt3__123__libcpp_numeric_limitsImLb1EE3maxB8ne180100Ev, symObjAddr: 0xF69C, symBinAddr: 0x100010AD8, symSize: 0x8 }
  - { offsetInCU: 0x49B6B, offset: 0x49B6B, size: 0x8, addend: 0x0, symName: __ZNSt12length_errorC1B8ne180100EPKc, symObjAddr: 0xF708, symBinAddr: 0x100010B44, symSize: 0x34 }
  - { offsetInCU: 0x49BA3, offset: 0x49BA3, size: 0x8, addend: 0x0, symName: __ZNSt12length_errorC2B8ne180100EPKc, symObjAddr: 0xF73C, symBinAddr: 0x100010B78, symSize: 0x4C }
  - { offsetInCU: 0x49BDB, offset: 0x49BDB, size: 0x8, addend: 0x0, symName: __ZNSt3__117__compressed_pairINS_12basic_stringIcNS_11char_traitsIcEENS_9allocatorIcEEE5__repES5_E5firstB8ne180100Ev, symObjAddr: 0xF788, symBinAddr: 0x100010BC4, symSize: 0x24 }
  - { offsetInCU: 0x49C01, offset: 0x49C01, size: 0x8, addend: 0x0, symName: __ZNSt3__122__compressed_pair_elemINS_12basic_stringIcNS_11char_traitsIcEENS_9allocatorIcEEE5__repELi0ELb0EE5__getB8ne180100Ev, symObjAddr: 0xF7AC, symBinAddr: 0x100010BE8, symSize: 0x14 }
  - { offsetInCU: 0x49C27, offset: 0x49C27, size: 0x8, addend: 0x0, symName: __ZNSt3__114pointer_traitsIPcE10pointer_toB8ne180100ERc, symObjAddr: 0xF7C0, symBinAddr: 0x100010BFC, symSize: 0x14 }
  - { offsetInCU: 0x49C4A, offset: 0x49C4A, size: 0x8, addend: 0x0, symName: __ZNSt3__19allocatorIcE8allocateB8ne180100Em, symObjAddr: 0xF7D4, symBinAddr: 0x100010C10, symSize: 0x58 }
  - { offsetInCU: 0x49C7E, offset: 0x49C7E, size: 0x8, addend: 0x0, symName: __ZNSt3__117__compressed_pairINS_12basic_stringIcNS_11char_traitsIcEENS_9allocatorIcEEE5__repES5_E6secondB8ne180100Ev, symObjAddr: 0xF930, symBinAddr: 0x100010D6C, symSize: 0x24 }
  - { offsetInCU: 0x49CA4, offset: 0x49CA4, size: 0x8, addend: 0x0, symName: __ZNSt3__122__compressed_pair_elemINS_9allocatorIcEELi1ELb1EE5__getB8ne180100Ev, symObjAddr: 0xF954, symBinAddr: 0x100010D90, symSize: 0x14 }
  - { offsetInCU: 0x49CCA, offset: 0x49CCA, size: 0x8, addend: 0x0, symName: __ZNSt3__112basic_stringIcNS_11char_traitsIcEENS_9allocatorIcEEE10__align_itB8ne180100ILm8EEEmm, symObjAddr: 0xF968, symBinAddr: 0x100010DA4, symSize: 0x1C }
  - { offsetInCU: 0x49CF8, offset: 0x49CF8, size: 0x8, addend: 0x0, symName: __ZN7tinyobj10material_tC2Ev, symObjAddr: 0xF984, symBinAddr: 0x100010DC0, symSize: 0x170 }
  - { offsetInCU: 0x49D29, offset: 0x49D29, size: 0x8, addend: 0x0, symName: __ZN7tinyobj16texture_option_tC1Ev, symObjAddr: 0xFAF4, symBinAddr: 0x100010F30, symSize: 0x2C }
  - { offsetInCU: 0x49D55, offset: 0x49D55, size: 0x8, addend: 0x0, symName: __ZNSt3__13mapINS_12basic_stringIcNS_11char_traitsIcEENS_9allocatorIcEEEES6_NS_4lessIS6_EENS4_INS_4pairIKS6_S6_EEEEEC1B8ne180100Ev, symObjAddr: 0xFB20, symBinAddr: 0x100010F5C, symSize: 0x2C }
  - { offsetInCU: 0x49D7F, offset: 0x49D7F, size: 0x8, addend: 0x0, symName: __ZN7tinyobj16texture_option_tC2Ev, symObjAddr: 0xFB4C, symBinAddr: 0x100010F88, symSize: 0x30 }
  - { offsetInCU: 0x49DAB, offset: 0x49DAB, size: 0x8, addend: 0x0, symName: __ZNSt3__13mapINS_12basic_stringIcNS_11char_traitsIcEENS_9allocatorIcEEEES6_NS_4lessIS6_EENS4_INS_4pairIKS6_S6_EEEEEC2B8ne180100Ev, symObjAddr: 0xFB7C, symBinAddr: 0x100010FB8, symSize: 0x40 }
  - { offsetInCU: 0x49DD5, offset: 0x49DD5, size: 0x8, addend: 0x0, symName: __ZNSt3__119__map_value_compareINS_12basic_stringIcNS_11char_traitsIcEENS_9allocatorIcEEEENS_12__value_typeIS6_S6_EENS_4lessIS6_EELb1EEC1B8ne180100ESA_, symObjAddr: 0xFBBC, symBinAddr: 0x100010FF8, symSize: 0x2C }
  - { offsetInCU: 0x49E0E, offset: 0x49E0E, size: 0x8, addend: 0x0, symName: __ZNSt3__16__treeINS_12__value_typeINS_12basic_stringIcNS_11char_traitsIcEENS_9allocatorIcEEEES7_EENS_19__map_value_compareIS7_S8_NS_4lessIS7_EELb1EEENS5_IS8_EEEC1ERKSC_, symObjAddr: 0xFBE8, symBinAddr: 0x100011024, symSize: 0x34 }
  - { offsetInCU: 0x49E49, offset: 0x49E49, size: 0x8, addend: 0x0, symName: __ZNSt3__119__map_value_compareINS_12basic_stringIcNS_11char_traitsIcEENS_9allocatorIcEEEENS_12__value_typeIS6_S6_EENS_4lessIS6_EELb1EEC2B8ne180100ESA_, symObjAddr: 0xFC1C, symBinAddr: 0x100011058, symSize: 0x14 }
  - { offsetInCU: 0x49E82, offset: 0x49E82, size: 0x8, addend: 0x0, symName: __ZNSt3__16__treeINS_12__value_typeINS_12basic_stringIcNS_11char_traitsIcEENS_9allocatorIcEEEES7_EENS_19__map_value_compareIS7_S8_NS_4lessIS7_EELb1EEENS5_IS8_EEEC2ERKSC_, symObjAddr: 0xFC30, symBinAddr: 0x10001106C, symSize: 0x7C }
  - { offsetInCU: 0x49EBD, offset: 0x49EBD, size: 0x8, addend: 0x0, symName: __ZNSt3__117__compressed_pairINS_15__tree_end_nodeIPNS_16__tree_node_baseIPvEEEENS_9allocatorINS_11__tree_nodeINS_12__value_typeINS_12basic_stringIcNS_11char_traitsIcEENS7_IcEEEESE_EES3_EEEEEC1B8ne180100ILb1EvEEv, symObjAddr: 0xFCAC, symBinAddr: 0x1000110E8, symSize: 0x2C }
  - { offsetInCU: 0x49EF2, offset: 0x49EF2, size: 0x8, addend: 0x0, symName: __ZNSt3__117__compressed_pairImNS_19__map_value_compareINS_12basic_stringIcNS_11char_traitsIcEENS_9allocatorIcEEEENS_12__value_typeIS7_S7_EENS_4lessIS7_EELb1EEEEC1B8ne180100IiRKSC_EEOT_OT0_, symObjAddr: 0xFCE4, symBinAddr: 0x100011120, symSize: 0x3C }
  - { offsetInCU: 0x49F4A, offset: 0x49F4A, size: 0x8, addend: 0x0, symName: __ZNSt3__16__treeINS_12__value_typeINS_12basic_stringIcNS_11char_traitsIcEENS_9allocatorIcEEEES7_EENS_19__map_value_compareIS7_S8_NS_4lessIS7_EELb1EEENS5_IS8_EEE10__end_nodeB8ne180100Ev, symObjAddr: 0xFD20, symBinAddr: 0x10001115C, symSize: 0x2C }
  - { offsetInCU: 0x49F70, offset: 0x49F70, size: 0x8, addend: 0x0, symName: __ZNSt3__16__treeINS_12__value_typeINS_12basic_stringIcNS_11char_traitsIcEENS_9allocatorIcEEEES7_EENS_19__map_value_compareIS7_S8_NS_4lessIS7_EELb1EEENS5_IS8_EEE12__begin_nodeB8ne180100Ev, symObjAddr: 0xFD4C, symBinAddr: 0x100011188, symSize: 0x14 }
  - { offsetInCU: 0x49F96, offset: 0x49F96, size: 0x8, addend: 0x0, symName: __ZNSt3__117__compressed_pairINS_15__tree_end_nodeIPNS_16__tree_node_baseIPvEEEENS_9allocatorINS_11__tree_nodeINS_12__value_typeINS_12basic_stringIcNS_11char_traitsIcEENS7_IcEEEESE_EES3_EEEEEC2B8ne180100ILb1EvEEv, symObjAddr: 0xFD60, symBinAddr: 0x10001119C, symSize: 0x34 }
  - { offsetInCU: 0x49FCB, offset: 0x49FCB, size: 0x8, addend: 0x0, symName: __ZNSt3__122__compressed_pair_elemINS_15__tree_end_nodeIPNS_16__tree_node_baseIPvEEEELi0ELb0EEC2B8ne180100ENS_16__value_init_tagE, symObjAddr: 0xFD94, symBinAddr: 0x1000111D0, symSize: 0x2C }
  - { offsetInCU: 0x4A000, offset: 0x4A000, size: 0x8, addend: 0x0, symName: __ZNSt3__122__compressed_pair_elemINS_9allocatorINS_11__tree_nodeINS_12__value_typeINS_12basic_stringIcNS_11char_traitsIcEENS1_IcEEEES8_EEPvEEEELi1ELb1EEC2B8ne180100ENS_16__value_init_tagE, symObjAddr: 0xFDC0, symBinAddr: 0x1000111FC, symSize: 0x2C }
  - { offsetInCU: 0x4A035, offset: 0x4A035, size: 0x8, addend: 0x0, symName: __ZNSt3__115__tree_end_nodeIPNS_16__tree_node_baseIPvEEEC1B8ne180100Ev, symObjAddr: 0xFDEC, symBinAddr: 0x100011228, symSize: 0x2C }
  - { offsetInCU: 0x4A05F, offset: 0x4A05F, size: 0x8, addend: 0x0, symName: __ZNSt3__115__tree_end_nodeIPNS_16__tree_node_baseIPvEEEC2B8ne180100Ev, symObjAddr: 0xFE18, symBinAddr: 0x100011254, symSize: 0x18 }
  - { offsetInCU: 0x4A089, offset: 0x4A089, size: 0x8, addend: 0x0, symName: __ZNSt3__19allocatorINS_11__tree_nodeINS_12__value_typeINS_12basic_stringIcNS_11char_traitsIcEENS0_IcEEEES7_EEPvEEEC2B8ne180100Ev, symObjAddr: 0xFE30, symBinAddr: 0x10001126C, symSize: 0x2C }
  - { offsetInCU: 0x4A0B3, offset: 0x4A0B3, size: 0x8, addend: 0x0, symName: __ZNSt3__116__non_trivial_ifILb1ENS_9allocatorINS_11__tree_nodeINS_12__value_typeINS_12basic_stringIcNS_11char_traitsIcEENS1_IcEEEES8_EEPvEEEEEC2B8ne180100Ev, symObjAddr: 0xFE5C, symBinAddr: 0x100011298, symSize: 0x14 }
  - { offsetInCU: 0x4A0DD, offset: 0x4A0DD, size: 0x8, addend: 0x0, symName: __ZNSt3__117__compressed_pairImNS_19__map_value_compareINS_12basic_stringIcNS_11char_traitsIcEENS_9allocatorIcEEEENS_12__value_typeIS7_S7_EENS_4lessIS7_EELb1EEEEC2B8ne180100IiRKSC_EEOT_OT0_, symObjAddr: 0xFE70, symBinAddr: 0x1000112AC, symSize: 0x44 }
  - { offsetInCU: 0x4A135, offset: 0x4A135, size: 0x8, addend: 0x0, symName: __ZNSt3__122__compressed_pair_elemImLi0ELb0EEC2B8ne180100IivEEOT_, symObjAddr: 0xFEB4, symBinAddr: 0x1000112F0, symSize: 0x24 }
  - { offsetInCU: 0x4A177, offset: 0x4A177, size: 0x8, addend: 0x0, symName: __ZNSt3__122__compressed_pair_elemINS_19__map_value_compareINS_12basic_stringIcNS_11char_traitsIcEENS_9allocatorIcEEEENS_12__value_typeIS7_S7_EENS_4lessIS7_EELb1EEELi1ELb1EEC2B8ne180100IRKSC_vEEOT_, symObjAddr: 0xFED8, symBinAddr: 0x100011314, symSize: 0x18 }
  - { offsetInCU: 0x4A1B9, offset: 0x4A1B9, size: 0x8, addend: 0x0, symName: __ZNSt3__114pointer_traitsIPNS_15__tree_end_nodeIPNS_16__tree_node_baseIPvEEEEE10pointer_toB8ne180100ERS6_, symObjAddr: 0xFEF0, symBinAddr: 0x10001132C, symSize: 0x14 }
  - { offsetInCU: 0x4A1DC, offset: 0x4A1DC, size: 0x8, addend: 0x0, symName: __ZNSt3__117__compressed_pairINS_15__tree_end_nodeIPNS_16__tree_node_baseIPvEEEENS_9allocatorINS_11__tree_nodeINS_12__value_typeINS_12basic_stringIcNS_11char_traitsIcEENS7_IcEEEESE_EES3_EEEEE5firstB8ne180100Ev, symObjAddr: 0xFF04, symBinAddr: 0x100011340, symSize: 0x24 }
  - { offsetInCU: 0x4A202, offset: 0x4A202, size: 0x8, addend: 0x0, symName: __ZNSt3__122__compressed_pair_elemINS_15__tree_end_nodeIPNS_16__tree_node_baseIPvEEEELi0ELb0EE5__getB8ne180100Ev, symObjAddr: 0xFF28, symBinAddr: 0x100011364, symSize: 0x14 }
  - { offsetInCU: 0x4A228, offset: 0x4A228, size: 0x8, addend: 0x0, symName: __ZNSt3__13mapINS_12basic_stringIcNS_11char_traitsIcEENS_9allocatorIcEEEES6_NS_4lessIS6_EENS4_INS_4pairIKS6_S6_EEEEE5clearB8ne180100Ev, symObjAddr: 0x10024, symBinAddr: 0x100011460, symSize: 0x24 }
  - { offsetInCU: 0x4A24E, offset: 0x4A24E, size: 0x8, addend: 0x0, symName: __ZNSt3__16__treeINS_12__value_typeINS_12basic_stringIcNS_11char_traitsIcEENS_9allocatorIcEEEES7_EENS_19__map_value_compareIS7_S8_NS_4lessIS7_EELb1EEENS5_IS8_EEE5clearEv, symObjAddr: 0x10048, symBinAddr: 0x100011484, symSize: 0x74 }
  - { offsetInCU: 0x4A276, offset: 0x4A276, size: 0x8, addend: 0x0, symName: __ZNSt3__16__treeINS_12__value_typeINS_12basic_stringIcNS_11char_traitsIcEENS_9allocatorIcEEEES7_EENS_19__map_value_compareIS7_S8_NS_4lessIS7_EELb1EEENS5_IS8_EEE7destroyEPNS_11__tree_nodeIS8_PvEE, symObjAddr: 0x100BC, symBinAddr: 0x1000114F8, symSize: 0xAC }
  - { offsetInCU: 0x4A2C2, offset: 0x4A2C2, size: 0x8, addend: 0x0, symName: __ZNKSt3__16__treeINS_12__value_typeINS_12basic_stringIcNS_11char_traitsIcEENS_9allocatorIcEEEES7_EENS_19__map_value_compareIS7_S8_NS_4lessIS7_EELb1EEENS5_IS8_EEE6__rootB8ne180100Ev, symObjAddr: 0x10168, symBinAddr: 0x1000115A4, symSize: 0x28 }
  - { offsetInCU: 0x4A2E8, offset: 0x4A2E8, size: 0x8, addend: 0x0, symName: __ZNSt3__16__treeINS_12__value_typeINS_12basic_stringIcNS_11char_traitsIcEENS_9allocatorIcEEEES7_EENS_19__map_value_compareIS7_S8_NS_4lessIS7_EELb1EEENS5_IS8_EEE4sizeB8ne180100Ev, symObjAddr: 0x10190, symBinAddr: 0x1000115CC, symSize: 0x28 }
  - { offsetInCU: 0x4A30E, offset: 0x4A30E, size: 0x8, addend: 0x0, symName: __ZNSt3__16__treeINS_12__value_typeINS_12basic_stringIcNS_11char_traitsIcEENS_9allocatorIcEEEES7_EENS_19__map_value_compareIS7_S8_NS_4lessIS7_EELb1EEENS5_IS8_EEE12__node_allocB8ne180100Ev, symObjAddr: 0x101B8, symBinAddr: 0x1000115F4, symSize: 0x28 }
  - { offsetInCU: 0x4A334, offset: 0x4A334, size: 0x8, addend: 0x0, symName: __ZNSt3__116allocator_traitsINS_9allocatorINS_11__tree_nodeINS_12__value_typeINS_12basic_stringIcNS_11char_traitsIcEENS1_IcEEEES8_EEPvEEEEE7destroyB8ne180100INS_4pairIKS8_S8_EEvvEEvRSC_PT_, symObjAddr: 0x101E0, symBinAddr: 0x10001161C, symSize: 0x28 }
  - { offsetInCU: 0x4A36F, offset: 0x4A36F, size: 0x8, addend: 0x0, symName: __ZNSt3__122__tree_key_value_typesINS_12__value_typeINS_12basic_stringIcNS_11char_traitsIcEENS_9allocatorIcEEEES7_EEE9__get_ptrB8ne180100ERS8_, symObjAddr: 0x10208, symBinAddr: 0x100011644, symSize: 0x24 }
  - { offsetInCU: 0x4A393, offset: 0x4A393, size: 0x8, addend: 0x0, symName: __ZNSt3__116allocator_traitsINS_9allocatorINS_11__tree_nodeINS_12__value_typeINS_12basic_stringIcNS_11char_traitsIcEENS1_IcEEEES8_EEPvEEEEE10deallocateB8ne180100ERSC_PSB_m, symObjAddr: 0x1022C, symBinAddr: 0x100011668, symSize: 0x34 }
  - { offsetInCU: 0x4A3D5, offset: 0x4A3D5, size: 0x8, addend: 0x0, symName: __ZNSt3__117__compressed_pairINS_15__tree_end_nodeIPNS_16__tree_node_baseIPvEEEENS_9allocatorINS_11__tree_nodeINS_12__value_typeINS_12basic_stringIcNS_11char_traitsIcEENS7_IcEEEESE_EES3_EEEEE6secondB8ne180100Ev, symObjAddr: 0x10260, symBinAddr: 0x10001169C, symSize: 0x24 }
  - { offsetInCU: 0x4A3FB, offset: 0x4A3FB, size: 0x8, addend: 0x0, symName: __ZNSt3__122__compressed_pair_elemINS_9allocatorINS_11__tree_nodeINS_12__value_typeINS_12basic_stringIcNS_11char_traitsIcEENS1_IcEEEES8_EEPvEEEELi1ELb1EE5__getB8ne180100Ev, symObjAddr: 0x10284, symBinAddr: 0x1000116C0, symSize: 0x14 }
  - { offsetInCU: 0x4A421, offset: 0x4A421, size: 0x8, addend: 0x0, symName: __ZNSt3__14pairIKNS_12basic_stringIcNS_11char_traitsIcEENS_9allocatorIcEEEES6_ED1Ev, symObjAddr: 0x102BC, symBinAddr: 0x1000116F8, symSize: 0x2C }
  - { offsetInCU: 0x4A44D, offset: 0x4A44D, size: 0x8, addend: 0x0, symName: __ZNSt3__14pairIKNS_12basic_stringIcNS_11char_traitsIcEENS_9allocatorIcEEEES6_ED2Ev, symObjAddr: 0x102E8, symBinAddr: 0x100011724, symSize: 0x38 }
  - { offsetInCU: 0x4A479, offset: 0x4A479, size: 0x8, addend: 0x0, symName: __ZNSt3__112__value_typeINS_12basic_stringIcNS_11char_traitsIcEENS_9allocatorIcEEEES6_E11__get_valueB8ne180100Ev, symObjAddr: 0x10320, symBinAddr: 0x10001175C, symSize: 0x24 }
  - { offsetInCU: 0x4A49F, offset: 0x4A49F, size: 0x8, addend: 0x0, symName: __ZNSt3__19allocatorINS_11__tree_nodeINS_12__value_typeINS_12basic_stringIcNS_11char_traitsIcEENS0_IcEEEES7_EEPvEEE10deallocateB8ne180100EPSA_m, symObjAddr: 0x1037C, symBinAddr: 0x1000117B8, symSize: 0x44 }
  - { offsetInCU: 0x4A4E1, offset: 0x4A4E1, size: 0x8, addend: 0x0, symName: __ZNKSt3__16__treeINS_12__value_typeINS_12basic_stringIcNS_11char_traitsIcEENS_9allocatorIcEEEES7_EENS_19__map_value_compareIS7_S8_NS_4lessIS7_EELb1EEENS5_IS8_EEE10__end_nodeB8ne180100Ev, symObjAddr: 0x104C8, symBinAddr: 0x100011904, symSize: 0x2C }
  - { offsetInCU: 0x4A507, offset: 0x4A507, size: 0x8, addend: 0x0, symName: __ZNKSt3__117__compressed_pairINS_15__tree_end_nodeIPNS_16__tree_node_baseIPvEEEENS_9allocatorINS_11__tree_nodeINS_12__value_typeINS_12basic_stringIcNS_11char_traitsIcEENS7_IcEEEESE_EES3_EEEEE5firstB8ne180100Ev, symObjAddr: 0x104F4, symBinAddr: 0x100011930, symSize: 0x24 }
  - { offsetInCU: 0x4A52D, offset: 0x4A52D, size: 0x8, addend: 0x0, symName: __ZNKSt3__122__compressed_pair_elemINS_15__tree_end_nodeIPNS_16__tree_node_baseIPvEEEELi0ELb0EE5__getB8ne180100Ev, symObjAddr: 0x10518, symBinAddr: 0x100011954, symSize: 0x14 }
  - { offsetInCU: 0x4A553, offset: 0x4A553, size: 0x8, addend: 0x0, symName: __ZNSt3__117__compressed_pairImNS_19__map_value_compareINS_12basic_stringIcNS_11char_traitsIcEENS_9allocatorIcEEEENS_12__value_typeIS7_S7_EENS_4lessIS7_EELb1EEEE5firstB8ne180100Ev, symObjAddr: 0x1052C, symBinAddr: 0x100011968, symSize: 0x24 }
  - { offsetInCU: 0x4A579, offset: 0x4A579, size: 0x8, addend: 0x0, symName: __ZNSt3__122__compressed_pair_elemImLi0ELb0EE5__getB8ne180100Ev, symObjAddr: 0x10550, symBinAddr: 0x10001198C, symSize: 0x14 }
  - { offsetInCU: 0x4A59F, offset: 0x4A59F, size: 0x8, addend: 0x0, symName: __ZNSt3__112basic_stringIcNS_11char_traitsIcEENS_9allocatorIcEEE5clearB8ne180100Ev, symObjAddr: 0x10564, symBinAddr: 0x1000119A0, symSize: 0x94 }
  - { offsetInCU: 0x4A5D6, offset: 0x4A5D6, size: 0x8, addend: 0x0, symName: __ZNKSt3__19basic_iosIcNS_11char_traitsIcEEE5rdbufB8ne180100Ev, symObjAddr: 0x105F8, symBinAddr: 0x100011A34, symSize: 0x24 }
  - { offsetInCU: 0x4A61F, offset: 0x4A61F, size: 0x8, addend: 0x0, symName: __ZNKSt3__113basic_istreamIcNS_11char_traitsIcEEE6sentrycvbB8ne180100Ev, symObjAddr: 0x1061C, symBinAddr: 0x100011A58, symSize: 0x1C }
  - { offsetInCU: 0x4A645, offset: 0x4A645, size: 0x8, addend: 0x0, symName: __ZNSt3__115basic_streambufIcNS_11char_traitsIcEEE6sbumpcB8ne180100Ev, symObjAddr: 0x10638, symBinAddr: 0x100011A74, symSize: 0x78 }
  - { offsetInCU: 0x4A66B, offset: 0x4A66B, size: 0x8, addend: 0x0, symName: __ZNSt3__115basic_streambufIcNS_11char_traitsIcEEE5sgetcB8ne180100Ev, symObjAddr: 0x106B0, symBinAddr: 0x100011AEC, symSize: 0x70 }
  - { offsetInCU: 0x4A691, offset: 0x4A691, size: 0x8, addend: 0x0, symName: __ZNSt3__19basic_iosIcNS_11char_traitsIcEEE8setstateB8ne180100Ej, symObjAddr: 0x10720, symBinAddr: 0x100011B5C, symSize: 0x2C }
  - { offsetInCU: 0x4A6C6, offset: 0x4A6C6, size: 0x8, addend: 0x0, symName: __ZNKSt3__112basic_stringIcNS_11char_traitsIcEENS_9allocatorIcEEE9__is_longB8ne180100Ev, symObjAddr: 0x1074C, symBinAddr: 0x100011B88, symSize: 0x38 }
  - { offsetInCU: 0x4A6EC, offset: 0x4A6EC, size: 0x8, addend: 0x0, symName: __ZNSt3__112basic_stringIcNS_11char_traitsIcEENS_9allocatorIcEEE18__get_long_pointerB8ne180100Ev, symObjAddr: 0x10784, symBinAddr: 0x100011BC0, symSize: 0x28 }
  - { offsetInCU: 0x4A712, offset: 0x4A712, size: 0x8, addend: 0x0, symName: __ZNKSt3__112basic_stringIcNS_11char_traitsIcEENS_9allocatorIcEEE17__annotate_shrinkB8ne180100Em, symObjAddr: 0x107AC, symBinAddr: 0x100011BE8, symSize: 0x14 }
  - { offsetInCU: 0x4A747, offset: 0x4A747, size: 0x8, addend: 0x0, symName: __ZNKSt3__117__compressed_pairINS_12basic_stringIcNS_11char_traitsIcEENS_9allocatorIcEEE5__repES5_E5firstB8ne180100Ev, symObjAddr: 0x107C0, symBinAddr: 0x100011BFC, symSize: 0x24 }
  - { offsetInCU: 0x4A76D, offset: 0x4A76D, size: 0x8, addend: 0x0, symName: __ZNKSt3__122__compressed_pair_elemINS_12basic_stringIcNS_11char_traitsIcEENS_9allocatorIcEEE5__repELi0ELb0EE5__getB8ne180100Ev, symObjAddr: 0x107E4, symBinAddr: 0x100011C20, symSize: 0x14 }
  - { offsetInCU: 0x4A793, offset: 0x4A793, size: 0x8, addend: 0x0, symName: __ZNKSt3__18ios_base5rdbufB8ne180100Ev, symObjAddr: 0x107F8, symBinAddr: 0x100011C34, symSize: 0x18 }
  - { offsetInCU: 0x4A7B9, offset: 0x4A7B9, size: 0x8, addend: 0x0, symName: __ZNSt3__111char_traitsIcE11to_int_typeB8ne180100Ec, symObjAddr: 0x10810, symBinAddr: 0x100011C4C, symSize: 0x14 }
  - { offsetInCU: 0x4A7DD, offset: 0x4A7DD, size: 0x8, addend: 0x0, symName: __ZNSt3__18ios_base8setstateB8ne180100Ej, symObjAddr: 0x10824, symBinAddr: 0x100011C60, symSize: 0x34 }
  - { offsetInCU: 0x4A814, offset: 0x4A814, size: 0x8, addend: 0x0, symName: __ZNSt3__14pairINS_12basic_stringIcNS_11char_traitsIcEENS_9allocatorIcEEEEiEC2B8ne180100IRS6_iLi0EEEOT_OT0_, symObjAddr: 0x10858, symBinAddr: 0x100011C94, symSize: 0x44 }
  - { offsetInCU: 0x4A872, offset: 0x4A872, size: 0x8, addend: 0x0, symName: __ZNSt3__14pairINS_12basic_stringIcNS_11char_traitsIcEENS_9allocatorIcEEEEiED2Ev, symObjAddr: 0x1089C, symBinAddr: 0x100011CD8, symSize: 0x2C }
  - { offsetInCU: 0x4A89E, offset: 0x4A89E, size: 0x8, addend: 0x0, symName: __ZNSt3__14pairINS_12basic_stringIcNS_11char_traitsIcEENS_9allocatorIcEEEES6_EC2B8ne180100IRS6_S9_Li0EEEOT_OT0_, symObjAddr: 0x108C8, symBinAddr: 0x100011D04, symSize: 0x70 }
  - { offsetInCU: 0x4A8FC, offset: 0x4A8FC, size: 0x8, addend: 0x0, symName: __ZNSt3__14pairINS_12basic_stringIcNS_11char_traitsIcEENS_9allocatorIcEEEES6_ED2Ev, symObjAddr: 0x10938, symBinAddr: 0x100011D74, symSize: 0x38 }
  - { offsetInCU: 0x4A928, offset: 0x4A928, size: 0x8, addend: 0x0, symName: __ZNSt3__118basic_stringstreamIcNS_11char_traitsIcEENS_9allocatorIcEEED2Ev, symObjAddr: 0x10970, symBinAddr: 0x100011DAC, symSize: 0x6C }
  - { offsetInCU: 0x4A962, offset: 0x4A962, size: 0x8, addend: 0x0, symName: __ZThn16_NSt3__118basic_stringstreamIcNS_11char_traitsIcEENS_9allocatorIcEEED1Ev, symObjAddr: 0x109DC, symBinAddr: 0x100011E18, symSize: 0x1C }
  - { offsetInCU: 0x4A979, offset: 0x4A979, size: 0x8, addend: 0x0, symName: __ZTv0_n24_NSt3__118basic_stringstreamIcNS_11char_traitsIcEENS_9allocatorIcEEED1Ev, symObjAddr: 0x109F8, symBinAddr: 0x100011E34, symSize: 0x28 }
  - { offsetInCU: 0x4A990, offset: 0x4A990, size: 0x8, addend: 0x0, symName: __ZN7tinyobj10material_tD2Ev, symObjAddr: 0x10A20, symBinAddr: 0x100011E5C, symSize: 0x170 }
  - { offsetInCU: 0x4A9BC, offset: 0x4A9BC, size: 0x8, addend: 0x0, symName: __ZNSt3__13mapINS_12basic_stringIcNS_11char_traitsIcEENS_9allocatorIcEEEES6_NS_4lessIS6_EENS4_INS_4pairIKS6_S6_EEEEED1B8ne180100Ev, symObjAddr: 0x10B90, symBinAddr: 0x100011FCC, symSize: 0x2C }
  - { offsetInCU: 0x4A9E6, offset: 0x4A9E6, size: 0x8, addend: 0x0, symName: __ZN7tinyobj16texture_option_tD1Ev, symObjAddr: 0x10BBC, symBinAddr: 0x100011FF8, symSize: 0x2C }
  - { offsetInCU: 0x4AA12, offset: 0x4AA12, size: 0x8, addend: 0x0, symName: __ZNSt3__13mapINS_12basic_stringIcNS_11char_traitsIcEENS_9allocatorIcEEEES6_NS_4lessIS6_EENS4_INS_4pairIKS6_S6_EEEEED2B8ne180100Ev, symObjAddr: 0x10BE8, symBinAddr: 0x100012024, symSize: 0x2C }
  - { offsetInCU: 0x4AA3C, offset: 0x4AA3C, size: 0x8, addend: 0x0, symName: __ZNSt3__16__treeINS_12__value_typeINS_12basic_stringIcNS_11char_traitsIcEENS_9allocatorIcEEEES7_EENS_19__map_value_compareIS7_S8_NS_4lessIS7_EELb1EEENS5_IS8_EEED1Ev, symObjAddr: 0x10C14, symBinAddr: 0x100012050, symSize: 0x2C }
  - { offsetInCU: 0x4AA68, offset: 0x4AA68, size: 0x8, addend: 0x0, symName: __ZNSt3__16__treeINS_12__value_typeINS_12basic_stringIcNS_11char_traitsIcEENS_9allocatorIcEEEES7_EENS_19__map_value_compareIS7_S8_NS_4lessIS7_EELb1EEENS5_IS8_EEED2Ev, symObjAddr: 0x10C40, symBinAddr: 0x10001207C, symSize: 0x38 }
  - { offsetInCU: 0x4AA94, offset: 0x4AA94, size: 0x8, addend: 0x0, symName: __ZN7tinyobj16texture_option_tD2Ev, symObjAddr: 0x10C78, symBinAddr: 0x1000120B4, symSize: 0x30 }
  - { offsetInCU: 0x4AAC0, offset: 0x4AAC0, size: 0x8, addend: 0x0, symName: __ZNKSt3__112basic_stringIcNS_11char_traitsIcEENS_9allocatorIcEEE6rbeginB8ne180100Ev, symObjAddr: 0x10CA8, symBinAddr: 0x1000120E4, symSize: 0x44 }
  - { offsetInCU: 0x4AAE6, offset: 0x4AAE6, size: 0x8, addend: 0x0, symName: __ZNKSt3__116reverse_iteratorINS_11__wrap_iterIPKcEEEdeB8ne180100Ev, symObjAddr: 0x10CEC, symBinAddr: 0x100012128, symSize: 0x34 }
  - { offsetInCU: 0x4AB1A, offset: 0x4AB1A, size: 0x8, addend: 0x0, symName: __ZNKSt3__112basic_stringIcNS_11char_traitsIcEENS_9allocatorIcEEE3endB8ne180100Ev, symObjAddr: 0x10ED8, symBinAddr: 0x100012314, symSize: 0x64 }
  - { offsetInCU: 0x4AB40, offset: 0x4AB40, size: 0x8, addend: 0x0, symName: __ZNSt3__116reverse_iteratorINS_11__wrap_iterIPKcEEEC1B8ne180100ES4_, symObjAddr: 0x10F3C, symBinAddr: 0x100012378, symSize: 0x34 }
  - { offsetInCU: 0x4AB78, offset: 0x4AB78, size: 0x8, addend: 0x0, symName: __ZNKSt3__112basic_stringIcNS_11char_traitsIcEENS_9allocatorIcEEE21__make_const_iteratorB8ne180100EPKc, symObjAddr: 0x10F70, symBinAddr: 0x1000123AC, symSize: 0x30 }
  - { offsetInCU: 0x4ABAD, offset: 0x4ABAD, size: 0x8, addend: 0x0, symName: __ZNKSt3__112basic_stringIcNS_11char_traitsIcEENS_9allocatorIcEEE13__get_pointerB8ne180100Ev, symObjAddr: 0x10FA0, symBinAddr: 0x1000123DC, symSize: 0x54 }
  - { offsetInCU: 0x4ABD3, offset: 0x4ABD3, size: 0x8, addend: 0x0, symName: __ZNSt3__111__wrap_iterIPKcEC1B8ne180100ES2_, symObjAddr: 0x10FF4, symBinAddr: 0x100012430, symSize: 0x34 }
  - { offsetInCU: 0x4AC0B, offset: 0x4AC0B, size: 0x8, addend: 0x0, symName: __ZNSt3__111__wrap_iterIPKcEC2B8ne180100ES2_, symObjAddr: 0x11028, symBinAddr: 0x100012464, symSize: 0x20 }
  - { offsetInCU: 0x4AC43, offset: 0x4AC43, size: 0x8, addend: 0x0, symName: __ZNKSt3__112basic_stringIcNS_11char_traitsIcEENS_9allocatorIcEEE18__get_long_pointerB8ne180100Ev, symObjAddr: 0x11048, symBinAddr: 0x100012484, symSize: 0x28 }
  - { offsetInCU: 0x4AC69, offset: 0x4AC69, size: 0x8, addend: 0x0, symName: __ZNKSt3__112basic_stringIcNS_11char_traitsIcEENS_9allocatorIcEEE19__get_short_pointerB8ne180100Ev, symObjAddr: 0x11070, symBinAddr: 0x1000124AC, symSize: 0x28 }
  - { offsetInCU: 0x4AC8F, offset: 0x4AC8F, size: 0x8, addend: 0x0, symName: __ZNSt3__114pointer_traitsIPKcE10pointer_toB8ne180100ERS1_, symObjAddr: 0x11098, symBinAddr: 0x1000124D4, symSize: 0x14 }
  - { offsetInCU: 0x4ACB2, offset: 0x4ACB2, size: 0x8, addend: 0x0, symName: __ZNSt3__116reverse_iteratorINS_11__wrap_iterIPKcEEEC2B8ne180100ES4_, symObjAddr: 0x110AC, symBinAddr: 0x1000124E8, symSize: 0x28 }
  - { offsetInCU: 0x4ACEA, offset: 0x4ACEA, size: 0x8, addend: 0x0, symName: __ZNSt3__111__wrap_iterIPKcEmmB8ne180100Ev, symObjAddr: 0x110D4, symBinAddr: 0x100012510, symSize: 0x20 }
  - { offsetInCU: 0x4AD10, offset: 0x4AD10, size: 0x8, addend: 0x0, symName: __ZNKSt3__111__wrap_iterIPKcEdeB8ne180100Ev, symObjAddr: 0x110F4, symBinAddr: 0x100012530, symSize: 0x18 }
  - { offsetInCU: 0x4AD36, offset: 0x4AD36, size: 0x8, addend: 0x0, symName: __ZNSt3__112basic_stringIcNS_11char_traitsIcEENS_9allocatorIcEEE6appendB8ne180100ERKS5_, symObjAddr: 0x1110C, symBinAddr: 0x100012548, symSize: 0x4C }
  - { offsetInCU: 0x4AD6B, offset: 0x4AD6B, size: 0x8, addend: 0x0, symName: __ZNSt3__112basic_stringIcNS_11char_traitsIcEENS_9allocatorIcEEEC1B8ne180100EOS5_, symObjAddr: 0x11158, symBinAddr: 0x100012594, symSize: 0x34 }
  - { offsetInCU: 0x4ADA4, offset: 0x4ADA4, size: 0x8, addend: 0x0, symName: __ZNKSt3__112basic_stringIcNS_11char_traitsIcEENS_9allocatorIcEEE4dataB8ne180100Ev, symObjAddr: 0x1118C, symBinAddr: 0x1000125C8, symSize: 0x28 }
  - { offsetInCU: 0x4ADCA, offset: 0x4ADCA, size: 0x8, addend: 0x0, symName: __ZNSt3__112basic_stringIcNS_11char_traitsIcEENS_9allocatorIcEEEC2B8ne180100EOS5_, symObjAddr: 0x111C8, symBinAddr: 0x100012604, symSize: 0xB8 }
  - { offsetInCU: 0x4AE34, offset: 0x4AE34, size: 0x8, addend: 0x0, symName: __ZZNSt3__112basic_stringIcNS_11char_traitsIcEENS_9allocatorIcEEEC1B8ne180100EOS5_ENKUlRS5_E_clES7_, symObjAddr: 0x11280, symBinAddr: 0x1000126BC, symSize: 0x40 }
  - { offsetInCU: 0x4AE6D, offset: 0x4AE6D, size: 0x8, addend: 0x0, symName: __ZNKSt3__112basic_stringIcNS_11char_traitsIcEENS_9allocatorIcEEE17__annotate_deleteB8ne180100Ev, symObjAddr: 0x112C0, symBinAddr: 0x1000126FC, symSize: 0x10 }
  - { offsetInCU: 0x4AE93, offset: 0x4AE93, size: 0x8, addend: 0x0, symName: __ZNSt3__112basic_stringIcNS_11char_traitsIcEENS_9allocatorIcEEE6insertB8ne180100EmRKS5_, symObjAddr: 0x112D0, symBinAddr: 0x10001270C, symSize: 0x5C }
  - { offsetInCU: 0x4AED7, offset: 0x4AED7, size: 0x8, addend: 0x0, symName: __ZNSt3__116allocator_traitsINS_9allocatorIcEEE37select_on_container_copy_constructionB8ne180100IS2_vvEES2_RKS2_, symObjAddr: 0x1132C, symBinAddr: 0x100012768, symSize: 0x10 }
  - { offsetInCU: 0x4AF06, offset: 0x4AF06, size: 0x8, addend: 0x0, symName: __ZNKSt3__112basic_stringIcNS_11char_traitsIcEENS_9allocatorIcEEE13get_allocatorB8ne180100Ev, symObjAddr: 0x1133C, symBinAddr: 0x100012778, symSize: 0x24 }
  - { offsetInCU: 0x4AF2C, offset: 0x4AF2C, size: 0x8, addend: 0x0, symName: __ZNSt3__112basic_stringIcNS_11char_traitsIcEENS_9allocatorIcEEEC1B8ne180100ENS_24__uninitialized_size_tagEmRKS4_, symObjAddr: 0x11360, symBinAddr: 0x10001279C, symSize: 0x3C }
  - { offsetInCU: 0x4AF80, offset: 0x4AF80, size: 0x8, addend: 0x0, symName: __ZNSt3__112basic_stringIcNS_11char_traitsIcEENS_9allocatorIcEEE13__get_pointerB8ne180100Ev, symObjAddr: 0x113B0, symBinAddr: 0x1000127EC, symSize: 0x54 }
  - { offsetInCU: 0x4AFA6, offset: 0x4AFA6, size: 0x8, addend: 0x0, symName: __ZNSt3__111char_traitsIcE4copyB8ne180100EPcPKcm, symObjAddr: 0x11404, symBinAddr: 0x100012840, symSize: 0x40 }
  - { offsetInCU: 0x4AFE5, offset: 0x4AFE5, size: 0x8, addend: 0x0, symName: __ZNSt3__111char_traitsIcE6assignB8ne180100EPcmc, symObjAddr: 0x11444, symBinAddr: 0x100012880, symSize: 0x44 }
  - { offsetInCU: 0x4B024, offset: 0x4B024, size: 0x8, addend: 0x0, symName: __ZNSt3__112basic_stringIcNS_11char_traitsIcEENS_9allocatorIcEEEC2B8ne180100ENS_24__uninitialized_size_tagEmRKS4_, symObjAddr: 0x11488, symBinAddr: 0x1000128C4, symSize: 0x11C }
  - { offsetInCU: 0x4B0A4, offset: 0x4B0A4, size: 0x8, addend: 0x0, symName: __ZNSt3__117__compressed_pairINS_12basic_stringIcNS_11char_traitsIcEENS_9allocatorIcEEE5__repES5_EC1B8ne180100INS_18__default_init_tagERKS5_EEOT_OT0_, symObjAddr: 0x115A4, symBinAddr: 0x1000129E0, symSize: 0x3C }
  - { offsetInCU: 0x4B0FC, offset: 0x4B0FC, size: 0x8, addend: 0x0, symName: __ZNSt3__116allocator_traitsINS_9allocatorIcEEE8allocateB8ne180100ERS2_m, symObjAddr: 0x115E0, symBinAddr: 0x100012A1C, symSize: 0x2C }
  - { offsetInCU: 0x4B12F, offset: 0x4B12F, size: 0x8, addend: 0x0, symName: __ZNSt3__117__compressed_pairINS_12basic_stringIcNS_11char_traitsIcEENS_9allocatorIcEEE5__repES5_EC2B8ne180100INS_18__default_init_tagERKS5_EEOT_OT0_, symObjAddr: 0x1160C, symBinAddr: 0x100012A48, symSize: 0x40 }
  - { offsetInCU: 0x4B187, offset: 0x4B187, size: 0x8, addend: 0x0, symName: __ZNSt3__122__compressed_pair_elemINS_9allocatorIcEELi1ELb1EEC2B8ne180100IRKS2_vEEOT_, symObjAddr: 0x1164C, symBinAddr: 0x100012A88, symSize: 0x18 }
  - { offsetInCU: 0x4B1EF, offset: 0x4B1EF, size: 0x8, addend: 0x0, symName: __ZNKSt3__114__copy_trivialclB8ne180100IKccLi0EEENS_4pairIPT_PT0_EES5_S5_S7_, symObjAddr: 0x11884, symBinAddr: 0x100012CC0, symSize: 0x48 }
  - { offsetInCU: 0x4B279, offset: 0x4B279, size: 0x8, addend: 0x0, symName: __ZNSt3__14pairIPKcS2_EC1B8ne180100IS2_S2_Li0EEEOT_OT0_, symObjAddr: 0x119EC, symBinAddr: 0x100012E28, symSize: 0x3C }
  - { offsetInCU: 0x4B2D7, offset: 0x4B2D7, size: 0x8, addend: 0x0, symName: __ZNSt3__14pairIPKcS2_EC2B8ne180100IS2_S2_Li0EEEOT_OT0_, symObjAddr: 0x11A28, symBinAddr: 0x100012E64, symSize: 0x34 }
  - { offsetInCU: 0x4B335, offset: 0x4B335, size: 0x8, addend: 0x0, symName: __ZNSt3__118__unwrap_iter_implIPKcLb1EE8__unwrapB8ne180100ES2_, symObjAddr: 0x11A5C, symBinAddr: 0x100012E98, symSize: 0x24 }
  - { offsetInCU: 0x4B35E, offset: 0x4B35E, size: 0x8, addend: 0x0, symName: __ZNSt3__14pairIPKcPcEC1B8ne180100IRS2_S3_Li0EEEOT_OT0_, symObjAddr: 0x11B94, symBinAddr: 0x100012FD0, symSize: 0x3C }
  - { offsetInCU: 0x4B3BC, offset: 0x4B3BC, size: 0x8, addend: 0x0, symName: __ZNSt3__14pairIPKcPcEC2B8ne180100IRS2_S3_Li0EEEOT_OT0_, symObjAddr: 0x11BD0, symBinAddr: 0x10001300C, symSize: 0x34 }
  - { offsetInCU: 0x4B41A, offset: 0x4B41A, size: 0x8, addend: 0x0, symName: __ZNSt3__118__unwrap_iter_implIPcLb1EE8__unwrapB8ne180100ES1_, symObjAddr: 0x11C04, symBinAddr: 0x100013040, symSize: 0x24 }
  - { offsetInCU: 0x4B43D, offset: 0x4B43D, size: 0x8, addend: 0x0, symName: __ZNSt3__14pairIPKcPcEC1B8ne180100IS2_S3_Li0EEEOT_OT0_, symObjAddr: 0x11C28, symBinAddr: 0x100013064, symSize: 0x3C }
  - { offsetInCU: 0x4B49B, offset: 0x4B49B, size: 0x8, addend: 0x0, symName: __ZNSt3__14pairIPKcPcEC2B8ne180100IS2_S3_Li0EEEOT_OT0_, symObjAddr: 0x11C64, symBinAddr: 0x1000130A0, symSize: 0x34 }
  - { offsetInCU: 0x4B4F9, offset: 0x4B4F9, size: 0x8, addend: 0x0, symName: __ZNSt3__118__unwrap_iter_implIPKcLb1EE8__rewrapB8ne180100ES2_S2_, symObjAddr: 0x11CD4, symBinAddr: 0x100013110, symSize: 0x48 }
  - { offsetInCU: 0x4B52A, offset: 0x4B52A, size: 0x8, addend: 0x0, symName: __ZNSt3__118__unwrap_iter_implIPcLb1EE8__rewrapB8ne180100ES1_S1_, symObjAddr: 0x11D1C, symBinAddr: 0x100013158, symSize: 0x48 }
  - { offsetInCU: 0x4B55B, offset: 0x4B55B, size: 0x8, addend: 0x0, symName: __ZNSt3__114basic_ifstreamIcNS_11char_traitsIcEEED2Ev, symObjAddr: 0x11E20, symBinAddr: 0x10001325C, symSize: 0x64 }
  - { offsetInCU: 0x4B595, offset: 0x4B595, size: 0x8, addend: 0x0, symName: __ZTv0_n24_NSt3__114basic_ifstreamIcNS_11char_traitsIcEEED1Ev, symObjAddr: 0x11E84, symBinAddr: 0x1000132C0, symSize: 0x28 }
  - { offsetInCU: 0x4B5AC, offset: 0x4B5AC, size: 0x8, addend: 0x0, symName: __ZNSt3__119basic_istringstreamIcNS_11char_traitsIcEENS_9allocatorIcEEED2Ev, symObjAddr: 0x11EAC, symBinAddr: 0x1000132E8, symSize: 0x64 }
  - { offsetInCU: 0x4B5E6, offset: 0x4B5E6, size: 0x8, addend: 0x0, symName: __ZTv0_n24_NSt3__119basic_istringstreamIcNS_11char_traitsIcEENS_9allocatorIcEEED1Ev, symObjAddr: 0x11F10, symBinAddr: 0x10001334C, symSize: 0x28 }
  - { offsetInCU: 0x4B5FD, offset: 0x4B5FD, size: 0x8, addend: 0x0, symName: __ZN7tinyobj18MaterialFileReaderC2ERKNSt3__112basic_stringIcNS1_11char_traitsIcEENS1_9allocatorIcEEEE, symObjAddr: 0x11F38, symBinAddr: 0x100013374, symSize: 0x80 }
  - { offsetInCU: 0x4B636, offset: 0x4B636, size: 0x8, addend: 0x0, symName: __ZN7tinyobj14MaterialReaderC2Ev, symObjAddr: 0x11FB8, symBinAddr: 0x1000133F4, symSize: 0x24 }
  - { offsetInCU: 0x4B660, offset: 0x4B660, size: 0x8, addend: 0x0, symName: __ZN7tinyobj18MaterialFileReaderD2Ev, symObjAddr: 0x11FDC, symBinAddr: 0x100013418, symSize: 0x48 }
  - { offsetInCU: 0x4B68A, offset: 0x4B68A, size: 0x8, addend: 0x0, symName: __ZN7tinyobj9PrimGroupC2Ev, symObjAddr: 0x12024, symBinAddr: 0x100013460, symSize: 0x44 }
  - { offsetInCU: 0x4B6B7, offset: 0x4B6B7, size: 0x8, addend: 0x0, symName: __ZNSt3__16vectorIN7tinyobj6face_tENS_9allocatorIS2_EEEC1B8ne180100Ev, symObjAddr: 0x12068, symBinAddr: 0x1000134A4, symSize: 0x2C }
  - { offsetInCU: 0x4B6E1, offset: 0x4B6E1, size: 0x8, addend: 0x0, symName: __ZNSt3__16vectorIN7tinyobj8__line_tENS_9allocatorIS2_EEEC1B8ne180100Ev, symObjAddr: 0x12094, symBinAddr: 0x1000134D0, symSize: 0x2C }
  - { offsetInCU: 0x4B70B, offset: 0x4B70B, size: 0x8, addend: 0x0, symName: __ZNSt3__16vectorIN7tinyobj10__points_tENS_9allocatorIS2_EEEC1B8ne180100Ev, symObjAddr: 0x120C0, symBinAddr: 0x1000134FC, symSize: 0x2C }
  - { offsetInCU: 0x4B735, offset: 0x4B735, size: 0x8, addend: 0x0, symName: __ZNSt3__16vectorIN7tinyobj6face_tENS_9allocatorIS2_EEEC2B8ne180100Ev, symObjAddr: 0x120EC, symBinAddr: 0x100013528, symSize: 0x4C }
  - { offsetInCU: 0x4B765, offset: 0x4B765, size: 0x8, addend: 0x0, symName: __ZNSt3__117__compressed_pairIPN7tinyobj6face_tENS_9allocatorIS2_EEEC1B8ne180100IDnNS_18__default_init_tagEEEOT_OT0_, symObjAddr: 0x12138, symBinAddr: 0x100013574, symSize: 0x3C }
  - { offsetInCU: 0x4B7BD, offset: 0x4B7BD, size: 0x8, addend: 0x0, symName: __ZNSt3__117__compressed_pairIPN7tinyobj6face_tENS_9allocatorIS2_EEEC2B8ne180100IDnNS_18__default_init_tagEEEOT_OT0_, symObjAddr: 0x12174, symBinAddr: 0x1000135B0, symSize: 0x40 }
  - { offsetInCU: 0x4B815, offset: 0x4B815, size: 0x8, addend: 0x0, symName: __ZNSt3__122__compressed_pair_elemIPN7tinyobj6face_tELi0ELb0EEC2B8ne180100IDnvEEOT_, symObjAddr: 0x121B4, symBinAddr: 0x1000135F0, symSize: 0x1C }
  - { offsetInCU: 0x4B857, offset: 0x4B857, size: 0x8, addend: 0x0, symName: __ZNSt3__122__compressed_pair_elemINS_9allocatorIN7tinyobj6face_tEEELi1ELb1EEC2B8ne180100ENS_18__default_init_tagE, symObjAddr: 0x121D0, symBinAddr: 0x10001360C, symSize: 0x2C }
  - { offsetInCU: 0x4B88C, offset: 0x4B88C, size: 0x8, addend: 0x0, symName: __ZNSt3__19allocatorIN7tinyobj6face_tEEC2B8ne180100Ev, symObjAddr: 0x121FC, symBinAddr: 0x100013638, symSize: 0x2C }
  - { offsetInCU: 0x4B8B6, offset: 0x4B8B6, size: 0x8, addend: 0x0, symName: __ZNSt3__116__non_trivial_ifILb1ENS_9allocatorIN7tinyobj6face_tEEEEC2B8ne180100Ev, symObjAddr: 0x12228, symBinAddr: 0x100013664, symSize: 0x14 }
  - { offsetInCU: 0x4B8E0, offset: 0x4B8E0, size: 0x8, addend: 0x0, symName: __ZNSt3__16vectorIN7tinyobj8__line_tENS_9allocatorIS2_EEEC2B8ne180100Ev, symObjAddr: 0x1223C, symBinAddr: 0x100013678, symSize: 0x4C }
  - { offsetInCU: 0x4B90A, offset: 0x4B90A, size: 0x8, addend: 0x0, symName: __ZNSt3__117__compressed_pairIPN7tinyobj8__line_tENS_9allocatorIS2_EEEC1B8ne180100IDnNS_18__default_init_tagEEEOT_OT0_, symObjAddr: 0x12288, symBinAddr: 0x1000136C4, symSize: 0x3C }
  - { offsetInCU: 0x4B962, offset: 0x4B962, size: 0x8, addend: 0x0, symName: __ZNSt3__117__compressed_pairIPN7tinyobj8__line_tENS_9allocatorIS2_EEEC2B8ne180100IDnNS_18__default_init_tagEEEOT_OT0_, symObjAddr: 0x122C4, symBinAddr: 0x100013700, symSize: 0x40 }
  - { offsetInCU: 0x4B9BA, offset: 0x4B9BA, size: 0x8, addend: 0x0, symName: __ZNSt3__122__compressed_pair_elemIPN7tinyobj8__line_tELi0ELb0EEC2B8ne180100IDnvEEOT_, symObjAddr: 0x12304, symBinAddr: 0x100013740, symSize: 0x1C }
  - { offsetInCU: 0x4B9FC, offset: 0x4B9FC, size: 0x8, addend: 0x0, symName: __ZNSt3__122__compressed_pair_elemINS_9allocatorIN7tinyobj8__line_tEEELi1ELb1EEC2B8ne180100ENS_18__default_init_tagE, symObjAddr: 0x12320, symBinAddr: 0x10001375C, symSize: 0x2C }
  - { offsetInCU: 0x4BA31, offset: 0x4BA31, size: 0x8, addend: 0x0, symName: __ZNSt3__19allocatorIN7tinyobj8__line_tEEC2B8ne180100Ev, symObjAddr: 0x1234C, symBinAddr: 0x100013788, symSize: 0x2C }
  - { offsetInCU: 0x4BA5B, offset: 0x4BA5B, size: 0x8, addend: 0x0, symName: __ZNSt3__116__non_trivial_ifILb1ENS_9allocatorIN7tinyobj8__line_tEEEEC2B8ne180100Ev, symObjAddr: 0x12378, symBinAddr: 0x1000137B4, symSize: 0x14 }
  - { offsetInCU: 0x4BA85, offset: 0x4BA85, size: 0x8, addend: 0x0, symName: __ZNSt3__16vectorIN7tinyobj10__points_tENS_9allocatorIS2_EEEC2B8ne180100Ev, symObjAddr: 0x1238C, symBinAddr: 0x1000137C8, symSize: 0x4C }
  - { offsetInCU: 0x4BAAF, offset: 0x4BAAF, size: 0x8, addend: 0x0, symName: __ZNSt3__117__compressed_pairIPN7tinyobj10__points_tENS_9allocatorIS2_EEEC1B8ne180100IDnNS_18__default_init_tagEEEOT_OT0_, symObjAddr: 0x123D8, symBinAddr: 0x100013814, symSize: 0x3C }
  - { offsetInCU: 0x4BB07, offset: 0x4BB07, size: 0x8, addend: 0x0, symName: __ZNSt3__117__compressed_pairIPN7tinyobj10__points_tENS_9allocatorIS2_EEEC2B8ne180100IDnNS_18__default_init_tagEEEOT_OT0_, symObjAddr: 0x12414, symBinAddr: 0x100013850, symSize: 0x40 }
  - { offsetInCU: 0x4BB5F, offset: 0x4BB5F, size: 0x8, addend: 0x0, symName: __ZNSt3__122__compressed_pair_elemIPN7tinyobj10__points_tELi0ELb0EEC2B8ne180100IDnvEEOT_, symObjAddr: 0x12454, symBinAddr: 0x100013890, symSize: 0x1C }
  - { offsetInCU: 0x4BBA1, offset: 0x4BBA1, size: 0x8, addend: 0x0, symName: __ZNSt3__122__compressed_pair_elemINS_9allocatorIN7tinyobj10__points_tEEELi1ELb1EEC2B8ne180100ENS_18__default_init_tagE, symObjAddr: 0x12470, symBinAddr: 0x1000138AC, symSize: 0x2C }
  - { offsetInCU: 0x4BBD6, offset: 0x4BBD6, size: 0x8, addend: 0x0, symName: __ZNSt3__19allocatorIN7tinyobj10__points_tEEC2B8ne180100Ev, symObjAddr: 0x1249C, symBinAddr: 0x1000138D8, symSize: 0x2C }
  - { offsetInCU: 0x4BC00, offset: 0x4BC00, size: 0x8, addend: 0x0, symName: __ZNSt3__116__non_trivial_ifILb1ENS_9allocatorIN7tinyobj10__points_tEEEEC2B8ne180100Ev, symObjAddr: 0x124C8, symBinAddr: 0x100013904, symSize: 0x14 }
  - { offsetInCU: 0x4BC2A, offset: 0x4BC2A, size: 0x8, addend: 0x0, symName: __ZN7tinyobj7shape_tC2Ev, symObjAddr: 0x124DC, symBinAddr: 0x100013918, symSize: 0x50 }
  - { offsetInCU: 0x4BC5C, offset: 0x4BC5C, size: 0x8, addend: 0x0, symName: __ZN7tinyobj6mesh_tC1Ev, symObjAddr: 0x1252C, symBinAddr: 0x100013968, symSize: 0x2C }
  - { offsetInCU: 0x4BC8E, offset: 0x4BC8E, size: 0x8, addend: 0x0, symName: __ZN7tinyobj7lines_tC1Ev, symObjAddr: 0x12558, symBinAddr: 0x100013994, symSize: 0x2C }
  - { offsetInCU: 0x4BCC0, offset: 0x4BCC0, size: 0x8, addend: 0x0, symName: __ZN7tinyobj8points_tC1Ev, symObjAddr: 0x12584, symBinAddr: 0x1000139C0, symSize: 0x2C }
  - { offsetInCU: 0x4BCED, offset: 0x4BCED, size: 0x8, addend: 0x0, symName: __ZN7tinyobj6mesh_tC2Ev, symObjAddr: 0x125B0, symBinAddr: 0x1000139EC, symSize: 0x5C }
  - { offsetInCU: 0x4BD1A, offset: 0x4BD1A, size: 0x8, addend: 0x0, symName: __ZNSt3__16vectorIiNS_9allocatorIiEEEC1B8ne180100Ev, symObjAddr: 0x1260C, symBinAddr: 0x100013A48, symSize: 0x2C }
  - { offsetInCU: 0x4BD44, offset: 0x4BD44, size: 0x8, addend: 0x0, symName: __ZNSt3__16vectorIiNS_9allocatorIiEEEC2B8ne180100Ev, symObjAddr: 0x12638, symBinAddr: 0x100013A74, symSize: 0x4C }
  - { offsetInCU: 0x4BD6E, offset: 0x4BD6E, size: 0x8, addend: 0x0, symName: __ZNSt3__117__compressed_pairIPiNS_9allocatorIiEEEC1B8ne180100IDnNS_18__default_init_tagEEEOT_OT0_, symObjAddr: 0x12684, symBinAddr: 0x100013AC0, symSize: 0x3C }
  - { offsetInCU: 0x4BDC6, offset: 0x4BDC6, size: 0x8, addend: 0x0, symName: __ZNSt3__117__compressed_pairIPiNS_9allocatorIiEEEC2B8ne180100IDnNS_18__default_init_tagEEEOT_OT0_, symObjAddr: 0x126C0, symBinAddr: 0x100013AFC, symSize: 0x40 }
  - { offsetInCU: 0x4BE1E, offset: 0x4BE1E, size: 0x8, addend: 0x0, symName: __ZNSt3__122__compressed_pair_elemIPiLi0ELb0EEC2B8ne180100IDnvEEOT_, symObjAddr: 0x12700, symBinAddr: 0x100013B3C, symSize: 0x1C }
  - { offsetInCU: 0x4BE60, offset: 0x4BE60, size: 0x8, addend: 0x0, symName: __ZNSt3__122__compressed_pair_elemINS_9allocatorIiEELi1ELb1EEC2B8ne180100ENS_18__default_init_tagE, symObjAddr: 0x1271C, symBinAddr: 0x100013B58, symSize: 0x2C }
  - { offsetInCU: 0x4BE95, offset: 0x4BE95, size: 0x8, addend: 0x0, symName: __ZNSt3__19allocatorIiEC2B8ne180100Ev, symObjAddr: 0x12748, symBinAddr: 0x100013B84, symSize: 0x2C }
  - { offsetInCU: 0x4BEBF, offset: 0x4BEBF, size: 0x8, addend: 0x0, symName: __ZNSt3__116__non_trivial_ifILb1ENS_9allocatorIiEEEC2B8ne180100Ev, symObjAddr: 0x12774, symBinAddr: 0x100013BB0, symSize: 0x14 }
  - { offsetInCU: 0x4BEE9, offset: 0x4BEE9, size: 0x8, addend: 0x0, symName: __ZN7tinyobj7lines_tC2Ev, symObjAddr: 0x12788, symBinAddr: 0x100013BC4, symSize: 0x38 }
  - { offsetInCU: 0x4BF16, offset: 0x4BF16, size: 0x8, addend: 0x0, symName: __ZN7tinyobj8points_tC2Ev, symObjAddr: 0x127C0, symBinAddr: 0x100013BFC, symSize: 0x2C }
  - { offsetInCU: 0x4BF43, offset: 0x4BF43, size: 0x8, addend: 0x0, symName: __ZN7tinyobj13skin_weight_tC2Ev, symObjAddr: 0x128B8, symBinAddr: 0x100013CF4, symSize: 0x30 }
  - { offsetInCU: 0x4BF70, offset: 0x4BF70, size: 0x8, addend: 0x0, symName: __ZNSt3__16vectorIN7tinyobj18joint_and_weight_tENS_9allocatorIS2_EEEC1B8ne180100Ev, symObjAddr: 0x128E8, symBinAddr: 0x100013D24, symSize: 0x2C }
  - { offsetInCU: 0x4BF9A, offset: 0x4BF9A, size: 0x8, addend: 0x0, symName: __ZNSt3__16vectorIN7tinyobj18joint_and_weight_tENS_9allocatorIS2_EEEC2B8ne180100Ev, symObjAddr: 0x12914, symBinAddr: 0x100013D50, symSize: 0x4C }
  - { offsetInCU: 0x4BFC4, offset: 0x4BFC4, size: 0x8, addend: 0x0, symName: __ZNSt3__117__compressed_pairIPN7tinyobj18joint_and_weight_tENS_9allocatorIS2_EEEC1B8ne180100IDnNS_18__default_init_tagEEEOT_OT0_, symObjAddr: 0x12960, symBinAddr: 0x100013D9C, symSize: 0x3C }
  - { offsetInCU: 0x4C01C, offset: 0x4C01C, size: 0x8, addend: 0x0, symName: __ZNSt3__117__compressed_pairIPN7tinyobj18joint_and_weight_tENS_9allocatorIS2_EEEC2B8ne180100IDnNS_18__default_init_tagEEEOT_OT0_, symObjAddr: 0x1299C, symBinAddr: 0x100013DD8, symSize: 0x40 }
  - { offsetInCU: 0x4C074, offset: 0x4C074, size: 0x8, addend: 0x0, symName: __ZNSt3__122__compressed_pair_elemIPN7tinyobj18joint_and_weight_tELi0ELb0EEC2B8ne180100IDnvEEOT_, symObjAddr: 0x129DC, symBinAddr: 0x100013E18, symSize: 0x1C }
  - { offsetInCU: 0x4C0B6, offset: 0x4C0B6, size: 0x8, addend: 0x0, symName: __ZNSt3__122__compressed_pair_elemINS_9allocatorIN7tinyobj18joint_and_weight_tEEELi1ELb1EEC2B8ne180100ENS_18__default_init_tagE, symObjAddr: 0x129F8, symBinAddr: 0x100013E34, symSize: 0x2C }
  - { offsetInCU: 0x4C0EB, offset: 0x4C0EB, size: 0x8, addend: 0x0, symName: __ZNSt3__19allocatorIN7tinyobj18joint_and_weight_tEEC2B8ne180100Ev, symObjAddr: 0x12A24, symBinAddr: 0x100013E60, symSize: 0x2C }
  - { offsetInCU: 0x4C115, offset: 0x4C115, size: 0x8, addend: 0x0, symName: __ZNSt3__116__non_trivial_ifILb1ENS_9allocatorIN7tinyobj18joint_and_weight_tEEEEC2B8ne180100Ev, symObjAddr: 0x12A50, symBinAddr: 0x100013E8C, symSize: 0x14 }
  - { offsetInCU: 0x4C13F, offset: 0x4C13F, size: 0x8, addend: 0x0, symName: __ZN7tinyobj13skin_weight_tD2Ev, symObjAddr: 0x12A64, symBinAddr: 0x100013EA0, symSize: 0x30 }
  - { offsetInCU: 0x4C16C, offset: 0x4C16C, size: 0x8, addend: 0x0, symName: __ZNSt3__16vectorIN7tinyobj18joint_and_weight_tENS_9allocatorIS2_EEED1B8ne180100Ev, symObjAddr: 0x12A94, symBinAddr: 0x100013ED0, symSize: 0x2C }
  - { offsetInCU: 0x4C196, offset: 0x4C196, size: 0x8, addend: 0x0, symName: __ZNSt3__16vectorIN7tinyobj18joint_and_weight_tENS_9allocatorIS2_EEED2B8ne180100Ev, symObjAddr: 0x12AC0, symBinAddr: 0x100013EFC, symSize: 0x44 }
  - { offsetInCU: 0x4C1C0, offset: 0x4C1C0, size: 0x8, addend: 0x0, symName: __ZNSt3__16vectorIN7tinyobj18joint_and_weight_tENS_9allocatorIS2_EEE16__destroy_vectorC1B8ne180100ERS5_, symObjAddr: 0x12B04, symBinAddr: 0x100013F40, symSize: 0x34 }
  - { offsetInCU: 0x4C1F9, offset: 0x4C1F9, size: 0x8, addend: 0x0, symName: __ZNSt3__16vectorIN7tinyobj18joint_and_weight_tENS_9allocatorIS2_EEE16__destroy_vectorclB8ne180100Ev, symObjAddr: 0x12B38, symBinAddr: 0x100013F74, symSize: 0x90 }
  - { offsetInCU: 0x4C21F, offset: 0x4C21F, size: 0x8, addend: 0x0, symName: __ZNSt3__16vectorIN7tinyobj18joint_and_weight_tENS_9allocatorIS2_EEE16__destroy_vectorC2B8ne180100ERS5_, symObjAddr: 0x12BC8, symBinAddr: 0x100014004, symSize: 0x20 }
  - { offsetInCU: 0x4C258, offset: 0x4C258, size: 0x8, addend: 0x0, symName: __ZNSt3__16vectorIN7tinyobj18joint_and_weight_tENS_9allocatorIS2_EEE7__clearB8ne180100Ev, symObjAddr: 0x12BE8, symBinAddr: 0x100014024, symSize: 0x28 }
  - { offsetInCU: 0x4C27E, offset: 0x4C27E, size: 0x8, addend: 0x0, symName: __ZNKSt3__16vectorIN7tinyobj18joint_and_weight_tENS_9allocatorIS2_EEE17__annotate_deleteB8ne180100Ev, symObjAddr: 0x12C10, symBinAddr: 0x10001404C, symSize: 0x10 }
  - { offsetInCU: 0x4C2A4, offset: 0x4C2A4, size: 0x8, addend: 0x0, symName: __ZNSt3__116allocator_traitsINS_9allocatorIN7tinyobj18joint_and_weight_tEEEE10deallocateB8ne180100ERS4_PS3_m, symObjAddr: 0x12C20, symBinAddr: 0x10001405C, symSize: 0x34 }
  - { offsetInCU: 0x4C2E6, offset: 0x4C2E6, size: 0x8, addend: 0x0, symName: __ZNSt3__16vectorIN7tinyobj18joint_and_weight_tENS_9allocatorIS2_EEE7__allocB8ne180100Ev, symObjAddr: 0x12C54, symBinAddr: 0x100014090, symSize: 0x28 }
  - { offsetInCU: 0x4C30C, offset: 0x4C30C, size: 0x8, addend: 0x0, symName: __ZNKSt3__16vectorIN7tinyobj18joint_and_weight_tENS_9allocatorIS2_EEE8capacityB8ne180100Ev, symObjAddr: 0x12C7C, symBinAddr: 0x1000140B8, symSize: 0x40 }
  - { offsetInCU: 0x4C332, offset: 0x4C332, size: 0x8, addend: 0x0, symName: __ZNSt3__16vectorIN7tinyobj18joint_and_weight_tENS_9allocatorIS2_EEE22__base_destruct_at_endB8ne180100EPS2_, symObjAddr: 0x12CBC, symBinAddr: 0x1000140F8, symSize: 0x8C }
  - { offsetInCU: 0x4C376, offset: 0x4C376, size: 0x8, addend: 0x0, symName: __ZNSt3__116allocator_traitsINS_9allocatorIN7tinyobj18joint_and_weight_tEEEE7destroyB8ne180100IS3_vEEvRS4_PT_, symObjAddr: 0x12D48, symBinAddr: 0x100014184, symSize: 0x2C }
  - { offsetInCU: 0x4C3B3, offset: 0x4C3B3, size: 0x8, addend: 0x0, symName: __ZNSt3__19allocatorIN7tinyobj18joint_and_weight_tEE7destroyB8ne180100EPS2_, symObjAddr: 0x12D88, symBinAddr: 0x1000141C4, symSize: 0x14 }
  - { offsetInCU: 0x4C3E7, offset: 0x4C3E7, size: 0x8, addend: 0x0, symName: __ZNSt3__19allocatorIN7tinyobj18joint_and_weight_tEE10deallocateB8ne180100EPS2_m, symObjAddr: 0x12D9C, symBinAddr: 0x1000141D8, symSize: 0x40 }
  - { offsetInCU: 0x4C429, offset: 0x4C429, size: 0x8, addend: 0x0, symName: __ZNSt3__117__compressed_pairIPN7tinyobj18joint_and_weight_tENS_9allocatorIS2_EEE6secondB8ne180100Ev, symObjAddr: 0x12DDC, symBinAddr: 0x100014218, symSize: 0x24 }
  - { offsetInCU: 0x4C44F, offset: 0x4C44F, size: 0x8, addend: 0x0, symName: __ZNSt3__122__compressed_pair_elemINS_9allocatorIN7tinyobj18joint_and_weight_tEEELi1ELb1EE5__getB8ne180100Ev, symObjAddr: 0x12E00, symBinAddr: 0x10001423C, symSize: 0x14 }
  - { offsetInCU: 0x4C475, offset: 0x4C475, size: 0x8, addend: 0x0, symName: __ZNKSt3__16vectorIN7tinyobj18joint_and_weight_tENS_9allocatorIS2_EEE9__end_capB8ne180100Ev, symObjAddr: 0x12E14, symBinAddr: 0x100014250, symSize: 0x28 }
  - { offsetInCU: 0x4C49B, offset: 0x4C49B, size: 0x8, addend: 0x0, symName: __ZNKSt3__117__compressed_pairIPN7tinyobj18joint_and_weight_tENS_9allocatorIS2_EEE5firstB8ne180100Ev, symObjAddr: 0x12E3C, symBinAddr: 0x100014278, symSize: 0x24 }
  - { offsetInCU: 0x4C4C1, offset: 0x4C4C1, size: 0x8, addend: 0x0, symName: __ZNKSt3__122__compressed_pair_elemIPN7tinyobj18joint_and_weight_tELi0ELb0EE5__getB8ne180100Ev, symObjAddr: 0x12E60, symBinAddr: 0x10001429C, symSize: 0x14 }
  - { offsetInCU: 0x4C4E7, offset: 0x4C4E7, size: 0x8, addend: 0x0, symName: __ZN7tinyobj8__line_tC2Ev, symObjAddr: 0x12E74, symBinAddr: 0x1000142B0, symSize: 0x2C }
  - { offsetInCU: 0x4C514, offset: 0x4C514, size: 0x8, addend: 0x0, symName: __ZNSt3__16vectorIN7tinyobj14vertex_index_tENS_9allocatorIS2_EEEC1B8ne180100Ev, symObjAddr: 0x12EA0, symBinAddr: 0x1000142DC, symSize: 0x2C }
  - { offsetInCU: 0x4C53E, offset: 0x4C53E, size: 0x8, addend: 0x0, symName: __ZNSt3__16vectorIN7tinyobj14vertex_index_tENS_9allocatorIS2_EEEC2B8ne180100Ev, symObjAddr: 0x12ECC, symBinAddr: 0x100014308, symSize: 0x4C }
  - { offsetInCU: 0x4C568, offset: 0x4C568, size: 0x8, addend: 0x0, symName: __ZNSt3__117__compressed_pairIPN7tinyobj14vertex_index_tENS_9allocatorIS2_EEEC1B8ne180100IDnNS_18__default_init_tagEEEOT_OT0_, symObjAddr: 0x12F18, symBinAddr: 0x100014354, symSize: 0x3C }
  - { offsetInCU: 0x4C5C0, offset: 0x4C5C0, size: 0x8, addend: 0x0, symName: __ZNSt3__117__compressed_pairIPN7tinyobj14vertex_index_tENS_9allocatorIS2_EEEC2B8ne180100IDnNS_18__default_init_tagEEEOT_OT0_, symObjAddr: 0x12F54, symBinAddr: 0x100014390, symSize: 0x40 }
  - { offsetInCU: 0x4C618, offset: 0x4C618, size: 0x8, addend: 0x0, symName: __ZNSt3__122__compressed_pair_elemIPN7tinyobj14vertex_index_tELi0ELb0EEC2B8ne180100IDnvEEOT_, symObjAddr: 0x12F94, symBinAddr: 0x1000143D0, symSize: 0x1C }
  - { offsetInCU: 0x4C65A, offset: 0x4C65A, size: 0x8, addend: 0x0, symName: __ZNSt3__122__compressed_pair_elemINS_9allocatorIN7tinyobj14vertex_index_tEEELi1ELb1EEC2B8ne180100ENS_18__default_init_tagE, symObjAddr: 0x12FB0, symBinAddr: 0x1000143EC, symSize: 0x2C }
  - { offsetInCU: 0x4C68F, offset: 0x4C68F, size: 0x8, addend: 0x0, symName: __ZNSt3__19allocatorIN7tinyobj14vertex_index_tEEC2B8ne180100Ev, symObjAddr: 0x12FDC, symBinAddr: 0x100014418, symSize: 0x2C }
  - { offsetInCU: 0x4C6B9, offset: 0x4C6B9, size: 0x8, addend: 0x0, symName: __ZNSt3__116__non_trivial_ifILb1ENS_9allocatorIN7tinyobj14vertex_index_tEEEEC2B8ne180100Ev, symObjAddr: 0x13008, symBinAddr: 0x100014444, symSize: 0x14 }
  - { offsetInCU: 0x4C6E3, offset: 0x4C6E3, size: 0x8, addend: 0x0, symName: __ZN7tinyobj14vertex_index_tC2Ev, symObjAddr: 0x1301C, symBinAddr: 0x100014458, symSize: 0x24 }
  - { offsetInCU: 0x4C70D, offset: 0x4C70D, size: 0x8, addend: 0x0, symName: __ZN7tinyobj14vertex_index_tC1Ei, symObjAddr: 0x13040, symBinAddr: 0x10001447C, symSize: 0x34 }
  - { offsetInCU: 0x4C746, offset: 0x4C746, size: 0x8, addend: 0x0, symName: __ZN7tinyobj14vertex_index_tC2Ei, symObjAddr: 0x132A8, symBinAddr: 0x1000146E4, symSize: 0x30 }
  - { offsetInCU: 0x4C77F, offset: 0x4C77F, size: 0x8, addend: 0x0, symName: __ZN7tinyobj8__line_tD2Ev, symObjAddr: 0x132D8, symBinAddr: 0x100014714, symSize: 0x2C }
  - { offsetInCU: 0x4C7AC, offset: 0x4C7AC, size: 0x8, addend: 0x0, symName: __ZNSt3__16vectorIN7tinyobj14vertex_index_tENS_9allocatorIS2_EEED1B8ne180100Ev, symObjAddr: 0x13304, symBinAddr: 0x100014740, symSize: 0x2C }
  - { offsetInCU: 0x4C7D6, offset: 0x4C7D6, size: 0x8, addend: 0x0, symName: __ZNSt3__16vectorIN7tinyobj14vertex_index_tENS_9allocatorIS2_EEED2B8ne180100Ev, symObjAddr: 0x13330, symBinAddr: 0x10001476C, symSize: 0x44 }
  - { offsetInCU: 0x4C800, offset: 0x4C800, size: 0x8, addend: 0x0, symName: __ZNSt3__16vectorIN7tinyobj14vertex_index_tENS_9allocatorIS2_EEE16__destroy_vectorC1B8ne180100ERS5_, symObjAddr: 0x13374, symBinAddr: 0x1000147B0, symSize: 0x34 }
  - { offsetInCU: 0x4C839, offset: 0x4C839, size: 0x8, addend: 0x0, symName: __ZNSt3__16vectorIN7tinyobj14vertex_index_tENS_9allocatorIS2_EEE16__destroy_vectorclB8ne180100Ev, symObjAddr: 0x133A8, symBinAddr: 0x1000147E4, symSize: 0x90 }
  - { offsetInCU: 0x4C85F, offset: 0x4C85F, size: 0x8, addend: 0x0, symName: __ZNSt3__16vectorIN7tinyobj14vertex_index_tENS_9allocatorIS2_EEE16__destroy_vectorC2B8ne180100ERS5_, symObjAddr: 0x13438, symBinAddr: 0x100014874, symSize: 0x20 }
  - { offsetInCU: 0x4C898, offset: 0x4C898, size: 0x8, addend: 0x0, symName: __ZNSt3__16vectorIN7tinyobj14vertex_index_tENS_9allocatorIS2_EEE7__clearB8ne180100Ev, symObjAddr: 0x13458, symBinAddr: 0x100014894, symSize: 0x28 }
  - { offsetInCU: 0x4C8BE, offset: 0x4C8BE, size: 0x8, addend: 0x0, symName: __ZNKSt3__16vectorIN7tinyobj14vertex_index_tENS_9allocatorIS2_EEE17__annotate_deleteB8ne180100Ev, symObjAddr: 0x13480, symBinAddr: 0x1000148BC, symSize: 0x10 }
  - { offsetInCU: 0x4C8E4, offset: 0x4C8E4, size: 0x8, addend: 0x0, symName: __ZNSt3__116allocator_traitsINS_9allocatorIN7tinyobj14vertex_index_tEEEE10deallocateB8ne180100ERS4_PS3_m, symObjAddr: 0x13490, symBinAddr: 0x1000148CC, symSize: 0x34 }
  - { offsetInCU: 0x4C926, offset: 0x4C926, size: 0x8, addend: 0x0, symName: __ZNSt3__16vectorIN7tinyobj14vertex_index_tENS_9allocatorIS2_EEE7__allocB8ne180100Ev, symObjAddr: 0x134C4, symBinAddr: 0x100014900, symSize: 0x28 }
  - { offsetInCU: 0x4C94C, offset: 0x4C94C, size: 0x8, addend: 0x0, symName: __ZNKSt3__16vectorIN7tinyobj14vertex_index_tENS_9allocatorIS2_EEE8capacityB8ne180100Ev, symObjAddr: 0x134EC, symBinAddr: 0x100014928, symSize: 0x40 }
  - { offsetInCU: 0x4C972, offset: 0x4C972, size: 0x8, addend: 0x0, symName: __ZNSt3__16vectorIN7tinyobj14vertex_index_tENS_9allocatorIS2_EEE22__base_destruct_at_endB8ne180100EPS2_, symObjAddr: 0x1352C, symBinAddr: 0x100014968, symSize: 0x8C }
  - { offsetInCU: 0x4C9B6, offset: 0x4C9B6, size: 0x8, addend: 0x0, symName: __ZNSt3__116allocator_traitsINS_9allocatorIN7tinyobj14vertex_index_tEEEE7destroyB8ne180100IS3_vEEvRS4_PT_, symObjAddr: 0x135B8, symBinAddr: 0x1000149F4, symSize: 0x2C }
  - { offsetInCU: 0x4C9F3, offset: 0x4C9F3, size: 0x8, addend: 0x0, symName: __ZNSt3__19allocatorIN7tinyobj14vertex_index_tEE7destroyB8ne180100EPS2_, symObjAddr: 0x135F8, symBinAddr: 0x100014A34, symSize: 0x14 }
  - { offsetInCU: 0x4CA27, offset: 0x4CA27, size: 0x8, addend: 0x0, symName: __ZNSt3__19allocatorIN7tinyobj14vertex_index_tEE10deallocateB8ne180100EPS2_m, symObjAddr: 0x1360C, symBinAddr: 0x100014A48, symSize: 0x44 }
  - { offsetInCU: 0x4CA69, offset: 0x4CA69, size: 0x8, addend: 0x0, symName: __ZNSt3__117__compressed_pairIPN7tinyobj14vertex_index_tENS_9allocatorIS2_EEE6secondB8ne180100Ev, symObjAddr: 0x13650, symBinAddr: 0x100014A8C, symSize: 0x24 }
  - { offsetInCU: 0x4CA8F, offset: 0x4CA8F, size: 0x8, addend: 0x0, symName: __ZNSt3__122__compressed_pair_elemINS_9allocatorIN7tinyobj14vertex_index_tEEELi1ELb1EE5__getB8ne180100Ev, symObjAddr: 0x13674, symBinAddr: 0x100014AB0, symSize: 0x14 }
  - { offsetInCU: 0x4CAB5, offset: 0x4CAB5, size: 0x8, addend: 0x0, symName: __ZNKSt3__16vectorIN7tinyobj14vertex_index_tENS_9allocatorIS2_EEE9__end_capB8ne180100Ev, symObjAddr: 0x13688, symBinAddr: 0x100014AC4, symSize: 0x28 }
  - { offsetInCU: 0x4CADB, offset: 0x4CADB, size: 0x8, addend: 0x0, symName: __ZNKSt3__117__compressed_pairIPN7tinyobj14vertex_index_tENS_9allocatorIS2_EEE5firstB8ne180100Ev, symObjAddr: 0x136B0, symBinAddr: 0x100014AEC, symSize: 0x24 }
  - { offsetInCU: 0x4CB01, offset: 0x4CB01, size: 0x8, addend: 0x0, symName: __ZNKSt3__122__compressed_pair_elemIPN7tinyobj14vertex_index_tELi0ELb0EE5__getB8ne180100Ev, symObjAddr: 0x136D4, symBinAddr: 0x100014B10, symSize: 0x14 }
  - { offsetInCU: 0x4CB27, offset: 0x4CB27, size: 0x8, addend: 0x0, symName: __ZN7tinyobj10__points_tC2Ev, symObjAddr: 0x136E8, symBinAddr: 0x100014B24, symSize: 0x2C }
  - { offsetInCU: 0x4CB54, offset: 0x4CB54, size: 0x8, addend: 0x0, symName: __ZN7tinyobj10__points_tD2Ev, symObjAddr: 0x13714, symBinAddr: 0x100014B50, symSize: 0x2C }
  - { offsetInCU: 0x4CB81, offset: 0x4CB81, size: 0x8, addend: 0x0, symName: __ZN7tinyobj6face_tC2Ev, symObjAddr: 0x13740, symBinAddr: 0x100014B7C, symSize: 0x38 }
  - { offsetInCU: 0x4CBAB, offset: 0x4CBAB, size: 0x8, addend: 0x0, symName: __ZN7tinyobj6face_tD2Ev, symObjAddr: 0x13778, symBinAddr: 0x100014BB4, symSize: 0x30 }
  - { offsetInCU: 0x4CBD8, offset: 0x4CBD8, size: 0x8, addend: 0x0, symName: __ZNK7tinyobj9PrimGroup7IsEmptyEv, symObjAddr: 0x137A8, symBinAddr: 0x100014BE4, symSize: 0x70 }
  - { offsetInCU: 0x4CBFE, offset: 0x4CBFE, size: 0x8, addend: 0x0, symName: __ZNKSt3__16vectorIN7tinyobj6face_tENS_9allocatorIS2_EEE5emptyB8ne180100Ev, symObjAddr: 0x13818, symBinAddr: 0x100014C54, symSize: 0x28 }
  - { offsetInCU: 0x4CC24, offset: 0x4CC24, size: 0x8, addend: 0x0, symName: __ZNKSt3__16vectorIN7tinyobj6face_tENS_9allocatorIS2_EEE4sizeB8ne180100Ev, symObjAddr: 0x13840, symBinAddr: 0x100014C7C, symSize: 0x28 }
  - { offsetInCU: 0x4CC4A, offset: 0x4CC4A, size: 0x8, addend: 0x0, symName: __ZNKSt3__16vectorIN7tinyobj6face_tENS_9allocatorIS2_EEEixB8ne180100Em, symObjAddr: 0x13868, symBinAddr: 0x100014CA4, symSize: 0x24 }
  - { offsetInCU: 0x4CC81, offset: 0x4CC81, size: 0x8, addend: 0x0, symName: __ZNKSt3__16vectorIN7tinyobj14vertex_index_tENS_9allocatorIS2_EEE4sizeB8ne180100Ev, symObjAddr: 0x1388C, symBinAddr: 0x100014CC8, symSize: 0x28 }
  - { offsetInCU: 0x4CCA7, offset: 0x4CCA7, size: 0x8, addend: 0x0, symName: __ZNKSt3__16vectorIN7tinyobj14vertex_index_tENS_9allocatorIS2_EEEixB8ne180100Em, symObjAddr: 0x138B4, symBinAddr: 0x100014CF0, symSize: 0x2C }
  - { offsetInCU: 0x4CCDE, offset: 0x4CCDE, size: 0x8, addend: 0x0, symName: __ZNKSt3__16vectorIfNS_9allocatorIfEEEixB8ne180100Em, symObjAddr: 0x138E0, symBinAddr: 0x100014D1C, symSize: 0x24 }
  - { offsetInCU: 0x4CD15, offset: 0x4CD15, size: 0x8, addend: 0x0, symName: __ZNSt3__16vectorIiNS_9allocatorIiEEE9push_backB8ne180100ERKi, symObjAddr: 0x13904, symBinAddr: 0x100014D40, symSize: 0x90 }
  - { offsetInCU: 0x4CD5B, offset: 0x4CD5B, size: 0x8, addend: 0x0, symName: __ZNSt3__16vectorIjNS_9allocatorIjEEE9push_backB8ne180100ERKj, symObjAddr: 0x13994, symBinAddr: 0x100014DD0, symSize: 0x90 }
  - { offsetInCU: 0x4CDA1, offset: 0x4CDA1, size: 0x8, addend: 0x0, symName: __ZNSt3__114numeric_limitsIfE7epsilonB8ne180100Ev, symObjAddr: 0x13A3C, symBinAddr: 0x100014E78, symSize: 0x14 }
  - { offsetInCU: 0x4CDB5, offset: 0x4CDB5, size: 0x8, addend: 0x0, symName: __ZN7tinyobj6face_tC1ERKS0_, symObjAddr: 0x13A50, symBinAddr: 0x100014E8C, symSize: 0x34 }
  - { offsetInCU: 0x4CDEB, offset: 0x4CDEB, size: 0x8, addend: 0x0, symName: __ZNSt3__16vectorIN7tinyobj14vertex_index_tENS_9allocatorIS2_EEEixB8ne180100Em, symObjAddr: 0x13A84, symBinAddr: 0x100014EC0, symSize: 0x2C }
  - { offsetInCU: 0x4CE22, offset: 0x4CE22, size: 0x8, addend: 0x0, symName: __ZNSt3__16vectorIN7tinyobj14vertex_index_tENS_9allocatorIS2_EEE8pop_backEv, symObjAddr: 0x13BF4, symBinAddr: 0x100015030, symSize: 0x2C }
  - { offsetInCU: 0x4CE4A, offset: 0x4CE4A, size: 0x8, addend: 0x0, symName: __ZNSt3__16vectorIN7tinyobj5tag_tENS_9allocatorIS2_EEEaSB8ne180100ERKS5_, symObjAddr: 0x13C20, symBinAddr: 0x10001505C, symSize: 0x68 }
  - { offsetInCU: 0x4CE81, offset: 0x4CE81, size: 0x8, addend: 0x0, symName: __ZNKSt3__16vectorIN7tinyobj8__line_tENS_9allocatorIS2_EEE5emptyB8ne180100Ev, symObjAddr: 0x13C88, symBinAddr: 0x1000150C4, symSize: 0x28 }
  - { offsetInCU: 0x4CEA7, offset: 0x4CEA7, size: 0x8, addend: 0x0, symName: __ZNKSt3__16vectorIN7tinyobj8__line_tENS_9allocatorIS2_EEE4sizeB8ne180100Ev, symObjAddr: 0x13CB0, symBinAddr: 0x1000150EC, symSize: 0x28 }
  - { offsetInCU: 0x4CECD, offset: 0x4CECD, size: 0x8, addend: 0x0, symName: __ZNKSt3__16vectorIN7tinyobj8__line_tENS_9allocatorIS2_EEEixB8ne180100Em, symObjAddr: 0x13CD8, symBinAddr: 0x100015114, symSize: 0x2C }
  - { offsetInCU: 0x4CF04, offset: 0x4CF04, size: 0x8, addend: 0x0, symName: __ZNSt3__16vectorIiNS_9allocatorIiEEE9push_backB8ne180100EOi, symObjAddr: 0x13D04, symBinAddr: 0x100015140, symSize: 0x90 }
  - { offsetInCU: 0x4CF4A, offset: 0x4CF4A, size: 0x8, addend: 0x0, symName: __ZNKSt3__16vectorIN7tinyobj10__points_tENS_9allocatorIS2_EEE5emptyB8ne180100Ev, symObjAddr: 0x13D94, symBinAddr: 0x1000151D0, symSize: 0x28 }
  - { offsetInCU: 0x4CF70, offset: 0x4CF70, size: 0x8, addend: 0x0, symName: __ZNKSt3__16vectorIN7tinyobj10__points_tENS_9allocatorIS2_EEE4sizeB8ne180100Ev, symObjAddr: 0x13DBC, symBinAddr: 0x1000151F8, symSize: 0x28 }
  - { offsetInCU: 0x4CF96, offset: 0x4CF96, size: 0x8, addend: 0x0, symName: __ZNKSt3__16vectorIN7tinyobj10__points_tENS_9allocatorIS2_EEEixB8ne180100Em, symObjAddr: 0x13DE4, symBinAddr: 0x100015220, symSize: 0x2C }
  - { offsetInCU: 0x4CFCD, offset: 0x4CFCD, size: 0x8, addend: 0x0, symName: __ZNSt3__16vectorIiNS_9allocatorIiEEE9__end_capB8ne180100Ev, symObjAddr: 0x13E10, symBinAddr: 0x10001524C, symSize: 0x28 }
  - { offsetInCU: 0x4CFF3, offset: 0x4CFF3, size: 0x8, addend: 0x0, symName: __ZNSt3__16vectorIiNS_9allocatorIiEEE22__construct_one_at_endB8ne180100IJRKiEEEvDpOT_, symObjAddr: 0x13E38, symBinAddr: 0x100015274, symSize: 0x90 }
  - { offsetInCU: 0x4D042, offset: 0x4D042, size: 0x8, addend: 0x0, symName: __ZNSt3__16vectorIiNS_9allocatorIiEEE21__push_back_slow_pathIRKiEEPiOT_, symObjAddr: 0x13EC8, symBinAddr: 0x100015304, symSize: 0xE8 }
  - { offsetInCU: 0x4D0A0, offset: 0x4D0A0, size: 0x8, addend: 0x0, symName: __ZNSt3__117__compressed_pairIPiNS_9allocatorIiEEE5firstB8ne180100Ev, symObjAddr: 0x13FB0, symBinAddr: 0x1000153EC, symSize: 0x24 }
  - { offsetInCU: 0x4D0C6, offset: 0x4D0C6, size: 0x8, addend: 0x0, symName: __ZNSt3__122__compressed_pair_elemIPiLi0ELb0EE5__getB8ne180100Ev, symObjAddr: 0x13FD4, symBinAddr: 0x100015410, symSize: 0x14 }
  - { offsetInCU: 0x4D107, offset: 0x4D107, size: 0x8, addend: 0x0, symName: __ZNSt3__16vectorIiNS_9allocatorIiEEE21_ConstructTransactionC1B8ne180100ERS3_m, symObjAddr: 0x13FE8, symBinAddr: 0x100015424, symSize: 0x3C }
  - { offsetInCU: 0x4D14F, offset: 0x4D14F, size: 0x8, addend: 0x0, symName: __ZNSt3__116allocator_traitsINS_9allocatorIiEEE9constructB8ne180100IiJRKiEvEEvRS2_PT_DpOT0_, symObjAddr: 0x14024, symBinAddr: 0x100015460, symSize: 0x34 }
  - { offsetInCU: 0x4D1A6, offset: 0x4D1A6, size: 0x8, addend: 0x0, symName: __ZNSt3__16vectorIiNS_9allocatorIiEEE7__allocB8ne180100Ev, symObjAddr: 0x14058, symBinAddr: 0x100015494, symSize: 0x28 }
  - { offsetInCU: 0x4D1CC, offset: 0x4D1CC, size: 0x8, addend: 0x0, symName: __ZNSt3__16vectorIiNS_9allocatorIiEEE21_ConstructTransactionD1B8ne180100Ev, symObjAddr: 0x14094, symBinAddr: 0x1000154D0, symSize: 0x2C }
  - { offsetInCU: 0x4D1F6, offset: 0x4D1F6, size: 0x8, addend: 0x0, symName: __ZNSt3__16vectorIiNS_9allocatorIiEEE21_ConstructTransactionC2B8ne180100ERS3_m, symObjAddr: 0x140C0, symBinAddr: 0x1000154FC, symSize: 0x44 }
  - { offsetInCU: 0x4D23E, offset: 0x4D23E, size: 0x8, addend: 0x0, symName: __ZNSt3__19allocatorIiE9constructB8ne180100IiJRKiEEEvPT_DpOT0_, symObjAddr: 0x14104, symBinAddr: 0x100015540, symSize: 0x28 }
  - { offsetInCU: 0x4D294, offset: 0x4D294, size: 0x8, addend: 0x0, symName: __ZNSt3__117__compressed_pairIPiNS_9allocatorIiEEE6secondB8ne180100Ev, symObjAddr: 0x1412C, symBinAddr: 0x100015568, symSize: 0x24 }
  - { offsetInCU: 0x4D2BA, offset: 0x4D2BA, size: 0x8, addend: 0x0, symName: __ZNSt3__122__compressed_pair_elemINS_9allocatorIiEELi1ELb1EE5__getB8ne180100Ev, symObjAddr: 0x14150, symBinAddr: 0x10001558C, symSize: 0x14 }
  - { offsetInCU: 0x4D2E0, offset: 0x4D2E0, size: 0x8, addend: 0x0, symName: __ZNSt3__16vectorIiNS_9allocatorIiEEE21_ConstructTransactionD2B8ne180100Ev, symObjAddr: 0x14164, symBinAddr: 0x1000155A0, symSize: 0x20 }
  - { offsetInCU: 0x4D30A, offset: 0x4D30A, size: 0x8, addend: 0x0, symName: __ZNKSt3__16vectorIiNS_9allocatorIiEEE11__recommendB8ne180100Em, symObjAddr: 0x14184, symBinAddr: 0x1000155C0, symSize: 0xB4 }
  - { offsetInCU: 0x4D35F, offset: 0x4D35F, size: 0x8, addend: 0x0, symName: __ZNKSt3__16vectorIiNS_9allocatorIiEEE4sizeB8ne180100Ev, symObjAddr: 0x14238, symBinAddr: 0x100015674, symSize: 0x28 }
  - { offsetInCU: 0x4D385, offset: 0x4D385, size: 0x8, addend: 0x0, symName: __ZNSt3__114__split_bufferIiRNS_9allocatorIiEEEC1EmmS3_, symObjAddr: 0x14260, symBinAddr: 0x10001569C, symSize: 0x44 }
  - { offsetInCU: 0x4D3DB, offset: 0x4D3DB, size: 0x8, addend: 0x0, symName: __ZNSt3__114__split_bufferIiRNS_9allocatorIiEEED1Ev, symObjAddr: 0x143B4, symBinAddr: 0x1000157F0, symSize: 0x2C }
  - { offsetInCU: 0x4D407, offset: 0x4D407, size: 0x8, addend: 0x0, symName: __ZNKSt3__16vectorIiNS_9allocatorIiEEE8max_sizeEv, symObjAddr: 0x143E0, symBinAddr: 0x10001581C, symSize: 0x60 }
  - { offsetInCU: 0x4D42F, offset: 0x4D42F, size: 0x8, addend: 0x0, symName: __ZNKSt3__16vectorIiNS_9allocatorIiEEE20__throw_length_errorB8ne180100Ev, symObjAddr: 0x14440, symBinAddr: 0x10001587C, symSize: 0x1C }
  - { offsetInCU: 0x4D455, offset: 0x4D455, size: 0x8, addend: 0x0, symName: __ZNKSt3__16vectorIiNS_9allocatorIiEEE8capacityB8ne180100Ev, symObjAddr: 0x1445C, symBinAddr: 0x100015898, symSize: 0x40 }
  - { offsetInCU: 0x4D486, offset: 0x4D486, size: 0x8, addend: 0x0, symName: __ZNSt3__116allocator_traitsINS_9allocatorIiEEE8max_sizeB8ne180100IS2_vEEmRKS2_, symObjAddr: 0x144F4, symBinAddr: 0x100015930, symSize: 0x24 }
  - { offsetInCU: 0x4D4B4, offset: 0x4D4B4, size: 0x8, addend: 0x0, symName: __ZNKSt3__16vectorIiNS_9allocatorIiEEE7__allocB8ne180100Ev, symObjAddr: 0x14518, symBinAddr: 0x100015954, symSize: 0x28 }
  - { offsetInCU: 0x4D4DA, offset: 0x4D4DA, size: 0x8, addend: 0x0, symName: __ZNSt3__114numeric_limitsIlE3maxB8ne180100Ev, symObjAddr: 0x14540, symBinAddr: 0x10001597C, symSize: 0x14 }
  - { offsetInCU: 0x4D4F8, offset: 0x4D4F8, size: 0x8, addend: 0x0, symName: __ZNKSt3__16__lessIvvEclB8ne180100ImmEEbRKT_RKT0_, symObjAddr: 0x145A8, symBinAddr: 0x1000159E4, symSize: 0x34 }
  - { offsetInCU: 0x4D54C, offset: 0x4D54C, size: 0x8, addend: 0x0, symName: __ZNKSt3__19allocatorIiE8max_sizeB8ne180100Ev, symObjAddr: 0x145DC, symBinAddr: 0x100015A18, symSize: 0x14 }
  - { offsetInCU: 0x4D572, offset: 0x4D572, size: 0x8, addend: 0x0, symName: __ZNKSt3__117__compressed_pairIPiNS_9allocatorIiEEE6secondB8ne180100Ev, symObjAddr: 0x145F0, symBinAddr: 0x100015A2C, symSize: 0x24 }
  - { offsetInCU: 0x4D598, offset: 0x4D598, size: 0x8, addend: 0x0, symName: __ZNKSt3__122__compressed_pair_elemINS_9allocatorIiEELi1ELb1EE5__getB8ne180100Ev, symObjAddr: 0x14614, symBinAddr: 0x100015A50, symSize: 0x14 }
  - { offsetInCU: 0x4D5BE, offset: 0x4D5BE, size: 0x8, addend: 0x0, symName: __ZNSt3__123__libcpp_numeric_limitsIlLb1EE3maxB8ne180100Ev, symObjAddr: 0x14628, symBinAddr: 0x100015A64, symSize: 0x8 }
  - { offsetInCU: 0x4D5D2, offset: 0x4D5D2, size: 0x8, addend: 0x0, symName: __ZNKSt3__16vectorIiNS_9allocatorIiEEE9__end_capB8ne180100Ev, symObjAddr: 0x14630, symBinAddr: 0x100015A6C, symSize: 0x28 }
  - { offsetInCU: 0x4D5F8, offset: 0x4D5F8, size: 0x8, addend: 0x0, symName: __ZNKSt3__117__compressed_pairIPiNS_9allocatorIiEEE5firstB8ne180100Ev, symObjAddr: 0x14658, symBinAddr: 0x100015A94, symSize: 0x24 }
  - { offsetInCU: 0x4D61E, offset: 0x4D61E, size: 0x8, addend: 0x0, symName: __ZNKSt3__122__compressed_pair_elemIPiLi0ELb0EE5__getB8ne180100Ev, symObjAddr: 0x1467C, symBinAddr: 0x100015AB8, symSize: 0x14 }
  - { offsetInCU: 0x4D644, offset: 0x4D644, size: 0x8, addend: 0x0, symName: __ZNSt3__114__split_bufferIiRNS_9allocatorIiEEEC2EmmS3_, symObjAddr: 0x146E4, symBinAddr: 0x100015B20, symSize: 0xD4 }
  - { offsetInCU: 0x4D6B7, offset: 0x4D6B7, size: 0x8, addend: 0x0, symName: __ZNSt3__117__compressed_pairIPiRNS_9allocatorIiEEEC1B8ne180100IDnS4_EEOT_OT0_, symObjAddr: 0x147B8, symBinAddr: 0x100015BF4, symSize: 0x3C }
  - { offsetInCU: 0x4D70F, offset: 0x4D70F, size: 0x8, addend: 0x0, symName: __ZNSt3__114__split_bufferIiRNS_9allocatorIiEEE7__allocB8ne180100Ev, symObjAddr: 0x14834, symBinAddr: 0x100015C70, symSize: 0x28 }
  - { offsetInCU: 0x4D735, offset: 0x4D735, size: 0x8, addend: 0x0, symName: __ZNSt3__114__split_bufferIiRNS_9allocatorIiEEE9__end_capB8ne180100Ev, symObjAddr: 0x1485C, symBinAddr: 0x100015C98, symSize: 0x28 }
  - { offsetInCU: 0x4D75B, offset: 0x4D75B, size: 0x8, addend: 0x0, symName: __ZNSt3__117__compressed_pairIPiRNS_9allocatorIiEEEC2B8ne180100IDnS4_EEOT_OT0_, symObjAddr: 0x14884, symBinAddr: 0x100015CC0, symSize: 0x48 }
  - { offsetInCU: 0x4D7B3, offset: 0x4D7B3, size: 0x8, addend: 0x0, symName: __ZNSt3__122__compressed_pair_elemIRNS_9allocatorIiEELi1ELb0EEC2B8ne180100IS3_vEEOT_, symObjAddr: 0x148CC, symBinAddr: 0x100015D08, symSize: 0x20 }
  - { offsetInCU: 0x4D7F5, offset: 0x4D7F5, size: 0x8, addend: 0x0, symName: __ZNSt3__19allocatorIiE8allocateB8ne180100Em, symObjAddr: 0x148EC, symBinAddr: 0x100015D28, symSize: 0x58 }
  - { offsetInCU: 0x4D829, offset: 0x4D829, size: 0x8, addend: 0x0, symName: __ZNSt3__117__compressed_pairIPiRNS_9allocatorIiEEE6secondB8ne180100Ev, symObjAddr: 0x14944, symBinAddr: 0x100015D80, symSize: 0x28 }
  - { offsetInCU: 0x4D84F, offset: 0x4D84F, size: 0x8, addend: 0x0, symName: __ZNSt3__122__compressed_pair_elemIRNS_9allocatorIiEELi1ELb0EE5__getB8ne180100Ev, symObjAddr: 0x1496C, symBinAddr: 0x100015DA8, symSize: 0x18 }
  - { offsetInCU: 0x4D875, offset: 0x4D875, size: 0x8, addend: 0x0, symName: __ZNSt3__117__compressed_pairIPiRNS_9allocatorIiEEE5firstB8ne180100Ev, symObjAddr: 0x14984, symBinAddr: 0x100015DC0, symSize: 0x24 }
  - { offsetInCU: 0x4D89B, offset: 0x4D89B, size: 0x8, addend: 0x0, symName: __ZNKSt3__16vectorIiNS_9allocatorIiEEE17__annotate_deleteB8ne180100Ev, symObjAddr: 0x149A8, symBinAddr: 0x100015DE4, symSize: 0x10 }
  - { offsetInCU: 0x4D8C1, offset: 0x4D8C1, size: 0x8, addend: 0x0, symName: __ZNSt3__116reverse_iteratorIPiEC1B8ne180100ES1_, symObjAddr: 0x14A30, symBinAddr: 0x100015E6C, symSize: 0x34 }
  - { offsetInCU: 0x4D8F9, offset: 0x4D8F9, size: 0x8, addend: 0x0, symName: __ZNKSt3__116reverse_iteratorIPiE4baseB8ne180100Ev, symObjAddr: 0x14A64, symBinAddr: 0x100015EA0, symSize: 0x18 }
  - { offsetInCU: 0x4D91F, offset: 0x4D91F, size: 0x8, addend: 0x0, symName: __ZNKSt3__16vectorIiNS_9allocatorIiEEE14__annotate_newB8ne180100Em, symObjAddr: 0x14AB8, symBinAddr: 0x100015EF4, symSize: 0x14 }
  - { offsetInCU: 0x4D97A, offset: 0x4D97A, size: 0x8, addend: 0x0, symName: __ZNKSt3__111__move_loopINS_17_ClassicAlgPolicyEEclB8ne180100INS_16reverse_iteratorIPiEES6_S6_EENS_4pairIT_T1_EES8_T0_S9_, symObjAddr: 0x14DBC, symBinAddr: 0x1000161F8, symSize: 0xA0 }
  - { offsetInCU: 0x4D9EB, offset: 0x4D9EB, size: 0x8, addend: 0x0, symName: __ZNSt3__18_IterOpsINS_17_ClassicAlgPolicyEE11__iter_moveB8ne180100IRNS_16reverse_iteratorIPiEELi0EEEDTclsr3stdE4movedeclsr3stdE7declvalIRT_EEEEOS8_, symObjAddr: 0x14FF0, symBinAddr: 0x10001642C, symSize: 0x28 }
  - { offsetInCU: 0x4DA1D, offset: 0x4DA1D, size: 0x8, addend: 0x0, symName: __ZNKSt3__116reverse_iteratorIPiEdeB8ne180100Ev, symObjAddr: 0x15018, symBinAddr: 0x100016454, symSize: 0x28 }
  - { offsetInCU: 0x4DA51, offset: 0x4DA51, size: 0x8, addend: 0x0, symName: __ZNSt3__116reverse_iteratorIPiEppB8ne180100Ev, symObjAddr: 0x15040, symBinAddr: 0x10001647C, symSize: 0x20 }
  - { offsetInCU: 0x4DA77, offset: 0x4DA77, size: 0x8, addend: 0x0, symName: __ZNSt3__18_IterOpsINS_17_ClassicAlgPolicyEE25__validate_iter_referenceB8ne180100IRNS_16reverse_iteratorIPiEEEEvv, symObjAddr: 0x15060, symBinAddr: 0x10001649C, symSize: 0x4 }
  - { offsetInCU: 0x4DA95, offset: 0x4DA95, size: 0x8, addend: 0x0, symName: __ZNSt3__118__unwrap_iter_implINS_16reverse_iteratorIPiEELb0EE8__unwrapB8ne180100ES3_, symObjAddr: 0x15064, symBinAddr: 0x1000164A0, symSize: 0x24 }
  - { offsetInCU: 0x4DABE, offset: 0x4DABE, size: 0x8, addend: 0x0, symName: __ZNSt3__14pairINS_16reverse_iteratorIPiEES3_EC1B8ne180100IS3_S3_Li0EEEOT_OT0_, symObjAddr: 0x15088, symBinAddr: 0x1000164C4, symSize: 0x3C }
  - { offsetInCU: 0x4DB1C, offset: 0x4DB1C, size: 0x8, addend: 0x0, symName: __ZNSt3__14pairINS_16reverse_iteratorIPiEES3_EC2B8ne180100IS3_S3_Li0EEEOT_OT0_, symObjAddr: 0x150C4, symBinAddr: 0x100016500, symSize: 0x34 }
  - { offsetInCU: 0x4DB7A, offset: 0x4DB7A, size: 0x8, addend: 0x0, symName: __ZNSt3__118__unwrap_iter_implINS_16reverse_iteratorIPiEELb0EE8__rewrapB8ne180100ES3_S3_, symObjAddr: 0x150F8, symBinAddr: 0x100016534, symSize: 0x2C }
  - { offsetInCU: 0x4DBA8, offset: 0x4DBA8, size: 0x8, addend: 0x0, symName: __ZNSt3__116reverse_iteratorIPiEC2B8ne180100ES1_, symObjAddr: 0x15124, symBinAddr: 0x100016560, symSize: 0x28 }
  - { offsetInCU: 0x4DBE0, offset: 0x4DBE0, size: 0x8, addend: 0x0, symName: __ZNSt3__114__split_bufferIiRNS_9allocatorIiEEED2Ev, symObjAddr: 0x1514C, symBinAddr: 0x100016588, symSize: 0x8C }
  - { offsetInCU: 0x4DC0C, offset: 0x4DC0C, size: 0x8, addend: 0x0, symName: __ZNSt3__114__split_bufferIiRNS_9allocatorIiEEE5clearB8ne180100Ev, symObjAddr: 0x151D8, symBinAddr: 0x100016614, symSize: 0x28 }
  - { offsetInCU: 0x4DC32, offset: 0x4DC32, size: 0x8, addend: 0x0, symName: __ZNSt3__116allocator_traitsINS_9allocatorIiEEE10deallocateB8ne180100ERS2_Pim, symObjAddr: 0x15200, symBinAddr: 0x10001663C, symSize: 0x34 }
  - { offsetInCU: 0x4DC74, offset: 0x4DC74, size: 0x8, addend: 0x0, symName: __ZNKSt3__114__split_bufferIiRNS_9allocatorIiEEE8capacityB8ne180100Ev, symObjAddr: 0x15234, symBinAddr: 0x100016670, symSize: 0x40 }
  - { offsetInCU: 0x4DC9A, offset: 0x4DC9A, size: 0x8, addend: 0x0, symName: __ZNSt3__114__split_bufferIiRNS_9allocatorIiEEE17__destruct_at_endB8ne180100EPi, symObjAddr: 0x15274, symBinAddr: 0x1000166B0, symSize: 0x2C }
  - { offsetInCU: 0x4DCCE, offset: 0x4DCCE, size: 0x8, addend: 0x0, symName: __ZNSt3__114__split_bufferIiRNS_9allocatorIiEEE17__destruct_at_endB8ne180100EPiNS_17integral_constantIbLb0EEE, symObjAddr: 0x152A0, symBinAddr: 0x1000166DC, symSize: 0x80 }
  - { offsetInCU: 0x4DD0F, offset: 0x4DD0F, size: 0x8, addend: 0x0, symName: __ZNSt3__116allocator_traitsINS_9allocatorIiEEE7destroyB8ne180100IivEEvRS2_PT_, symObjAddr: 0x15320, symBinAddr: 0x10001675C, symSize: 0x2C }
  - { offsetInCU: 0x4DD4C, offset: 0x4DD4C, size: 0x8, addend: 0x0, symName: __ZNSt3__19allocatorIiE7destroyB8ne180100EPi, symObjAddr: 0x1534C, symBinAddr: 0x100016788, symSize: 0x14 }
  - { offsetInCU: 0x4DD80, offset: 0x4DD80, size: 0x8, addend: 0x0, symName: __ZNSt3__19allocatorIiE10deallocateB8ne180100EPim, symObjAddr: 0x15360, symBinAddr: 0x10001679C, symSize: 0x40 }
  - { offsetInCU: 0x4DDC2, offset: 0x4DDC2, size: 0x8, addend: 0x0, symName: __ZNKSt3__114__split_bufferIiRNS_9allocatorIiEEE9__end_capB8ne180100Ev, symObjAddr: 0x153A0, symBinAddr: 0x1000167DC, symSize: 0x28 }
  - { offsetInCU: 0x4DDE8, offset: 0x4DDE8, size: 0x8, addend: 0x0, symName: __ZNKSt3__117__compressed_pairIPiRNS_9allocatorIiEEE5firstB8ne180100Ev, symObjAddr: 0x153C8, symBinAddr: 0x100016804, symSize: 0x24 }
  - { offsetInCU: 0x4DE0E, offset: 0x4DE0E, size: 0x8, addend: 0x0, symName: __ZNSt3__16vectorIjNS_9allocatorIjEEE9__end_capB8ne180100Ev, symObjAddr: 0x153EC, symBinAddr: 0x100016828, symSize: 0x28 }
  - { offsetInCU: 0x4DE34, offset: 0x4DE34, size: 0x8, addend: 0x0, symName: __ZNSt3__16vectorIjNS_9allocatorIjEEE22__construct_one_at_endB8ne180100IJRKjEEEvDpOT_, symObjAddr: 0x15414, symBinAddr: 0x100016850, symSize: 0x90 }
  - { offsetInCU: 0x4DE83, offset: 0x4DE83, size: 0x8, addend: 0x0, symName: __ZNSt3__16vectorIjNS_9allocatorIjEEE21__push_back_slow_pathIRKjEEPjOT_, symObjAddr: 0x154A4, symBinAddr: 0x1000168E0, symSize: 0xE8 }
  - { offsetInCU: 0x4DEE1, offset: 0x4DEE1, size: 0x8, addend: 0x0, symName: __ZNSt3__117__compressed_pairIPjNS_9allocatorIjEEE5firstB8ne180100Ev, symObjAddr: 0x1558C, symBinAddr: 0x1000169C8, symSize: 0x24 }
  - { offsetInCU: 0x4DF07, offset: 0x4DF07, size: 0x8, addend: 0x0, symName: __ZNSt3__122__compressed_pair_elemIPjLi0ELb0EE5__getB8ne180100Ev, symObjAddr: 0x155B0, symBinAddr: 0x1000169EC, symSize: 0x14 }
  - { offsetInCU: 0x4DF48, offset: 0x4DF48, size: 0x8, addend: 0x0, symName: __ZNSt3__16vectorIjNS_9allocatorIjEEE21_ConstructTransactionC1B8ne180100ERS3_m, symObjAddr: 0x155C4, symBinAddr: 0x100016A00, symSize: 0x3C }
  - { offsetInCU: 0x4DF90, offset: 0x4DF90, size: 0x8, addend: 0x0, symName: __ZNSt3__116allocator_traitsINS_9allocatorIjEEE9constructB8ne180100IjJRKjEvEEvRS2_PT_DpOT0_, symObjAddr: 0x15600, symBinAddr: 0x100016A3C, symSize: 0x34 }
  - { offsetInCU: 0x4DFE7, offset: 0x4DFE7, size: 0x8, addend: 0x0, symName: __ZNSt3__16vectorIjNS_9allocatorIjEEE7__allocB8ne180100Ev, symObjAddr: 0x15634, symBinAddr: 0x100016A70, symSize: 0x28 }
  - { offsetInCU: 0x4E00D, offset: 0x4E00D, size: 0x8, addend: 0x0, symName: __ZNSt3__16vectorIjNS_9allocatorIjEEE21_ConstructTransactionD1B8ne180100Ev, symObjAddr: 0x15670, symBinAddr: 0x100016AAC, symSize: 0x2C }
  - { offsetInCU: 0x4E037, offset: 0x4E037, size: 0x8, addend: 0x0, symName: __ZNSt3__16vectorIjNS_9allocatorIjEEE21_ConstructTransactionC2B8ne180100ERS3_m, symObjAddr: 0x1569C, symBinAddr: 0x100016AD8, symSize: 0x44 }
  - { offsetInCU: 0x4E07F, offset: 0x4E07F, size: 0x8, addend: 0x0, symName: __ZNSt3__19allocatorIjE9constructB8ne180100IjJRKjEEEvPT_DpOT0_, symObjAddr: 0x156E0, symBinAddr: 0x100016B1C, symSize: 0x28 }
  - { offsetInCU: 0x4E0D5, offset: 0x4E0D5, size: 0x8, addend: 0x0, symName: __ZNSt3__117__compressed_pairIPjNS_9allocatorIjEEE6secondB8ne180100Ev, symObjAddr: 0x15708, symBinAddr: 0x100016B44, symSize: 0x24 }
  - { offsetInCU: 0x4E0FB, offset: 0x4E0FB, size: 0x8, addend: 0x0, symName: __ZNSt3__122__compressed_pair_elemINS_9allocatorIjEELi1ELb1EE5__getB8ne180100Ev, symObjAddr: 0x1572C, symBinAddr: 0x100016B68, symSize: 0x14 }
  - { offsetInCU: 0x4E121, offset: 0x4E121, size: 0x8, addend: 0x0, symName: __ZNSt3__16vectorIjNS_9allocatorIjEEE21_ConstructTransactionD2B8ne180100Ev, symObjAddr: 0x15740, symBinAddr: 0x100016B7C, symSize: 0x20 }
  - { offsetInCU: 0x4E14B, offset: 0x4E14B, size: 0x8, addend: 0x0, symName: __ZNKSt3__16vectorIjNS_9allocatorIjEEE11__recommendB8ne180100Em, symObjAddr: 0x15760, symBinAddr: 0x100016B9C, symSize: 0xB4 }
  - { offsetInCU: 0x4E1A0, offset: 0x4E1A0, size: 0x8, addend: 0x0, symName: __ZNSt3__114__split_bufferIjRNS_9allocatorIjEEEC1EmmS3_, symObjAddr: 0x15814, symBinAddr: 0x100016C50, symSize: 0x44 }
  - { offsetInCU: 0x4E1F6, offset: 0x4E1F6, size: 0x8, addend: 0x0, symName: __ZNSt3__114__split_bufferIjRNS_9allocatorIjEEED1Ev, symObjAddr: 0x15968, symBinAddr: 0x100016DA4, symSize: 0x2C }
  - { offsetInCU: 0x4E222, offset: 0x4E222, size: 0x8, addend: 0x0, symName: __ZNKSt3__16vectorIjNS_9allocatorIjEEE8max_sizeEv, symObjAddr: 0x15994, symBinAddr: 0x100016DD0, symSize: 0x60 }
  - { offsetInCU: 0x4E24A, offset: 0x4E24A, size: 0x8, addend: 0x0, symName: __ZNKSt3__16vectorIjNS_9allocatorIjEEE20__throw_length_errorB8ne180100Ev, symObjAddr: 0x159F4, symBinAddr: 0x100016E30, symSize: 0x1C }
  - { offsetInCU: 0x4E270, offset: 0x4E270, size: 0x8, addend: 0x0, symName: __ZNKSt3__16vectorIjNS_9allocatorIjEEE8capacityB8ne180100Ev, symObjAddr: 0x15A10, symBinAddr: 0x100016E4C, symSize: 0x40 }
  - { offsetInCU: 0x4E2A1, offset: 0x4E2A1, size: 0x8, addend: 0x0, symName: __ZNSt3__116allocator_traitsINS_9allocatorIjEEE8max_sizeB8ne180100IS2_vEEmRKS2_, symObjAddr: 0x15A50, symBinAddr: 0x100016E8C, symSize: 0x24 }
  - { offsetInCU: 0x4E2CF, offset: 0x4E2CF, size: 0x8, addend: 0x0, symName: __ZNKSt3__16vectorIjNS_9allocatorIjEEE7__allocB8ne180100Ev, symObjAddr: 0x15A74, symBinAddr: 0x100016EB0, symSize: 0x28 }
  - { offsetInCU: 0x4E2F5, offset: 0x4E2F5, size: 0x8, addend: 0x0, symName: __ZNKSt3__19allocatorIjE8max_sizeB8ne180100Ev, symObjAddr: 0x15A9C, symBinAddr: 0x100016ED8, symSize: 0x14 }
  - { offsetInCU: 0x4E31B, offset: 0x4E31B, size: 0x8, addend: 0x0, symName: __ZNKSt3__117__compressed_pairIPjNS_9allocatorIjEEE6secondB8ne180100Ev, symObjAddr: 0x15AB0, symBinAddr: 0x100016EEC, symSize: 0x24 }
  - { offsetInCU: 0x4E341, offset: 0x4E341, size: 0x8, addend: 0x0, symName: __ZNKSt3__122__compressed_pair_elemINS_9allocatorIjEELi1ELb1EE5__getB8ne180100Ev, symObjAddr: 0x15AD4, symBinAddr: 0x100016F10, symSize: 0x14 }
  - { offsetInCU: 0x4E367, offset: 0x4E367, size: 0x8, addend: 0x0, symName: __ZNKSt3__16vectorIjNS_9allocatorIjEEE9__end_capB8ne180100Ev, symObjAddr: 0x15AE8, symBinAddr: 0x100016F24, symSize: 0x28 }
  - { offsetInCU: 0x4E38D, offset: 0x4E38D, size: 0x8, addend: 0x0, symName: __ZNKSt3__117__compressed_pairIPjNS_9allocatorIjEEE5firstB8ne180100Ev, symObjAddr: 0x15B10, symBinAddr: 0x100016F4C, symSize: 0x24 }
  - { offsetInCU: 0x4E3B3, offset: 0x4E3B3, size: 0x8, addend: 0x0, symName: __ZNKSt3__122__compressed_pair_elemIPjLi0ELb0EE5__getB8ne180100Ev, symObjAddr: 0x15B34, symBinAddr: 0x100016F70, symSize: 0x14 }
  - { offsetInCU: 0x4E3D9, offset: 0x4E3D9, size: 0x8, addend: 0x0, symName: __ZNSt3__114__split_bufferIjRNS_9allocatorIjEEEC2EmmS3_, symObjAddr: 0x15B48, symBinAddr: 0x100016F84, symSize: 0xD4 }
  - { offsetInCU: 0x4E44C, offset: 0x4E44C, size: 0x8, addend: 0x0, symName: __ZNSt3__117__compressed_pairIPjRNS_9allocatorIjEEEC1B8ne180100IDnS4_EEOT_OT0_, symObjAddr: 0x15C1C, symBinAddr: 0x100017058, symSize: 0x3C }
  - { offsetInCU: 0x4E4A4, offset: 0x4E4A4, size: 0x8, addend: 0x0, symName: __ZNSt3__114__split_bufferIjRNS_9allocatorIjEEE7__allocB8ne180100Ev, symObjAddr: 0x15C98, symBinAddr: 0x1000170D4, symSize: 0x28 }
  - { offsetInCU: 0x4E4CA, offset: 0x4E4CA, size: 0x8, addend: 0x0, symName: __ZNSt3__114__split_bufferIjRNS_9allocatorIjEEE9__end_capB8ne180100Ev, symObjAddr: 0x15CC0, symBinAddr: 0x1000170FC, symSize: 0x28 }
  - { offsetInCU: 0x4E4F0, offset: 0x4E4F0, size: 0x8, addend: 0x0, symName: __ZNSt3__117__compressed_pairIPjRNS_9allocatorIjEEEC2B8ne180100IDnS4_EEOT_OT0_, symObjAddr: 0x15CE8, symBinAddr: 0x100017124, symSize: 0x48 }
  - { offsetInCU: 0x4E548, offset: 0x4E548, size: 0x8, addend: 0x0, symName: __ZNSt3__122__compressed_pair_elemIPjLi0ELb0EEC2B8ne180100IDnvEEOT_, symObjAddr: 0x15D30, symBinAddr: 0x10001716C, symSize: 0x1C }
  - { offsetInCU: 0x4E58A, offset: 0x4E58A, size: 0x8, addend: 0x0, symName: __ZNSt3__122__compressed_pair_elemIRNS_9allocatorIjEELi1ELb0EEC2B8ne180100IS3_vEEOT_, symObjAddr: 0x15D4C, symBinAddr: 0x100017188, symSize: 0x20 }
  - { offsetInCU: 0x4E5CC, offset: 0x4E5CC, size: 0x8, addend: 0x0, symName: __ZNSt3__19allocatorIjE8allocateB8ne180100Em, symObjAddr: 0x15D6C, symBinAddr: 0x1000171A8, symSize: 0x58 }
  - { offsetInCU: 0x4E600, offset: 0x4E600, size: 0x8, addend: 0x0, symName: __ZNSt3__117__compressed_pairIPjRNS_9allocatorIjEEE6secondB8ne180100Ev, symObjAddr: 0x15DC4, symBinAddr: 0x100017200, symSize: 0x28 }
  - { offsetInCU: 0x4E626, offset: 0x4E626, size: 0x8, addend: 0x0, symName: __ZNSt3__122__compressed_pair_elemIRNS_9allocatorIjEELi1ELb0EE5__getB8ne180100Ev, symObjAddr: 0x15DEC, symBinAddr: 0x100017228, symSize: 0x18 }
  - { offsetInCU: 0x4E64C, offset: 0x4E64C, size: 0x8, addend: 0x0, symName: __ZNSt3__117__compressed_pairIPjRNS_9allocatorIjEEE5firstB8ne180100Ev, symObjAddr: 0x15E04, symBinAddr: 0x100017240, symSize: 0x24 }
  - { offsetInCU: 0x4E672, offset: 0x4E672, size: 0x8, addend: 0x0, symName: __ZNKSt3__16vectorIjNS_9allocatorIjEEE17__annotate_deleteB8ne180100Ev, symObjAddr: 0x15E28, symBinAddr: 0x100017264, symSize: 0x10 }
  - { offsetInCU: 0x4E698, offset: 0x4E698, size: 0x8, addend: 0x0, symName: __ZNSt3__116reverse_iteratorIPjEC1B8ne180100ES1_, symObjAddr: 0x15EB0, symBinAddr: 0x1000172EC, symSize: 0x34 }
  - { offsetInCU: 0x4E6D0, offset: 0x4E6D0, size: 0x8, addend: 0x0, symName: __ZNKSt3__116reverse_iteratorIPjE4baseB8ne180100Ev, symObjAddr: 0x15EE4, symBinAddr: 0x100017320, symSize: 0x18 }
  - { offsetInCU: 0x4E6F6, offset: 0x4E6F6, size: 0x8, addend: 0x0, symName: __ZNKSt3__16vectorIjNS_9allocatorIjEEE14__annotate_newB8ne180100Em, symObjAddr: 0x15F38, symBinAddr: 0x100017374, symSize: 0x14 }
  - { offsetInCU: 0x4E747, offset: 0x4E747, size: 0x8, addend: 0x0, symName: __ZNKSt3__111__move_loopINS_17_ClassicAlgPolicyEEclB8ne180100INS_16reverse_iteratorIPjEES6_S6_EENS_4pairIT_T1_EES8_T0_S9_, symObjAddr: 0x1623C, symBinAddr: 0x100017678, symSize: 0xA0 }
  - { offsetInCU: 0x4E7B8, offset: 0x4E7B8, size: 0x8, addend: 0x0, symName: __ZNSt3__18_IterOpsINS_17_ClassicAlgPolicyEE11__iter_moveB8ne180100IRNS_16reverse_iteratorIPjEELi0EEEDTclsr3stdE4movedeclsr3stdE7declvalIRT_EEEEOS8_, symObjAddr: 0x16470, symBinAddr: 0x1000178AC, symSize: 0x28 }
  - { offsetInCU: 0x4E7EA, offset: 0x4E7EA, size: 0x8, addend: 0x0, symName: __ZNKSt3__116reverse_iteratorIPjEdeB8ne180100Ev, symObjAddr: 0x16498, symBinAddr: 0x1000178D4, symSize: 0x28 }
  - { offsetInCU: 0x4E81E, offset: 0x4E81E, size: 0x8, addend: 0x0, symName: __ZNSt3__116reverse_iteratorIPjEppB8ne180100Ev, symObjAddr: 0x164C0, symBinAddr: 0x1000178FC, symSize: 0x20 }
  - { offsetInCU: 0x4E844, offset: 0x4E844, size: 0x8, addend: 0x0, symName: __ZNSt3__18_IterOpsINS_17_ClassicAlgPolicyEE25__validate_iter_referenceB8ne180100IRNS_16reverse_iteratorIPjEEEEvv, symObjAddr: 0x164E0, symBinAddr: 0x10001791C, symSize: 0x4 }
  - { offsetInCU: 0x4E862, offset: 0x4E862, size: 0x8, addend: 0x0, symName: __ZNSt3__118__unwrap_iter_implINS_16reverse_iteratorIPjEELb0EE8__unwrapB8ne180100ES3_, symObjAddr: 0x164E4, symBinAddr: 0x100017920, symSize: 0x24 }
  - { offsetInCU: 0x4E88B, offset: 0x4E88B, size: 0x8, addend: 0x0, symName: __ZNSt3__14pairINS_16reverse_iteratorIPjEES3_EC1B8ne180100IS3_S3_Li0EEEOT_OT0_, symObjAddr: 0x16508, symBinAddr: 0x100017944, symSize: 0x3C }
  - { offsetInCU: 0x4E8E9, offset: 0x4E8E9, size: 0x8, addend: 0x0, symName: __ZNSt3__14pairINS_16reverse_iteratorIPjEES3_EC2B8ne180100IS3_S3_Li0EEEOT_OT0_, symObjAddr: 0x16544, symBinAddr: 0x100017980, symSize: 0x34 }
  - { offsetInCU: 0x4E947, offset: 0x4E947, size: 0x8, addend: 0x0, symName: __ZNSt3__118__unwrap_iter_implINS_16reverse_iteratorIPjEELb0EE8__rewrapB8ne180100ES3_S3_, symObjAddr: 0x16578, symBinAddr: 0x1000179B4, symSize: 0x2C }
  - { offsetInCU: 0x4E975, offset: 0x4E975, size: 0x8, addend: 0x0, symName: __ZNSt3__116reverse_iteratorIPjEC2B8ne180100ES1_, symObjAddr: 0x165A4, symBinAddr: 0x1000179E0, symSize: 0x28 }
  - { offsetInCU: 0x4E9AD, offset: 0x4E9AD, size: 0x8, addend: 0x0, symName: __ZNSt3__114__split_bufferIjRNS_9allocatorIjEEED2Ev, symObjAddr: 0x165CC, symBinAddr: 0x100017A08, symSize: 0x8C }
  - { offsetInCU: 0x4E9D9, offset: 0x4E9D9, size: 0x8, addend: 0x0, symName: __ZNSt3__114__split_bufferIjRNS_9allocatorIjEEE5clearB8ne180100Ev, symObjAddr: 0x16658, symBinAddr: 0x100017A94, symSize: 0x28 }
  - { offsetInCU: 0x4E9FF, offset: 0x4E9FF, size: 0x8, addend: 0x0, symName: __ZNSt3__116allocator_traitsINS_9allocatorIjEEE10deallocateB8ne180100ERS2_Pjm, symObjAddr: 0x16680, symBinAddr: 0x100017ABC, symSize: 0x34 }
  - { offsetInCU: 0x4EA41, offset: 0x4EA41, size: 0x8, addend: 0x0, symName: __ZNKSt3__114__split_bufferIjRNS_9allocatorIjEEE8capacityB8ne180100Ev, symObjAddr: 0x166B4, symBinAddr: 0x100017AF0, symSize: 0x40 }
  - { offsetInCU: 0x4EA67, offset: 0x4EA67, size: 0x8, addend: 0x0, symName: __ZNSt3__114__split_bufferIjRNS_9allocatorIjEEE17__destruct_at_endB8ne180100EPj, symObjAddr: 0x166F4, symBinAddr: 0x100017B30, symSize: 0x2C }
  - { offsetInCU: 0x4EA9B, offset: 0x4EA9B, size: 0x8, addend: 0x0, symName: __ZNSt3__114__split_bufferIjRNS_9allocatorIjEEE17__destruct_at_endB8ne180100EPjNS_17integral_constantIbLb0EEE, symObjAddr: 0x16720, symBinAddr: 0x100017B5C, symSize: 0x80 }
  - { offsetInCU: 0x4EADC, offset: 0x4EADC, size: 0x8, addend: 0x0, symName: __ZNSt3__116allocator_traitsINS_9allocatorIjEEE7destroyB8ne180100IjvEEvRS2_PT_, symObjAddr: 0x167A0, symBinAddr: 0x100017BDC, symSize: 0x2C }
  - { offsetInCU: 0x4EB19, offset: 0x4EB19, size: 0x8, addend: 0x0, symName: __ZNSt3__19allocatorIjE7destroyB8ne180100EPj, symObjAddr: 0x167CC, symBinAddr: 0x100017C08, symSize: 0x14 }
  - { offsetInCU: 0x4EB4D, offset: 0x4EB4D, size: 0x8, addend: 0x0, symName: __ZNSt3__19allocatorIjE10deallocateB8ne180100EPjm, symObjAddr: 0x167E0, symBinAddr: 0x100017C1C, symSize: 0x40 }
  - { offsetInCU: 0x4EB8F, offset: 0x4EB8F, size: 0x8, addend: 0x0, symName: __ZNKSt3__114__split_bufferIjRNS_9allocatorIjEEE9__end_capB8ne180100Ev, symObjAddr: 0x16820, symBinAddr: 0x100017C5C, symSize: 0x28 }
  - { offsetInCU: 0x4EBB5, offset: 0x4EBB5, size: 0x8, addend: 0x0, symName: __ZNKSt3__117__compressed_pairIPjRNS_9allocatorIjEEE5firstB8ne180100Ev, symObjAddr: 0x16848, symBinAddr: 0x100017C84, symSize: 0x24 }
  - { offsetInCU: 0x4EBDB, offset: 0x4EBDB, size: 0x8, addend: 0x0, symName: __ZNSt3__123__libcpp_numeric_limitsIfLb1EE7epsilonB8ne180100Ev, symObjAddr: 0x1686C, symBinAddr: 0x100017CA8, symSize: 0x8 }
  - { offsetInCU: 0x4EBEF, offset: 0x4EBEF, size: 0x8, addend: 0x0, symName: __ZN7tinyobj6face_tC2ERKS0_, symObjAddr: 0x16874, symBinAddr: 0x100017CB0, symSize: 0x48 }
  - { offsetInCU: 0x4EC25, offset: 0x4EC25, size: 0x8, addend: 0x0, symName: __ZNSt3__16vectorIN7tinyobj14vertex_index_tENS_9allocatorIS2_EEEC1ERKS5_, symObjAddr: 0x168BC, symBinAddr: 0x100017CF8, symSize: 0x34 }
  - { offsetInCU: 0x4EC60, offset: 0x4EC60, size: 0x8, addend: 0x0, symName: __ZNSt3__16vectorIN7tinyobj14vertex_index_tENS_9allocatorIS2_EEEC2ERKS5_, symObjAddr: 0x168F0, symBinAddr: 0x100017D2C, symSize: 0x94 }
  - { offsetInCU: 0x4ECA6, offset: 0x4ECA6, size: 0x8, addend: 0x0, symName: __ZNSt3__116allocator_traitsINS_9allocatorIN7tinyobj14vertex_index_tEEEE37select_on_container_copy_constructionB8ne180100IS4_vvEES4_RKS4_, symObjAddr: 0x16984, symBinAddr: 0x100017DC0, symSize: 0x10 }
  - { offsetInCU: 0x4ECD5, offset: 0x4ECD5, size: 0x8, addend: 0x0, symName: __ZNKSt3__16vectorIN7tinyobj14vertex_index_tENS_9allocatorIS2_EEE7__allocB8ne180100Ev, symObjAddr: 0x16994, symBinAddr: 0x100017DD0, symSize: 0x28 }
  - { offsetInCU: 0x4ED01, offset: 0x4ED01, size: 0x8, addend: 0x0, symName: __ZNSt3__117__compressed_pairIPN7tinyobj14vertex_index_tENS_9allocatorIS2_EEEC1B8ne180100IDnS5_EEOT_OT0_, symObjAddr: 0x169BC, symBinAddr: 0x100017DF8, symSize: 0x3C }
  - { offsetInCU: 0x4ED59, offset: 0x4ED59, size: 0x8, addend: 0x0, symName: __ZNSt3__16vectorIN7tinyobj14vertex_index_tENS_9allocatorIS2_EEE16__init_with_sizeB8ne180100IPS2_S7_EEvT_T0_m, symObjAddr: 0x169F8, symBinAddr: 0x100017E34, symSize: 0xB8 }
  - { offsetInCU: 0x4EDCD, offset: 0x4EDCD, size: 0x8, addend: 0x0, symName: __ZNKSt3__117__compressed_pairIPN7tinyobj14vertex_index_tENS_9allocatorIS2_EEE6secondB8ne180100Ev, symObjAddr: 0x16AB0, symBinAddr: 0x100017EEC, symSize: 0x24 }
  - { offsetInCU: 0x4EDF3, offset: 0x4EDF3, size: 0x8, addend: 0x0, symName: __ZNKSt3__122__compressed_pair_elemINS_9allocatorIN7tinyobj14vertex_index_tEEELi1ELb1EE5__getB8ne180100Ev, symObjAddr: 0x16AD4, symBinAddr: 0x100017F10, symSize: 0x14 }
  - { offsetInCU: 0x4EE19, offset: 0x4EE19, size: 0x8, addend: 0x0, symName: __ZNSt3__117__compressed_pairIPN7tinyobj14vertex_index_tENS_9allocatorIS2_EEEC2B8ne180100IDnS5_EEOT_OT0_, symObjAddr: 0x16AE8, symBinAddr: 0x100017F24, symSize: 0x44 }
  - { offsetInCU: 0x4EE71, offset: 0x4EE71, size: 0x8, addend: 0x0, symName: __ZNSt3__122__compressed_pair_elemINS_9allocatorIN7tinyobj14vertex_index_tEEELi1ELb1EEC2B8ne180100IS4_vEEOT_, symObjAddr: 0x16B2C, symBinAddr: 0x100017F68, symSize: 0x18 }
  - { offsetInCU: 0x4EEB3, offset: 0x4EEB3, size: 0x8, addend: 0x0, symName: __ZNSt3__16vectorIN7tinyobj14vertex_index_tENS_9allocatorIS2_EEE11__vallocateB8ne180100Em, symObjAddr: 0x16B84, symBinAddr: 0x100017FC0, symSize: 0xB4 }
  - { offsetInCU: 0x4EEF7, offset: 0x4EEF7, size: 0x8, addend: 0x0, symName: __ZNSt3__16vectorIN7tinyobj14vertex_index_tENS_9allocatorIS2_EEE18__construct_at_endIPS2_S7_EEvT_T0_m, symObjAddr: 0x16C38, symBinAddr: 0x100018074, symSize: 0x8C }
  - { offsetInCU: 0x4EF6D, offset: 0x4EF6D, size: 0x8, addend: 0x0, symName: __ZNSt3__128__exception_guard_exceptionsINS_6vectorIN7tinyobj14vertex_index_tENS_9allocatorIS3_EEE16__destroy_vectorEE10__completeB8ne180100Ev, symObjAddr: 0x16CC4, symBinAddr: 0x100018100, symSize: 0x1C }
  - { offsetInCU: 0x4EF93, offset: 0x4EF93, size: 0x8, addend: 0x0, symName: __ZNSt3__128__exception_guard_exceptionsINS_6vectorIN7tinyobj14vertex_index_tENS_9allocatorIS3_EEE16__destroy_vectorEED1B8ne180100Ev, symObjAddr: 0x16CE0, symBinAddr: 0x10001811C, symSize: 0x2C }
  - { offsetInCU: 0x4EFBD, offset: 0x4EFBD, size: 0x8, addend: 0x0, symName: __ZNSt3__128__exception_guard_exceptionsINS_6vectorIN7tinyobj14vertex_index_tENS_9allocatorIS3_EEE16__destroy_vectorEEC1B8ne180100ES7_, symObjAddr: 0x16D0C, symBinAddr: 0x100018148, symSize: 0x34 }
  - { offsetInCU: 0x4EFF5, offset: 0x4EFF5, size: 0x8, addend: 0x0, symName: __ZNSt3__128__exception_guard_exceptionsINS_6vectorIN7tinyobj14vertex_index_tENS_9allocatorIS3_EEE16__destroy_vectorEEC2B8ne180100ES7_, symObjAddr: 0x16D40, symBinAddr: 0x10001817C, symSize: 0x24 }
  - { offsetInCU: 0x4F02D, offset: 0x4F02D, size: 0x8, addend: 0x0, symName: __ZNKSt3__16vectorIN7tinyobj14vertex_index_tENS_9allocatorIS2_EEE8max_sizeEv, symObjAddr: 0x16D64, symBinAddr: 0x1000181A0, symSize: 0x60 }
  - { offsetInCU: 0x4F055, offset: 0x4F055, size: 0x8, addend: 0x0, symName: __ZNKSt3__16vectorIN7tinyobj14vertex_index_tENS_9allocatorIS2_EEE20__throw_length_errorB8ne180100Ev, symObjAddr: 0x16DC4, symBinAddr: 0x100018200, symSize: 0x1C }
  - { offsetInCU: 0x4F07B, offset: 0x4F07B, size: 0x8, addend: 0x0, symName: __ZNSt3__16vectorIN7tinyobj14vertex_index_tENS_9allocatorIS2_EEE9__end_capB8ne180100Ev, symObjAddr: 0x16E20, symBinAddr: 0x10001825C, symSize: 0x28 }
  - { offsetInCU: 0x4F0A1, offset: 0x4F0A1, size: 0x8, addend: 0x0, symName: __ZNKSt3__16vectorIN7tinyobj14vertex_index_tENS_9allocatorIS2_EEE14__annotate_newB8ne180100Em, symObjAddr: 0x16E48, symBinAddr: 0x100018284, symSize: 0x14 }
  - { offsetInCU: 0x4F0D6, offset: 0x4F0D6, size: 0x8, addend: 0x0, symName: __ZNSt3__116allocator_traitsINS_9allocatorIN7tinyobj14vertex_index_tEEEE8max_sizeB8ne180100IS4_vEEmRKS4_, symObjAddr: 0x16E5C, symBinAddr: 0x100018298, symSize: 0x24 }
  - { offsetInCU: 0x4F104, offset: 0x4F104, size: 0x8, addend: 0x0, symName: __ZNKSt3__19allocatorIN7tinyobj14vertex_index_tEE8max_sizeB8ne180100Ev, symObjAddr: 0x16E80, symBinAddr: 0x1000182BC, symSize: 0x18 }
  - { offsetInCU: 0x4F12A, offset: 0x4F12A, size: 0x8, addend: 0x0, symName: __ZNSt3__19allocatorIN7tinyobj14vertex_index_tEE8allocateB8ne180100Em, symObjAddr: 0x16E98, symBinAddr: 0x1000182D4, symSize: 0x5C }
  - { offsetInCU: 0x4F15E, offset: 0x4F15E, size: 0x8, addend: 0x0, symName: __ZNSt3__117__compressed_pairIPN7tinyobj14vertex_index_tENS_9allocatorIS2_EEE5firstB8ne180100Ev, symObjAddr: 0x16EF4, symBinAddr: 0x100018330, symSize: 0x24 }
  - { offsetInCU: 0x4F184, offset: 0x4F184, size: 0x8, addend: 0x0, symName: __ZNSt3__122__compressed_pair_elemIPN7tinyobj14vertex_index_tELi0ELb0EE5__getB8ne180100Ev, symObjAddr: 0x16F18, symBinAddr: 0x100018354, symSize: 0x14 }
  - { offsetInCU: 0x4F1C5, offset: 0x4F1C5, size: 0x8, addend: 0x0, symName: __ZNSt3__16vectorIN7tinyobj14vertex_index_tENS_9allocatorIS2_EEE21_ConstructTransactionC1B8ne180100ERS5_m, symObjAddr: 0x16F2C, symBinAddr: 0x100018368, symSize: 0x3C }
  - { offsetInCU: 0x4F20D, offset: 0x4F20D, size: 0x8, addend: 0x0, symName: __ZNSt3__16vectorIN7tinyobj14vertex_index_tENS_9allocatorIS2_EEE21_ConstructTransactionD1B8ne180100Ev, symObjAddr: 0x16FE8, symBinAddr: 0x100018424, symSize: 0x2C }
  - { offsetInCU: 0x4F237, offset: 0x4F237, size: 0x8, addend: 0x0, symName: __ZNSt3__16vectorIN7tinyobj14vertex_index_tENS_9allocatorIS2_EEE21_ConstructTransactionC2B8ne180100ERS5_m, symObjAddr: 0x17014, symBinAddr: 0x100018450, symSize: 0x4C }
  - { offsetInCU: 0x4F2A1, offset: 0x4F2A1, size: 0x8, addend: 0x0, symName: __ZNSt3__14pairIPN7tinyobj14vertex_index_tES3_EC1B8ne180100IS3_S3_Li0EEEOT_OT0_, symObjAddr: 0x17190, symBinAddr: 0x1000185CC, symSize: 0x3C }
  - { offsetInCU: 0x4F2FF, offset: 0x4F2FF, size: 0x8, addend: 0x0, symName: __ZNSt3__14pairIPN7tinyobj14vertex_index_tES3_EC2B8ne180100IS3_S3_Li0EEEOT_OT0_, symObjAddr: 0x171CC, symBinAddr: 0x100018608, symSize: 0x34 }
  - { offsetInCU: 0x4F35D, offset: 0x4F35D, size: 0x8, addend: 0x0, symName: __ZNKSt3__114__copy_trivialclB8ne180100IN7tinyobj14vertex_index_tES3_Li0EEENS_4pairIPT_PT0_EES6_S6_S8_, symObjAddr: 0x1737C, symBinAddr: 0x1000187B8, symSize: 0x48 }
  - { offsetInCU: 0x4F3C5, offset: 0x4F3C5, size: 0x8, addend: 0x0, symName: __ZNSt3__14pairIPN7tinyobj14vertex_index_tES3_EC1B8ne180100IRS3_S3_Li0EEEOT_OT0_, symObjAddr: 0x17518, symBinAddr: 0x100018954, symSize: 0x3C }
  - { offsetInCU: 0x4F423, offset: 0x4F423, size: 0x8, addend: 0x0, symName: __ZNSt3__14pairIPN7tinyobj14vertex_index_tES3_EC2B8ne180100IRS3_S3_Li0EEEOT_OT0_, symObjAddr: 0x17554, symBinAddr: 0x100018990, symSize: 0x34 }
  - { offsetInCU: 0x4F481, offset: 0x4F481, size: 0x8, addend: 0x0, symName: __ZNSt3__118__unwrap_iter_implIPN7tinyobj14vertex_index_tELb1EE8__unwrapB8ne180100ES3_, symObjAddr: 0x17588, symBinAddr: 0x1000189C4, symSize: 0x24 }
  - { offsetInCU: 0x4F4A4, offset: 0x4F4A4, size: 0x8, addend: 0x0, symName: __ZNSt3__118__unwrap_iter_implIPN7tinyobj14vertex_index_tELb1EE8__rewrapB8ne180100ES3_S3_, symObjAddr: 0x175AC, symBinAddr: 0x1000189E8, symSize: 0x58 }
  - { offsetInCU: 0x4F4D5, offset: 0x4F4D5, size: 0x8, addend: 0x0, symName: __ZNSt3__16vectorIN7tinyobj14vertex_index_tENS_9allocatorIS2_EEE21_ConstructTransactionD2B8ne180100Ev, symObjAddr: 0x17604, symBinAddr: 0x100018A40, symSize: 0x20 }
  - { offsetInCU: 0x4F4FF, offset: 0x4F4FF, size: 0x8, addend: 0x0, symName: __ZNSt3__128__exception_guard_exceptionsINS_6vectorIN7tinyobj14vertex_index_tENS_9allocatorIS3_EEE16__destroy_vectorEED2B8ne180100Ev, symObjAddr: 0x17624, symBinAddr: 0x100018A60, symSize: 0x48 }
  - { offsetInCU: 0x4F529, offset: 0x4F529, size: 0x8, addend: 0x0, symName: __ZNSt3__16vectorIN7tinyobj14vertex_index_tENS_9allocatorIS2_EEE17__destruct_at_endB8ne180100EPS2_, symObjAddr: 0x1766C, symBinAddr: 0x100018AA8, symSize: 0x4C }
  - { offsetInCU: 0x4F56D, offset: 0x4F56D, size: 0x8, addend: 0x0, symName: __ZNKSt3__16vectorIN7tinyobj14vertex_index_tENS_9allocatorIS2_EEE17__annotate_shrinkB8ne180100Em, symObjAddr: 0x176B8, symBinAddr: 0x100018AF4, symSize: 0x14 }
  - { offsetInCU: 0x4F5A2, offset: 0x4F5A2, size: 0x8, addend: 0x0, symName: __ZNSt3__16vectorIN7tinyobj5tag_tENS_9allocatorIS2_EEE19__copy_assign_allocB8ne180100ERKS5_, symObjAddr: 0x176CC, symBinAddr: 0x100018B08, symSize: 0x2C }
  - { offsetInCU: 0x4F5D7, offset: 0x4F5D7, size: 0x8, addend: 0x0, symName: __ZNSt3__16vectorIN7tinyobj5tag_tENS_9allocatorIS2_EEE6assignIPS2_Li0EEEvT_S8_, symObjAddr: 0x176F8, symBinAddr: 0x100018B34, symSize: 0x5C }
  - { offsetInCU: 0x4F62C, offset: 0x4F62C, size: 0x8, addend: 0x0, symName: __ZNSt3__16vectorIN7tinyobj5tag_tENS_9allocatorIS2_EEE19__copy_assign_allocB8ne180100ERKS5_NS_17integral_constantIbLb0EEE, symObjAddr: 0x17754, symBinAddr: 0x100018B90, symSize: 0x14 }
  - { offsetInCU: 0x4F66A, offset: 0x4F66A, size: 0x8, addend: 0x0, symName: __ZNSt3__16vectorIN7tinyobj5tag_tENS_9allocatorIS2_EEE18__assign_with_sizeB8ne180100IPS2_S7_EEvT_T0_l, symObjAddr: 0x17768, symBinAddr: 0x100018BA4, symSize: 0x164 }
  - { offsetInCU: 0x4F71A, offset: 0x4F71A, size: 0x8, addend: 0x0, symName: __ZNKSt3__16vectorIN7tinyobj5tag_tENS_9allocatorIS2_EEE8capacityB8ne180100Ev, symObjAddr: 0x178F8, symBinAddr: 0x100018D34, symSize: 0x40 }
  - { offsetInCU: 0x4F740, offset: 0x4F740, size: 0x8, addend: 0x0, symName: __ZNKSt3__16vectorIN7tinyobj5tag_tENS_9allocatorIS2_EEE4sizeB8ne180100Ev, symObjAddr: 0x17938, symBinAddr: 0x100018D74, symSize: 0x28 }
  - { offsetInCU: 0x4F766, offset: 0x4F766, size: 0x8, addend: 0x0, symName: __ZNSt3__16vectorIN7tinyobj5tag_tENS_9allocatorIS2_EEE18__construct_at_endIPS2_S7_EEvT_T0_m, symObjAddr: 0x179D4, symBinAddr: 0x100018E10, symSize: 0x8C }
  - { offsetInCU: 0x4F7DC, offset: 0x4F7DC, size: 0x8, addend: 0x0, symName: __ZNSt3__16vectorIN7tinyobj5tag_tENS_9allocatorIS2_EEE17__destruct_at_endB8ne180100EPS2_, symObjAddr: 0x17AA4, symBinAddr: 0x100018EE0, symSize: 0x4C }
  - { offsetInCU: 0x4F820, offset: 0x4F820, size: 0x8, addend: 0x0, symName: __ZNSt3__16vectorIN7tinyobj5tag_tENS_9allocatorIS2_EEE13__vdeallocateEv, symObjAddr: 0x17AF0, symBinAddr: 0x100018F2C, symSize: 0x94 }
  - { offsetInCU: 0x4F848, offset: 0x4F848, size: 0x8, addend: 0x0, symName: __ZNSt3__16vectorIN7tinyobj5tag_tENS_9allocatorIS2_EEE11__vallocateB8ne180100Em, symObjAddr: 0x17B84, symBinAddr: 0x100018FC0, symSize: 0xB4 }
  - { offsetInCU: 0x4F88C, offset: 0x4F88C, size: 0x8, addend: 0x0, symName: __ZNKSt3__16vectorIN7tinyobj5tag_tENS_9allocatorIS2_EEE11__recommendB8ne180100Em, symObjAddr: 0x17C38, symBinAddr: 0x100019074, symSize: 0xB4 }
  - { offsetInCU: 0x4F8E1, offset: 0x4F8E1, size: 0x8, addend: 0x0, symName: __ZNKSt3__16vectorIN7tinyobj5tag_tENS_9allocatorIS2_EEE9__end_capB8ne180100Ev, symObjAddr: 0x17CEC, symBinAddr: 0x100019128, symSize: 0x28 }
  - { offsetInCU: 0x4F907, offset: 0x4F907, size: 0x8, addend: 0x0, symName: __ZNKSt3__117__compressed_pairIPN7tinyobj5tag_tENS_9allocatorIS2_EEE5firstB8ne180100Ev, symObjAddr: 0x17D14, symBinAddr: 0x100019150, symSize: 0x24 }
  - { offsetInCU: 0x4F92D, offset: 0x4F92D, size: 0x8, addend: 0x0, symName: __ZNKSt3__122__compressed_pair_elemIPN7tinyobj5tag_tELi0ELb0EE5__getB8ne180100Ev, symObjAddr: 0x17D38, symBinAddr: 0x100019174, symSize: 0x14 }
  - { offsetInCU: 0x4F96E, offset: 0x4F96E, size: 0x8, addend: 0x0, symName: __ZNSt3__16vectorIN7tinyobj5tag_tENS_9allocatorIS2_EEE21_ConstructTransactionC1B8ne180100ERS5_m, symObjAddr: 0x17DC8, symBinAddr: 0x100019204, symSize: 0x3C }
  - { offsetInCU: 0x4F9B6, offset: 0x4F9B6, size: 0x8, addend: 0x0, symName: __ZNSt3__16vectorIN7tinyobj5tag_tENS_9allocatorIS2_EEE7__allocB8ne180100Ev, symObjAddr: 0x17E84, symBinAddr: 0x1000192C0, symSize: 0x28 }
  - { offsetInCU: 0x4F9DC, offset: 0x4F9DC, size: 0x8, addend: 0x0, symName: __ZNSt3__16vectorIN7tinyobj5tag_tENS_9allocatorIS2_EEE21_ConstructTransactionD1B8ne180100Ev, symObjAddr: 0x17EAC, symBinAddr: 0x1000192E8, symSize: 0x2C }
  - { offsetInCU: 0x4FA06, offset: 0x4FA06, size: 0x8, addend: 0x0, symName: __ZNSt3__16vectorIN7tinyobj5tag_tENS_9allocatorIS2_EEE21_ConstructTransactionC2B8ne180100ERS5_m, symObjAddr: 0x17ED8, symBinAddr: 0x100019314, symSize: 0x4C }
  - { offsetInCU: 0x4FA70, offset: 0x4FA70, size: 0x8, addend: 0x0, symName: __ZNSt3__14pairIPN7tinyobj5tag_tES3_EC1B8ne180100IS3_S3_Li0EEEOT_OT0_, symObjAddr: 0x18110, symBinAddr: 0x10001954C, symSize: 0x3C }
  - { offsetInCU: 0x4FACE, offset: 0x4FACE, size: 0x8, addend: 0x0, symName: __ZNSt3__14pairIPN7tinyobj5tag_tES3_EC2B8ne180100IS3_S3_Li0EEEOT_OT0_, symObjAddr: 0x1814C, symBinAddr: 0x100019588, symSize: 0x34 }
  - { offsetInCU: 0x4FB2C, offset: 0x4FB2C, size: 0x8, addend: 0x0, symName: __ZNSt3__129_AllocatorDestroyRangeReverseINS_9allocatorIN7tinyobj5tag_tEEEPS3_EC1B8ne180100ERS4_RS5_S8_, symObjAddr: 0x181CC, symBinAddr: 0x100019608, symSize: 0x44 }
  - { offsetInCU: 0x4FB83, offset: 0x4FB83, size: 0x8, addend: 0x0, symName: __ZNSt3__116allocator_traitsINS_9allocatorIN7tinyobj5tag_tEEEE9constructB8ne180100IS3_JRS3_EvEEvRS4_PT_DpOT0_, symObjAddr: 0x18210, symBinAddr: 0x10001964C, symSize: 0x34 }
  - { offsetInCU: 0x4FBDA, offset: 0x4FBDA, size: 0x8, addend: 0x0, symName: __ZNSt3__128__exception_guard_exceptionsINS_29_AllocatorDestroyRangeReverseINS_9allocatorIN7tinyobj5tag_tEEEPS4_EEE10__completeB8ne180100Ev, symObjAddr: 0x18258, symBinAddr: 0x100019694, symSize: 0x1C }
  - { offsetInCU: 0x4FC00, offset: 0x4FC00, size: 0x8, addend: 0x0, symName: __ZNSt3__128__exception_guard_exceptionsINS_29_AllocatorDestroyRangeReverseINS_9allocatorIN7tinyobj5tag_tEEEPS4_EEED1B8ne180100Ev, symObjAddr: 0x18274, symBinAddr: 0x1000196B0, symSize: 0x2C }
  - { offsetInCU: 0x4FC2A, offset: 0x4FC2A, size: 0x8, addend: 0x0, symName: __ZNSt3__128__exception_guard_exceptionsINS_29_AllocatorDestroyRangeReverseINS_9allocatorIN7tinyobj5tag_tEEEPS4_EEEC1B8ne180100ES7_, symObjAddr: 0x182A0, symBinAddr: 0x1000196DC, symSize: 0x34 }
  - { offsetInCU: 0x4FC63, offset: 0x4FC63, size: 0x8, addend: 0x0, symName: __ZNSt3__128__exception_guard_exceptionsINS_29_AllocatorDestroyRangeReverseINS_9allocatorIN7tinyobj5tag_tEEEPS4_EEEC2B8ne180100ES7_, symObjAddr: 0x182D4, symBinAddr: 0x100019710, symSize: 0x30 }
  - { offsetInCU: 0x4FC9C, offset: 0x4FC9C, size: 0x8, addend: 0x0, symName: __ZNSt3__129_AllocatorDestroyRangeReverseINS_9allocatorIN7tinyobj5tag_tEEEPS3_EC2B8ne180100ERS4_RS5_S8_, symObjAddr: 0x18304, symBinAddr: 0x100019740, symSize: 0x38 }
  - { offsetInCU: 0x4FCF3, offset: 0x4FCF3, size: 0x8, addend: 0x0, symName: __ZNSt3__19allocatorIN7tinyobj5tag_tEE9constructB8ne180100IS2_JRS2_EEEvPT_DpOT0_, symObjAddr: 0x1833C, symBinAddr: 0x100019778, symSize: 0x30 }
  - { offsetInCU: 0x4FD49, offset: 0x4FD49, size: 0x8, addend: 0x0, symName: __ZN7tinyobj5tag_tC1ERKS0_, symObjAddr: 0x1836C, symBinAddr: 0x1000197A8, symSize: 0x34 }
  - { offsetInCU: 0x4FD7F, offset: 0x4FD7F, size: 0x8, addend: 0x0, symName: __ZN7tinyobj5tag_tC2ERKS0_, symObjAddr: 0x183A0, symBinAddr: 0x1000197DC, symSize: 0xE0 }
  - { offsetInCU: 0x4FDB5, offset: 0x4FDB5, size: 0x8, addend: 0x0, symName: __ZNSt3__16vectorIiNS_9allocatorIiEEEC1ERKS3_, symObjAddr: 0x18480, symBinAddr: 0x1000198BC, symSize: 0x34 }
  - { offsetInCU: 0x4FDF0, offset: 0x4FDF0, size: 0x8, addend: 0x0, symName: __ZNSt3__16vectorIfNS_9allocatorIfEEEC1ERKS3_, symObjAddr: 0x184B4, symBinAddr: 0x1000198F0, symSize: 0x34 }
  - { offsetInCU: 0x4FE2B, offset: 0x4FE2B, size: 0x8, addend: 0x0, symName: __ZNSt3__16vectorINS_12basic_stringIcNS_11char_traitsIcEENS_9allocatorIcEEEENS4_IS6_EEEC1ERKS8_, symObjAddr: 0x184E8, symBinAddr: 0x100019924, symSize: 0x34 }
  - { offsetInCU: 0x4FE66, offset: 0x4FE66, size: 0x8, addend: 0x0, symName: __ZNSt3__16vectorIiNS_9allocatorIiEEED1B8ne180100Ev, symObjAddr: 0x1851C, symBinAddr: 0x100019958, symSize: 0x2C }
  - { offsetInCU: 0x4FE90, offset: 0x4FE90, size: 0x8, addend: 0x0, symName: __ZNSt3__16vectorIiNS_9allocatorIiEEEC2ERKS3_, symObjAddr: 0x18548, symBinAddr: 0x100019984, symSize: 0x94 }
  - { offsetInCU: 0x4FECB, offset: 0x4FECB, size: 0x8, addend: 0x0, symName: __ZNSt3__116allocator_traitsINS_9allocatorIiEEE37select_on_container_copy_constructionB8ne180100IS2_vvEES2_RKS2_, symObjAddr: 0x185DC, symBinAddr: 0x100019A18, symSize: 0x10 }
  - { offsetInCU: 0x4FF00, offset: 0x4FF00, size: 0x8, addend: 0x0, symName: __ZNSt3__117__compressed_pairIPiNS_9allocatorIiEEEC1B8ne180100IDnS3_EEOT_OT0_, symObjAddr: 0x185EC, symBinAddr: 0x100019A28, symSize: 0x3C }
  - { offsetInCU: 0x4FF58, offset: 0x4FF58, size: 0x8, addend: 0x0, symName: __ZNSt3__16vectorIiNS_9allocatorIiEEE16__init_with_sizeB8ne180100IPiS5_EEvT_T0_m, symObjAddr: 0x18628, symBinAddr: 0x100019A64, symSize: 0xB8 }
  - { offsetInCU: 0x4FFCC, offset: 0x4FFCC, size: 0x8, addend: 0x0, symName: __ZNSt3__117__compressed_pairIPiNS_9allocatorIiEEEC2B8ne180100IDnS3_EEOT_OT0_, symObjAddr: 0x186E0, symBinAddr: 0x100019B1C, symSize: 0x44 }
  - { offsetInCU: 0x50024, offset: 0x50024, size: 0x8, addend: 0x0, symName: __ZNSt3__122__compressed_pair_elemINS_9allocatorIiEELi1ELb1EEC2B8ne180100IS2_vEEOT_, symObjAddr: 0x18724, symBinAddr: 0x100019B60, symSize: 0x18 }
  - { offsetInCU: 0x50066, offset: 0x50066, size: 0x8, addend: 0x0, symName: __ZNSt3__16vectorIiNS_9allocatorIiEEE16__destroy_vectorC1B8ne180100ERS3_, symObjAddr: 0x1877C, symBinAddr: 0x100019BB8, symSize: 0x34 }
  - { offsetInCU: 0x5009F, offset: 0x5009F, size: 0x8, addend: 0x0, symName: __ZNSt3__16vectorIiNS_9allocatorIiEEE11__vallocateB8ne180100Em, symObjAddr: 0x187B0, symBinAddr: 0x100019BEC, symSize: 0xAC }
  - { offsetInCU: 0x500E3, offset: 0x500E3, size: 0x8, addend: 0x0, symName: __ZNSt3__16vectorIiNS_9allocatorIiEEE18__construct_at_endIPiS5_EEvT_T0_m, symObjAddr: 0x1885C, symBinAddr: 0x100019C98, symSize: 0x8C }
  - { offsetInCU: 0x50159, offset: 0x50159, size: 0x8, addend: 0x0, symName: __ZNSt3__128__exception_guard_exceptionsINS_6vectorIiNS_9allocatorIiEEE16__destroy_vectorEE10__completeB8ne180100Ev, symObjAddr: 0x188E8, symBinAddr: 0x100019D24, symSize: 0x1C }
  - { offsetInCU: 0x5017F, offset: 0x5017F, size: 0x8, addend: 0x0, symName: __ZNSt3__128__exception_guard_exceptionsINS_6vectorIiNS_9allocatorIiEEE16__destroy_vectorEED1B8ne180100Ev, symObjAddr: 0x18904, symBinAddr: 0x100019D40, symSize: 0x2C }
  - { offsetInCU: 0x501A9, offset: 0x501A9, size: 0x8, addend: 0x0, symName: __ZNSt3__128__exception_guard_exceptionsINS_6vectorIiNS_9allocatorIiEEE16__destroy_vectorEEC1B8ne180100ES5_, symObjAddr: 0x18930, symBinAddr: 0x100019D6C, symSize: 0x34 }
  - { offsetInCU: 0x501E1, offset: 0x501E1, size: 0x8, addend: 0x0, symName: __ZNSt3__128__exception_guard_exceptionsINS_6vectorIiNS_9allocatorIiEEE16__destroy_vectorEEC2B8ne180100ES5_, symObjAddr: 0x18964, symBinAddr: 0x100019DA0, symSize: 0x24 }
  - { offsetInCU: 0x50219, offset: 0x50219, size: 0x8, addend: 0x0, symName: __ZNSt3__16vectorIiNS_9allocatorIiEEE16__destroy_vectorC2B8ne180100ERS3_, symObjAddr: 0x18988, symBinAddr: 0x100019DC4, symSize: 0x20 }
  - { offsetInCU: 0x50274, offset: 0x50274, size: 0x8, addend: 0x0, symName: __ZNSt3__14pairIPiS1_EC1B8ne180100IS1_S1_Li0EEEOT_OT0_, symObjAddr: 0x18B58, symBinAddr: 0x100019F94, symSize: 0x3C }
  - { offsetInCU: 0x502D2, offset: 0x502D2, size: 0x8, addend: 0x0, symName: __ZNSt3__14pairIPiS1_EC2B8ne180100IS1_S1_Li0EEEOT_OT0_, symObjAddr: 0x18B94, symBinAddr: 0x100019FD0, symSize: 0x34 }
  - { offsetInCU: 0x50330, offset: 0x50330, size: 0x8, addend: 0x0, symName: __ZNKSt3__114__copy_trivialclB8ne180100IiiLi0EEENS_4pairIPT_PT0_EES4_S4_S6_, symObjAddr: 0x18D44, symBinAddr: 0x10001A180, symSize: 0x48 }
  - { offsetInCU: 0x50398, offset: 0x50398, size: 0x8, addend: 0x0, symName: __ZNSt3__14pairIPiS1_EC1B8ne180100IRS1_S1_Li0EEEOT_OT0_, symObjAddr: 0x18ED4, symBinAddr: 0x10001A310, symSize: 0x3C }
  - { offsetInCU: 0x503F6, offset: 0x503F6, size: 0x8, addend: 0x0, symName: __ZNSt3__14pairIPiS1_EC2B8ne180100IRS1_S1_Li0EEEOT_OT0_, symObjAddr: 0x18F10, symBinAddr: 0x10001A34C, symSize: 0x34 }
  - { offsetInCU: 0x50454, offset: 0x50454, size: 0x8, addend: 0x0, symName: __ZNSt3__118__unwrap_iter_implIPiLb1EE8__unwrapB8ne180100ES1_, symObjAddr: 0x18F44, symBinAddr: 0x10001A380, symSize: 0x24 }
  - { offsetInCU: 0x50477, offset: 0x50477, size: 0x8, addend: 0x0, symName: __ZNSt3__118__unwrap_iter_implIPiLb1EE8__rewrapB8ne180100ES1_S1_, symObjAddr: 0x18F68, symBinAddr: 0x10001A3A4, symSize: 0x50 }
  - { offsetInCU: 0x504A8, offset: 0x504A8, size: 0x8, addend: 0x0, symName: __ZNSt3__128__exception_guard_exceptionsINS_6vectorIiNS_9allocatorIiEEE16__destroy_vectorEED2B8ne180100Ev, symObjAddr: 0x18FB8, symBinAddr: 0x10001A3F4, symSize: 0x50 }
  - { offsetInCU: 0x504D2, offset: 0x504D2, size: 0x8, addend: 0x0, symName: __ZNSt3__16vectorIiNS_9allocatorIiEEE16__destroy_vectorclB8ne180100Ev, symObjAddr: 0x19008, symBinAddr: 0x10001A444, symSize: 0x90 }
  - { offsetInCU: 0x504F8, offset: 0x504F8, size: 0x8, addend: 0x0, symName: __ZNSt3__16vectorIiNS_9allocatorIiEEE7__clearB8ne180100Ev, symObjAddr: 0x19098, symBinAddr: 0x10001A4D4, symSize: 0x28 }
  - { offsetInCU: 0x5051E, offset: 0x5051E, size: 0x8, addend: 0x0, symName: __ZNSt3__16vectorIiNS_9allocatorIiEEE22__base_destruct_at_endB8ne180100EPi, symObjAddr: 0x190C0, symBinAddr: 0x10001A4FC, symSize: 0x8C }
  - { offsetInCU: 0x50562, offset: 0x50562, size: 0x8, addend: 0x0, symName: __ZNSt3__16vectorIfNS_9allocatorIfEEEC2ERKS3_, symObjAddr: 0x1914C, symBinAddr: 0x10001A588, symSize: 0x94 }
  - { offsetInCU: 0x505A8, offset: 0x505A8, size: 0x8, addend: 0x0, symName: __ZNSt3__116allocator_traitsINS_9allocatorIfEEE37select_on_container_copy_constructionB8ne180100IS2_vvEES2_RKS2_, symObjAddr: 0x191E0, symBinAddr: 0x10001A61C, symSize: 0x10 }
  - { offsetInCU: 0x505D7, offset: 0x505D7, size: 0x8, addend: 0x0, symName: __ZNKSt3__16vectorIfNS_9allocatorIfEEE7__allocB8ne180100Ev, symObjAddr: 0x191F0, symBinAddr: 0x10001A62C, symSize: 0x28 }
  - { offsetInCU: 0x50603, offset: 0x50603, size: 0x8, addend: 0x0, symName: __ZNSt3__117__compressed_pairIPfNS_9allocatorIfEEEC1B8ne180100IDnS3_EEOT_OT0_, symObjAddr: 0x19218, symBinAddr: 0x10001A654, symSize: 0x3C }
  - { offsetInCU: 0x5065B, offset: 0x5065B, size: 0x8, addend: 0x0, symName: __ZNSt3__16vectorIfNS_9allocatorIfEEE16__init_with_sizeB8ne180100IPfS5_EEvT_T0_m, symObjAddr: 0x19254, symBinAddr: 0x10001A690, symSize: 0xB8 }
  - { offsetInCU: 0x506CF, offset: 0x506CF, size: 0x8, addend: 0x0, symName: __ZNKSt3__117__compressed_pairIPfNS_9allocatorIfEEE6secondB8ne180100Ev, symObjAddr: 0x1930C, symBinAddr: 0x10001A748, symSize: 0x24 }
  - { offsetInCU: 0x506F5, offset: 0x506F5, size: 0x8, addend: 0x0, symName: __ZNKSt3__122__compressed_pair_elemINS_9allocatorIfEELi1ELb1EE5__getB8ne180100Ev, symObjAddr: 0x19330, symBinAddr: 0x10001A76C, symSize: 0x14 }
  - { offsetInCU: 0x5071B, offset: 0x5071B, size: 0x8, addend: 0x0, symName: __ZNSt3__117__compressed_pairIPfNS_9allocatorIfEEEC2B8ne180100IDnS3_EEOT_OT0_, symObjAddr: 0x19344, symBinAddr: 0x10001A780, symSize: 0x44 }
  - { offsetInCU: 0x50773, offset: 0x50773, size: 0x8, addend: 0x0, symName: __ZNSt3__122__compressed_pair_elemIPfLi0ELb0EEC2B8ne180100IDnvEEOT_, symObjAddr: 0x19388, symBinAddr: 0x10001A7C4, symSize: 0x1C }
  - { offsetInCU: 0x507B5, offset: 0x507B5, size: 0x8, addend: 0x0, symName: __ZNSt3__122__compressed_pair_elemINS_9allocatorIfEELi1ELb1EEC2B8ne180100IS2_vEEOT_, symObjAddr: 0x193A4, symBinAddr: 0x10001A7E0, symSize: 0x18 }
  - { offsetInCU: 0x507F7, offset: 0x507F7, size: 0x8, addend: 0x0, symName: __ZNSt3__16vectorIfNS_9allocatorIfEEE16__destroy_vectorC1B8ne180100ERS3_, symObjAddr: 0x193FC, symBinAddr: 0x10001A838, symSize: 0x34 }
  - { offsetInCU: 0x50830, offset: 0x50830, size: 0x8, addend: 0x0, symName: __ZNSt3__16vectorIfNS_9allocatorIfEEE11__vallocateB8ne180100Em, symObjAddr: 0x19430, symBinAddr: 0x10001A86C, symSize: 0xAC }
  - { offsetInCU: 0x50874, offset: 0x50874, size: 0x8, addend: 0x0, symName: __ZNSt3__16vectorIfNS_9allocatorIfEEE18__construct_at_endIPfS5_EEvT_T0_m, symObjAddr: 0x194DC, symBinAddr: 0x10001A918, symSize: 0x8C }
  - { offsetInCU: 0x508EA, offset: 0x508EA, size: 0x8, addend: 0x0, symName: __ZNSt3__128__exception_guard_exceptionsINS_6vectorIfNS_9allocatorIfEEE16__destroy_vectorEE10__completeB8ne180100Ev, symObjAddr: 0x19568, symBinAddr: 0x10001A9A4, symSize: 0x1C }
  - { offsetInCU: 0x50910, offset: 0x50910, size: 0x8, addend: 0x0, symName: __ZNSt3__128__exception_guard_exceptionsINS_6vectorIfNS_9allocatorIfEEE16__destroy_vectorEED1B8ne180100Ev, symObjAddr: 0x19584, symBinAddr: 0x10001A9C0, symSize: 0x2C }
  - { offsetInCU: 0x5093A, offset: 0x5093A, size: 0x8, addend: 0x0, symName: __ZNSt3__128__exception_guard_exceptionsINS_6vectorIfNS_9allocatorIfEEE16__destroy_vectorEEC1B8ne180100ES5_, symObjAddr: 0x195B0, symBinAddr: 0x10001A9EC, symSize: 0x34 }
  - { offsetInCU: 0x50972, offset: 0x50972, size: 0x8, addend: 0x0, symName: __ZNSt3__128__exception_guard_exceptionsINS_6vectorIfNS_9allocatorIfEEE16__destroy_vectorEEC2B8ne180100ES5_, symObjAddr: 0x195E4, symBinAddr: 0x10001AA20, symSize: 0x24 }
  - { offsetInCU: 0x509AA, offset: 0x509AA, size: 0x8, addend: 0x0, symName: __ZNSt3__16vectorIfNS_9allocatorIfEEE16__destroy_vectorC2B8ne180100ERS3_, symObjAddr: 0x19608, symBinAddr: 0x10001AA44, symSize: 0x20 }
  - { offsetInCU: 0x509E3, offset: 0x509E3, size: 0x8, addend: 0x0, symName: __ZNKSt3__16vectorIfNS_9allocatorIfEEE8max_sizeEv, symObjAddr: 0x19628, symBinAddr: 0x10001AA64, symSize: 0x60 }
  - { offsetInCU: 0x50A0B, offset: 0x50A0B, size: 0x8, addend: 0x0, symName: __ZNKSt3__16vectorIfNS_9allocatorIfEEE20__throw_length_errorB8ne180100Ev, symObjAddr: 0x19688, symBinAddr: 0x10001AAC4, symSize: 0x1C }
  - { offsetInCU: 0x50A31, offset: 0x50A31, size: 0x8, addend: 0x0, symName: __ZNSt3__16vectorIfNS_9allocatorIfEEE7__allocB8ne180100Ev, symObjAddr: 0x196E4, symBinAddr: 0x10001AB20, symSize: 0x28 }
  - { offsetInCU: 0x50A57, offset: 0x50A57, size: 0x8, addend: 0x0, symName: __ZNSt3__16vectorIfNS_9allocatorIfEEE9__end_capB8ne180100Ev, symObjAddr: 0x1970C, symBinAddr: 0x10001AB48, symSize: 0x28 }
  - { offsetInCU: 0x50A7D, offset: 0x50A7D, size: 0x8, addend: 0x0, symName: __ZNKSt3__16vectorIfNS_9allocatorIfEEE14__annotate_newB8ne180100Em, symObjAddr: 0x19734, symBinAddr: 0x10001AB70, symSize: 0x14 }
  - { offsetInCU: 0x50AB2, offset: 0x50AB2, size: 0x8, addend: 0x0, symName: __ZNSt3__116allocator_traitsINS_9allocatorIfEEE8max_sizeB8ne180100IS2_vEEmRKS2_, symObjAddr: 0x19748, symBinAddr: 0x10001AB84, symSize: 0x24 }
  - { offsetInCU: 0x50AE0, offset: 0x50AE0, size: 0x8, addend: 0x0, symName: __ZNKSt3__19allocatorIfE8max_sizeB8ne180100Ev, symObjAddr: 0x1976C, symBinAddr: 0x10001ABA8, symSize: 0x14 }
  - { offsetInCU: 0x50B06, offset: 0x50B06, size: 0x8, addend: 0x0, symName: __ZNSt3__19allocatorIfE8allocateB8ne180100Em, symObjAddr: 0x19780, symBinAddr: 0x10001ABBC, symSize: 0x58 }
  - { offsetInCU: 0x50B3A, offset: 0x50B3A, size: 0x8, addend: 0x0, symName: __ZNSt3__117__compressed_pairIPfNS_9allocatorIfEEE6secondB8ne180100Ev, symObjAddr: 0x197D8, symBinAddr: 0x10001AC14, symSize: 0x24 }
  - { offsetInCU: 0x50B60, offset: 0x50B60, size: 0x8, addend: 0x0, symName: __ZNSt3__122__compressed_pair_elemINS_9allocatorIfEELi1ELb1EE5__getB8ne180100Ev, symObjAddr: 0x197FC, symBinAddr: 0x10001AC38, symSize: 0x14 }
  - { offsetInCU: 0x50B86, offset: 0x50B86, size: 0x8, addend: 0x0, symName: __ZNSt3__117__compressed_pairIPfNS_9allocatorIfEEE5firstB8ne180100Ev, symObjAddr: 0x19810, symBinAddr: 0x10001AC4C, symSize: 0x24 }
  - { offsetInCU: 0x50BAC, offset: 0x50BAC, size: 0x8, addend: 0x0, symName: __ZNSt3__122__compressed_pair_elemIPfLi0ELb0EE5__getB8ne180100Ev, symObjAddr: 0x19834, symBinAddr: 0x10001AC70, symSize: 0x14 }
  - { offsetInCU: 0x50BED, offset: 0x50BED, size: 0x8, addend: 0x0, symName: __ZNSt3__16vectorIfNS_9allocatorIfEEE21_ConstructTransactionC1B8ne180100ERS3_m, symObjAddr: 0x19848, symBinAddr: 0x10001AC84, symSize: 0x3C }
  - { offsetInCU: 0x50C35, offset: 0x50C35, size: 0x8, addend: 0x0, symName: __ZNSt3__16vectorIfNS_9allocatorIfEEE21_ConstructTransactionD1B8ne180100Ev, symObjAddr: 0x19904, symBinAddr: 0x10001AD40, symSize: 0x2C }
  - { offsetInCU: 0x50C5F, offset: 0x50C5F, size: 0x8, addend: 0x0, symName: __ZNSt3__16vectorIfNS_9allocatorIfEEE21_ConstructTransactionC2B8ne180100ERS3_m, symObjAddr: 0x19930, symBinAddr: 0x10001AD6C, symSize: 0x44 }
  - { offsetInCU: 0x50CC9, offset: 0x50CC9, size: 0x8, addend: 0x0, symName: __ZNSt3__14pairIPfS1_EC1B8ne180100IS1_S1_Li0EEEOT_OT0_, symObjAddr: 0x19AA4, symBinAddr: 0x10001AEE0, symSize: 0x3C }
  - { offsetInCU: 0x50D27, offset: 0x50D27, size: 0x8, addend: 0x0, symName: __ZNSt3__14pairIPfS1_EC2B8ne180100IS1_S1_Li0EEEOT_OT0_, symObjAddr: 0x19AE0, symBinAddr: 0x10001AF1C, symSize: 0x34 }
  - { offsetInCU: 0x50D85, offset: 0x50D85, size: 0x8, addend: 0x0, symName: __ZNKSt3__114__copy_trivialclB8ne180100IffLi0EEENS_4pairIPT_PT0_EES4_S4_S6_, symObjAddr: 0x19C90, symBinAddr: 0x10001B0CC, symSize: 0x48 }
  - { offsetInCU: 0x50DED, offset: 0x50DED, size: 0x8, addend: 0x0, symName: __ZNSt3__14pairIPfS1_EC1B8ne180100IRS1_S1_Li0EEEOT_OT0_, symObjAddr: 0x19E20, symBinAddr: 0x10001B25C, symSize: 0x3C }
  - { offsetInCU: 0x50E4B, offset: 0x50E4B, size: 0x8, addend: 0x0, symName: __ZNSt3__14pairIPfS1_EC2B8ne180100IRS1_S1_Li0EEEOT_OT0_, symObjAddr: 0x19E5C, symBinAddr: 0x10001B298, symSize: 0x34 }
  - { offsetInCU: 0x50EA9, offset: 0x50EA9, size: 0x8, addend: 0x0, symName: __ZNSt3__118__unwrap_iter_implIPfLb1EE8__unwrapB8ne180100ES1_, symObjAddr: 0x19E90, symBinAddr: 0x10001B2CC, symSize: 0x24 }
  - { offsetInCU: 0x50ECC, offset: 0x50ECC, size: 0x8, addend: 0x0, symName: __ZNSt3__118__unwrap_iter_implIPfLb1EE8__rewrapB8ne180100ES1_S1_, symObjAddr: 0x19EC8, symBinAddr: 0x10001B304, symSize: 0x50 }
  - { offsetInCU: 0x50EFD, offset: 0x50EFD, size: 0x8, addend: 0x0, symName: __ZNSt3__16vectorIfNS_9allocatorIfEEE21_ConstructTransactionD2B8ne180100Ev, symObjAddr: 0x19F18, symBinAddr: 0x10001B354, symSize: 0x20 }
  - { offsetInCU: 0x50F27, offset: 0x50F27, size: 0x8, addend: 0x0, symName: __ZNSt3__128__exception_guard_exceptionsINS_6vectorIfNS_9allocatorIfEEE16__destroy_vectorEED2B8ne180100Ev, symObjAddr: 0x19F38, symBinAddr: 0x10001B374, symSize: 0x50 }
  - { offsetInCU: 0x50F51, offset: 0x50F51, size: 0x8, addend: 0x0, symName: __ZNSt3__16vectorIfNS_9allocatorIfEEE16__destroy_vectorclB8ne180100Ev, symObjAddr: 0x19F88, symBinAddr: 0x10001B3C4, symSize: 0x90 }
  - { offsetInCU: 0x50F77, offset: 0x50F77, size: 0x8, addend: 0x0, symName: __ZNSt3__16vectorIfNS_9allocatorIfEEE7__clearB8ne180100Ev, symObjAddr: 0x1A018, symBinAddr: 0x10001B454, symSize: 0x28 }
  - { offsetInCU: 0x50F9D, offset: 0x50F9D, size: 0x8, addend: 0x0, symName: __ZNKSt3__16vectorIfNS_9allocatorIfEEE17__annotate_deleteB8ne180100Ev, symObjAddr: 0x1A040, symBinAddr: 0x10001B47C, symSize: 0x10 }
  - { offsetInCU: 0x50FC3, offset: 0x50FC3, size: 0x8, addend: 0x0, symName: __ZNSt3__116allocator_traitsINS_9allocatorIfEEE10deallocateB8ne180100ERS2_Pfm, symObjAddr: 0x1A050, symBinAddr: 0x10001B48C, symSize: 0x34 }
  - { offsetInCU: 0x51005, offset: 0x51005, size: 0x8, addend: 0x0, symName: __ZNKSt3__16vectorIfNS_9allocatorIfEEE8capacityB8ne180100Ev, symObjAddr: 0x1A084, symBinAddr: 0x10001B4C0, symSize: 0x40 }
  - { offsetInCU: 0x5102B, offset: 0x5102B, size: 0x8, addend: 0x0, symName: __ZNSt3__16vectorIfNS_9allocatorIfEEE22__base_destruct_at_endB8ne180100EPf, symObjAddr: 0x1A0C4, symBinAddr: 0x10001B500, symSize: 0x8C }
  - { offsetInCU: 0x5106F, offset: 0x5106F, size: 0x8, addend: 0x0, symName: __ZNSt3__116allocator_traitsINS_9allocatorIfEEE7destroyB8ne180100IfvEEvRS2_PT_, symObjAddr: 0x1A150, symBinAddr: 0x10001B58C, symSize: 0x2C }
  - { offsetInCU: 0x510AC, offset: 0x510AC, size: 0x8, addend: 0x0, symName: __ZNSt3__19allocatorIfE7destroyB8ne180100EPf, symObjAddr: 0x1A17C, symBinAddr: 0x10001B5B8, symSize: 0x14 }
  - { offsetInCU: 0x510E0, offset: 0x510E0, size: 0x8, addend: 0x0, symName: __ZNSt3__19allocatorIfE10deallocateB8ne180100EPfm, symObjAddr: 0x1A190, symBinAddr: 0x10001B5CC, symSize: 0x40 }
  - { offsetInCU: 0x51122, offset: 0x51122, size: 0x8, addend: 0x0, symName: __ZNKSt3__16vectorIfNS_9allocatorIfEEE9__end_capB8ne180100Ev, symObjAddr: 0x1A1D0, symBinAddr: 0x10001B60C, symSize: 0x28 }
  - { offsetInCU: 0x51148, offset: 0x51148, size: 0x8, addend: 0x0, symName: __ZNKSt3__117__compressed_pairIPfNS_9allocatorIfEEE5firstB8ne180100Ev, symObjAddr: 0x1A1F8, symBinAddr: 0x10001B634, symSize: 0x24 }
  - { offsetInCU: 0x5116E, offset: 0x5116E, size: 0x8, addend: 0x0, symName: __ZNKSt3__122__compressed_pair_elemIPfLi0ELb0EE5__getB8ne180100Ev, symObjAddr: 0x1A21C, symBinAddr: 0x10001B658, symSize: 0x14 }
  - { offsetInCU: 0x51194, offset: 0x51194, size: 0x8, addend: 0x0, symName: __ZNSt3__16vectorINS_12basic_stringIcNS_11char_traitsIcEENS_9allocatorIcEEEENS4_IS6_EEEC2ERKS8_, symObjAddr: 0x1A230, symBinAddr: 0x10001B66C, symSize: 0x94 }
  - { offsetInCU: 0x511DA, offset: 0x511DA, size: 0x8, addend: 0x0, symName: __ZNSt3__116allocator_traitsINS_9allocatorINS_12basic_stringIcNS_11char_traitsIcEENS1_IcEEEEEEE37select_on_container_copy_constructionB8ne180100IS7_vvEES7_RKS7_, symObjAddr: 0x1A2C4, symBinAddr: 0x10001B700, symSize: 0x10 }
  - { offsetInCU: 0x51209, offset: 0x51209, size: 0x8, addend: 0x0, symName: __ZNKSt3__16vectorINS_12basic_stringIcNS_11char_traitsIcEENS_9allocatorIcEEEENS4_IS6_EEE7__allocB8ne180100Ev, symObjAddr: 0x1A2D4, symBinAddr: 0x10001B710, symSize: 0x28 }
  - { offsetInCU: 0x51235, offset: 0x51235, size: 0x8, addend: 0x0, symName: __ZNSt3__117__compressed_pairIPNS_12basic_stringIcNS_11char_traitsIcEENS_9allocatorIcEEEENS4_IS6_EEEC1B8ne180100IDnS8_EEOT_OT0_, symObjAddr: 0x1A2FC, symBinAddr: 0x10001B738, symSize: 0x3C }
  - { offsetInCU: 0x5128D, offset: 0x5128D, size: 0x8, addend: 0x0, symName: __ZNSt3__16vectorINS_12basic_stringIcNS_11char_traitsIcEENS_9allocatorIcEEEENS4_IS6_EEE16__init_with_sizeB8ne180100IPS6_SA_EEvT_T0_m, symObjAddr: 0x1A338, symBinAddr: 0x10001B774, symSize: 0xB8 }
  - { offsetInCU: 0x51301, offset: 0x51301, size: 0x8, addend: 0x0, symName: __ZNKSt3__117__compressed_pairIPNS_12basic_stringIcNS_11char_traitsIcEENS_9allocatorIcEEEENS4_IS6_EEE6secondB8ne180100Ev, symObjAddr: 0x1A3F0, symBinAddr: 0x10001B82C, symSize: 0x24 }
  - { offsetInCU: 0x51327, offset: 0x51327, size: 0x8, addend: 0x0, symName: __ZNKSt3__122__compressed_pair_elemINS_9allocatorINS_12basic_stringIcNS_11char_traitsIcEENS1_IcEEEEEELi1ELb1EE5__getB8ne180100Ev, symObjAddr: 0x1A414, symBinAddr: 0x10001B850, symSize: 0x14 }
  - { offsetInCU: 0x5134D, offset: 0x5134D, size: 0x8, addend: 0x0, symName: __ZNSt3__117__compressed_pairIPNS_12basic_stringIcNS_11char_traitsIcEENS_9allocatorIcEEEENS4_IS6_EEEC2B8ne180100IDnS8_EEOT_OT0_, symObjAddr: 0x1A428, symBinAddr: 0x10001B864, symSize: 0x44 }
  - { offsetInCU: 0x513A5, offset: 0x513A5, size: 0x8, addend: 0x0, symName: __ZNSt3__122__compressed_pair_elemIPNS_12basic_stringIcNS_11char_traitsIcEENS_9allocatorIcEEEELi0ELb0EEC2B8ne180100IDnvEEOT_, symObjAddr: 0x1A46C, symBinAddr: 0x10001B8A8, symSize: 0x1C }
  - { offsetInCU: 0x513E7, offset: 0x513E7, size: 0x8, addend: 0x0, symName: __ZNSt3__122__compressed_pair_elemINS_9allocatorINS_12basic_stringIcNS_11char_traitsIcEENS1_IcEEEEEELi1ELb1EEC2B8ne180100IS7_vEEOT_, symObjAddr: 0x1A488, symBinAddr: 0x10001B8C4, symSize: 0x18 }
  - { offsetInCU: 0x51429, offset: 0x51429, size: 0x8, addend: 0x0, symName: __ZNSt3__16vectorINS_12basic_stringIcNS_11char_traitsIcEENS_9allocatorIcEEEENS4_IS6_EEE16__destroy_vectorC1B8ne180100ERS8_, symObjAddr: 0x1A4E0, symBinAddr: 0x10001B91C, symSize: 0x34 }
  - { offsetInCU: 0x51462, offset: 0x51462, size: 0x8, addend: 0x0, symName: __ZNSt3__16vectorINS_12basic_stringIcNS_11char_traitsIcEENS_9allocatorIcEEEENS4_IS6_EEE11__vallocateB8ne180100Em, symObjAddr: 0x1A514, symBinAddr: 0x10001B950, symSize: 0xB4 }
  - { offsetInCU: 0x514A6, offset: 0x514A6, size: 0x8, addend: 0x0, symName: __ZNSt3__16vectorINS_12basic_stringIcNS_11char_traitsIcEENS_9allocatorIcEEEENS4_IS6_EEE18__construct_at_endIPS6_SA_EEvT_T0_m, symObjAddr: 0x1A5C8, symBinAddr: 0x10001BA04, symSize: 0x8C }
  - { offsetInCU: 0x5151C, offset: 0x5151C, size: 0x8, addend: 0x0, symName: __ZNSt3__128__exception_guard_exceptionsINS_6vectorINS_12basic_stringIcNS_11char_traitsIcEENS_9allocatorIcEEEENS5_IS7_EEE16__destroy_vectorEE10__completeB8ne180100Ev, symObjAddr: 0x1A654, symBinAddr: 0x10001BA90, symSize: 0x1C }
  - { offsetInCU: 0x51542, offset: 0x51542, size: 0x8, addend: 0x0, symName: __ZNSt3__128__exception_guard_exceptionsINS_6vectorINS_12basic_stringIcNS_11char_traitsIcEENS_9allocatorIcEEEENS5_IS7_EEE16__destroy_vectorEED1B8ne180100Ev, symObjAddr: 0x1A670, symBinAddr: 0x10001BAAC, symSize: 0x2C }
  - { offsetInCU: 0x5156C, offset: 0x5156C, size: 0x8, addend: 0x0, symName: __ZNSt3__128__exception_guard_exceptionsINS_6vectorINS_12basic_stringIcNS_11char_traitsIcEENS_9allocatorIcEEEENS5_IS7_EEE16__destroy_vectorEEC1B8ne180100ESA_, symObjAddr: 0x1A69C, symBinAddr: 0x10001BAD8, symSize: 0x34 }
  - { offsetInCU: 0x515A4, offset: 0x515A4, size: 0x8, addend: 0x0, symName: __ZNSt3__128__exception_guard_exceptionsINS_6vectorINS_12basic_stringIcNS_11char_traitsIcEENS_9allocatorIcEEEENS5_IS7_EEE16__destroy_vectorEEC2B8ne180100ESA_, symObjAddr: 0x1A6D0, symBinAddr: 0x10001BB0C, symSize: 0x24 }
  - { offsetInCU: 0x515DC, offset: 0x515DC, size: 0x8, addend: 0x0, symName: __ZNSt3__16vectorINS_12basic_stringIcNS_11char_traitsIcEENS_9allocatorIcEEEENS4_IS6_EEE16__destroy_vectorC2B8ne180100ERS8_, symObjAddr: 0x1A6F4, symBinAddr: 0x10001BB30, symSize: 0x20 }
  - { offsetInCU: 0x51615, offset: 0x51615, size: 0x8, addend: 0x0, symName: __ZNKSt3__16vectorINS_12basic_stringIcNS_11char_traitsIcEENS_9allocatorIcEEEENS4_IS6_EEE8max_sizeEv, symObjAddr: 0x1A714, symBinAddr: 0x10001BB50, symSize: 0x60 }
  - { offsetInCU: 0x5163D, offset: 0x5163D, size: 0x8, addend: 0x0, symName: __ZNKSt3__16vectorINS_12basic_stringIcNS_11char_traitsIcEENS_9allocatorIcEEEENS4_IS6_EEE20__throw_length_errorB8ne180100Ev, symObjAddr: 0x1A774, symBinAddr: 0x10001BBB0, symSize: 0x1C }
  - { offsetInCU: 0x51663, offset: 0x51663, size: 0x8, addend: 0x0, symName: __ZNSt3__16vectorINS_12basic_stringIcNS_11char_traitsIcEENS_9allocatorIcEEEENS4_IS6_EEE7__allocB8ne180100Ev, symObjAddr: 0x1A7D0, symBinAddr: 0x10001BC0C, symSize: 0x28 }
  - { offsetInCU: 0x51689, offset: 0x51689, size: 0x8, addend: 0x0, symName: __ZNSt3__16vectorINS_12basic_stringIcNS_11char_traitsIcEENS_9allocatorIcEEEENS4_IS6_EEE9__end_capB8ne180100Ev, symObjAddr: 0x1A7F8, symBinAddr: 0x10001BC34, symSize: 0x28 }
  - { offsetInCU: 0x516AF, offset: 0x516AF, size: 0x8, addend: 0x0, symName: __ZNKSt3__16vectorINS_12basic_stringIcNS_11char_traitsIcEENS_9allocatorIcEEEENS4_IS6_EEE14__annotate_newB8ne180100Em, symObjAddr: 0x1A820, symBinAddr: 0x10001BC5C, symSize: 0x14 }
  - { offsetInCU: 0x516E4, offset: 0x516E4, size: 0x8, addend: 0x0, symName: __ZNSt3__116allocator_traitsINS_9allocatorINS_12basic_stringIcNS_11char_traitsIcEENS1_IcEEEEEEE8max_sizeB8ne180100IS7_vEEmRKS7_, symObjAddr: 0x1A834, symBinAddr: 0x10001BC70, symSize: 0x24 }
  - { offsetInCU: 0x51712, offset: 0x51712, size: 0x8, addend: 0x0, symName: __ZNKSt3__19allocatorINS_12basic_stringIcNS_11char_traitsIcEENS0_IcEEEEE8max_sizeB8ne180100Ev, symObjAddr: 0x1A858, symBinAddr: 0x10001BC94, symSize: 0x18 }
  - { offsetInCU: 0x51738, offset: 0x51738, size: 0x8, addend: 0x0, symName: __ZNSt3__19allocatorINS_12basic_stringIcNS_11char_traitsIcEENS0_IcEEEEE8allocateB8ne180100Em, symObjAddr: 0x1A870, symBinAddr: 0x10001BCAC, symSize: 0x5C }
  - { offsetInCU: 0x5176C, offset: 0x5176C, size: 0x8, addend: 0x0, symName: __ZNSt3__117__compressed_pairIPNS_12basic_stringIcNS_11char_traitsIcEENS_9allocatorIcEEEENS4_IS6_EEE6secondB8ne180100Ev, symObjAddr: 0x1A8CC, symBinAddr: 0x10001BD08, symSize: 0x24 }
  - { offsetInCU: 0x51792, offset: 0x51792, size: 0x8, addend: 0x0, symName: __ZNSt3__122__compressed_pair_elemINS_9allocatorINS_12basic_stringIcNS_11char_traitsIcEENS1_IcEEEEEELi1ELb1EE5__getB8ne180100Ev, symObjAddr: 0x1A8F0, symBinAddr: 0x10001BD2C, symSize: 0x14 }
  - { offsetInCU: 0x517B8, offset: 0x517B8, size: 0x8, addend: 0x0, symName: __ZNSt3__117__compressed_pairIPNS_12basic_stringIcNS_11char_traitsIcEENS_9allocatorIcEEEENS4_IS6_EEE5firstB8ne180100Ev, symObjAddr: 0x1A904, symBinAddr: 0x10001BD40, symSize: 0x24 }
  - { offsetInCU: 0x517DE, offset: 0x517DE, size: 0x8, addend: 0x0, symName: __ZNSt3__122__compressed_pair_elemIPNS_12basic_stringIcNS_11char_traitsIcEENS_9allocatorIcEEEELi0ELb0EE5__getB8ne180100Ev, symObjAddr: 0x1A928, symBinAddr: 0x10001BD64, symSize: 0x14 }
  - { offsetInCU: 0x5181F, offset: 0x5181F, size: 0x8, addend: 0x0, symName: __ZNSt3__16vectorINS_12basic_stringIcNS_11char_traitsIcEENS_9allocatorIcEEEENS4_IS6_EEE21_ConstructTransactionC1B8ne180100ERS8_m, symObjAddr: 0x1A93C, symBinAddr: 0x10001BD78, symSize: 0x3C }
  - { offsetInCU: 0x51867, offset: 0x51867, size: 0x8, addend: 0x0, symName: __ZNSt3__16vectorINS_12basic_stringIcNS_11char_traitsIcEENS_9allocatorIcEEEENS4_IS6_EEE21_ConstructTransactionD1B8ne180100Ev, symObjAddr: 0x1A9F8, symBinAddr: 0x10001BE34, symSize: 0x2C }
  - { offsetInCU: 0x51891, offset: 0x51891, size: 0x8, addend: 0x0, symName: __ZNSt3__16vectorINS_12basic_stringIcNS_11char_traitsIcEENS_9allocatorIcEEEENS4_IS6_EEE21_ConstructTransactionC2B8ne180100ERS8_m, symObjAddr: 0x1AA24, symBinAddr: 0x10001BE60, symSize: 0x4C }
  - { offsetInCU: 0x518FB, offset: 0x518FB, size: 0x8, addend: 0x0, symName: __ZNSt3__14pairIPNS_12basic_stringIcNS_11char_traitsIcEENS_9allocatorIcEEEES7_EC1B8ne180100IS7_S7_Li0EEEOT_OT0_, symObjAddr: 0x1AC5C, symBinAddr: 0x10001C098, symSize: 0x3C }
  - { offsetInCU: 0x51959, offset: 0x51959, size: 0x8, addend: 0x0, symName: __ZNSt3__14pairIPNS_12basic_stringIcNS_11char_traitsIcEENS_9allocatorIcEEEES7_EC2B8ne180100IS7_S7_Li0EEEOT_OT0_, symObjAddr: 0x1AC98, symBinAddr: 0x10001C0D4, symSize: 0x34 }
  - { offsetInCU: 0x519B7, offset: 0x519B7, size: 0x8, addend: 0x0, symName: __ZNSt3__129_AllocatorDestroyRangeReverseINS_9allocatorINS_12basic_stringIcNS_11char_traitsIcEENS1_IcEEEEEEPS6_EC1B8ne180100ERS7_RS8_SB_, symObjAddr: 0x1AD18, symBinAddr: 0x10001C154, symSize: 0x44 }
  - { offsetInCU: 0x51A0E, offset: 0x51A0E, size: 0x8, addend: 0x0, symName: __ZNSt3__116allocator_traitsINS_9allocatorINS_12basic_stringIcNS_11char_traitsIcEENS1_IcEEEEEEE9constructB8ne180100IS6_JRS6_EvEEvRS7_PT_DpOT0_, symObjAddr: 0x1AD5C, symBinAddr: 0x10001C198, symSize: 0x34 }
  - { offsetInCU: 0x51A65, offset: 0x51A65, size: 0x8, addend: 0x0, symName: __ZNSt3__128__exception_guard_exceptionsINS_29_AllocatorDestroyRangeReverseINS_9allocatorINS_12basic_stringIcNS_11char_traitsIcEENS2_IcEEEEEEPS7_EEE10__completeB8ne180100Ev, symObjAddr: 0x1ADA4, symBinAddr: 0x10001C1E0, symSize: 0x1C }
  - { offsetInCU: 0x51A8B, offset: 0x51A8B, size: 0x8, addend: 0x0, symName: __ZNSt3__128__exception_guard_exceptionsINS_29_AllocatorDestroyRangeReverseINS_9allocatorINS_12basic_stringIcNS_11char_traitsIcEENS2_IcEEEEEEPS7_EEED1B8ne180100Ev, symObjAddr: 0x1ADC0, symBinAddr: 0x10001C1FC, symSize: 0x2C }
  - { offsetInCU: 0x51AB5, offset: 0x51AB5, size: 0x8, addend: 0x0, symName: __ZNSt3__128__exception_guard_exceptionsINS_29_AllocatorDestroyRangeReverseINS_9allocatorINS_12basic_stringIcNS_11char_traitsIcEENS2_IcEEEEEEPS7_EEEC1B8ne180100ESA_, symObjAddr: 0x1ADEC, symBinAddr: 0x10001C228, symSize: 0x34 }
  - { offsetInCU: 0x51AEE, offset: 0x51AEE, size: 0x8, addend: 0x0, symName: __ZNSt3__128__exception_guard_exceptionsINS_29_AllocatorDestroyRangeReverseINS_9allocatorINS_12basic_stringIcNS_11char_traitsIcEENS2_IcEEEEEEPS7_EEEC2B8ne180100ESA_, symObjAddr: 0x1AE20, symBinAddr: 0x10001C25C, symSize: 0x30 }
  - { offsetInCU: 0x51B27, offset: 0x51B27, size: 0x8, addend: 0x0, symName: __ZNSt3__129_AllocatorDestroyRangeReverseINS_9allocatorINS_12basic_stringIcNS_11char_traitsIcEENS1_IcEEEEEEPS6_EC2B8ne180100ERS7_RS8_SB_, symObjAddr: 0x1AE50, symBinAddr: 0x10001C28C, symSize: 0x38 }
  - { offsetInCU: 0x51B7E, offset: 0x51B7E, size: 0x8, addend: 0x0, symName: __ZNSt3__19allocatorINS_12basic_stringIcNS_11char_traitsIcEENS0_IcEEEEE9constructB8ne180100IS5_JRS5_EEEvPT_DpOT0_, symObjAddr: 0x1AE88, symBinAddr: 0x10001C2C4, symSize: 0x30 }
  - { offsetInCU: 0x51BD4, offset: 0x51BD4, size: 0x8, addend: 0x0, symName: __ZNSt3__128__exception_guard_exceptionsINS_29_AllocatorDestroyRangeReverseINS_9allocatorINS_12basic_stringIcNS_11char_traitsIcEENS2_IcEEEEEEPS7_EEED2B8ne180100Ev, symObjAddr: 0x1AEB8, symBinAddr: 0x10001C2F4, symSize: 0x50 }
  - { offsetInCU: 0x51BFE, offset: 0x51BFE, size: 0x8, addend: 0x0, symName: __ZNKSt3__129_AllocatorDestroyRangeReverseINS_9allocatorINS_12basic_stringIcNS_11char_traitsIcEENS1_IcEEEEEEPS6_EclB8ne180100Ev, symObjAddr: 0x1AF08, symBinAddr: 0x10001C344, symSize: 0x68 }
  - { offsetInCU: 0x51C24, offset: 0x51C24, size: 0x8, addend: 0x0, symName: __ZNSt3__116reverse_iteratorIPNS_12basic_stringIcNS_11char_traitsIcEENS_9allocatorIcEEEEEC1B8ne180100ES7_, symObjAddr: 0x1AFE0, symBinAddr: 0x10001C41C, symSize: 0x34 }
  - { offsetInCU: 0x51C5C, offset: 0x51C5C, size: 0x8, addend: 0x0, symName: __ZNSt3__116allocator_traitsINS_9allocatorINS_12basic_stringIcNS_11char_traitsIcEENS1_IcEEEEEEE7destroyB8ne180100IS6_vEEvRS7_PT_, symObjAddr: 0x1B05C, symBinAddr: 0x10001C498, symSize: 0x2C }
  - { offsetInCU: 0x51C99, offset: 0x51C99, size: 0x8, addend: 0x0, symName: __ZNSt3__116reverse_iteratorIPNS_12basic_stringIcNS_11char_traitsIcEENS_9allocatorIcEEEEEppB8ne180100Ev, symObjAddr: 0x1B0AC, symBinAddr: 0x10001C4E8, symSize: 0x20 }
  - { offsetInCU: 0x51CBF, offset: 0x51CBF, size: 0x8, addend: 0x0, symName: __ZNKSt3__116reverse_iteratorIPNS_12basic_stringIcNS_11char_traitsIcEENS_9allocatorIcEEEEE4baseB8ne180100Ev, symObjAddr: 0x1B0CC, symBinAddr: 0x10001C508, symSize: 0x18 }
  - { offsetInCU: 0x51CE5, offset: 0x51CE5, size: 0x8, addend: 0x0, symName: __ZNSt3__19allocatorINS_12basic_stringIcNS_11char_traitsIcEENS0_IcEEEEE7destroyB8ne180100EPS5_, symObjAddr: 0x1B0E4, symBinAddr: 0x10001C520, symSize: 0x28 }
  - { offsetInCU: 0x51D1F, offset: 0x51D1F, size: 0x8, addend: 0x0, symName: __ZNSt3__119__to_address_helperINS_16reverse_iteratorIPNS_12basic_stringIcNS_11char_traitsIcEENS_9allocatorIcEEEEEEvE6__callB8ne180100ERKS9_, symObjAddr: 0x1B10C, symBinAddr: 0x10001C548, symSize: 0x38 }
  - { offsetInCU: 0x51D42, offset: 0x51D42, size: 0x8, addend: 0x0, symName: __ZNKSt3__116reverse_iteratorIPNS_12basic_stringIcNS_11char_traitsIcEENS_9allocatorIcEEEEEptB8ne180100Ev, symObjAddr: 0x1B144, symBinAddr: 0x10001C580, symSize: 0x24 }
  - { offsetInCU: 0x51D68, offset: 0x51D68, size: 0x8, addend: 0x0, symName: __ZNKSt3__116reverse_iteratorIPNS_12basic_stringIcNS_11char_traitsIcEENS_9allocatorIcEEEEEdeB8ne180100Ev, symObjAddr: 0x1B168, symBinAddr: 0x10001C5A4, symSize: 0x28 }
  - { offsetInCU: 0x51D9C, offset: 0x51D9C, size: 0x8, addend: 0x0, symName: __ZNSt3__116reverse_iteratorIPNS_12basic_stringIcNS_11char_traitsIcEENS_9allocatorIcEEEEEC2B8ne180100ES7_, symObjAddr: 0x1B190, symBinAddr: 0x10001C5CC, symSize: 0x28 }
  - { offsetInCU: 0x51DD4, offset: 0x51DD4, size: 0x8, addend: 0x0, symName: __ZNSt3__118__unwrap_iter_implIPNS_12basic_stringIcNS_11char_traitsIcEENS_9allocatorIcEEEELb1EE8__unwrapB8ne180100ES7_, symObjAddr: 0x1B1B8, symBinAddr: 0x10001C5F4, symSize: 0x24 }
  - { offsetInCU: 0x51DF7, offset: 0x51DF7, size: 0x8, addend: 0x0, symName: __ZNSt3__118__unwrap_iter_implIPNS_12basic_stringIcNS_11char_traitsIcEENS_9allocatorIcEEEELb1EE8__rewrapB8ne180100ES7_S7_, symObjAddr: 0x1B1DC, symBinAddr: 0x10001C618, symSize: 0x58 }
  - { offsetInCU: 0x51E28, offset: 0x51E28, size: 0x8, addend: 0x0, symName: __ZNSt3__16vectorINS_12basic_stringIcNS_11char_traitsIcEENS_9allocatorIcEEEENS4_IS6_EEE21_ConstructTransactionD2B8ne180100Ev, symObjAddr: 0x1B234, symBinAddr: 0x10001C670, symSize: 0x20 }
  - { offsetInCU: 0x51E52, offset: 0x51E52, size: 0x8, addend: 0x0, symName: __ZNSt3__128__exception_guard_exceptionsINS_6vectorINS_12basic_stringIcNS_11char_traitsIcEENS_9allocatorIcEEEENS5_IS7_EEE16__destroy_vectorEED2B8ne180100Ev, symObjAddr: 0x1B254, symBinAddr: 0x10001C690, symSize: 0x50 }
  - { offsetInCU: 0x51E7C, offset: 0x51E7C, size: 0x8, addend: 0x0, symName: __ZNSt3__16vectorINS_12basic_stringIcNS_11char_traitsIcEENS_9allocatorIcEEEENS4_IS6_EEE16__destroy_vectorclB8ne180100Ev, symObjAddr: 0x1B2A4, symBinAddr: 0x10001C6E0, symSize: 0x90 }
  - { offsetInCU: 0x51EA2, offset: 0x51EA2, size: 0x8, addend: 0x0, symName: __ZNSt3__16vectorINS_12basic_stringIcNS_11char_traitsIcEENS_9allocatorIcEEEENS4_IS6_EEE7__clearB8ne180100Ev, symObjAddr: 0x1B334, symBinAddr: 0x10001C770, symSize: 0x28 }
  - { offsetInCU: 0x51EC8, offset: 0x51EC8, size: 0x8, addend: 0x0, symName: __ZNKSt3__16vectorINS_12basic_stringIcNS_11char_traitsIcEENS_9allocatorIcEEEENS4_IS6_EEE17__annotate_deleteB8ne180100Ev, symObjAddr: 0x1B35C, symBinAddr: 0x10001C798, symSize: 0x10 }
  - { offsetInCU: 0x51EEE, offset: 0x51EEE, size: 0x8, addend: 0x0, symName: __ZNSt3__116allocator_traitsINS_9allocatorINS_12basic_stringIcNS_11char_traitsIcEENS1_IcEEEEEEE10deallocateB8ne180100ERS7_PS6_m, symObjAddr: 0x1B36C, symBinAddr: 0x10001C7A8, symSize: 0x34 }
  - { offsetInCU: 0x51F30, offset: 0x51F30, size: 0x8, addend: 0x0, symName: __ZNKSt3__16vectorINS_12basic_stringIcNS_11char_traitsIcEENS_9allocatorIcEEEENS4_IS6_EEE8capacityB8ne180100Ev, symObjAddr: 0x1B3A0, symBinAddr: 0x10001C7DC, symSize: 0x40 }
  - { offsetInCU: 0x51F56, offset: 0x51F56, size: 0x8, addend: 0x0, symName: __ZNSt3__16vectorINS_12basic_stringIcNS_11char_traitsIcEENS_9allocatorIcEEEENS4_IS6_EEE22__base_destruct_at_endB8ne180100EPS6_, symObjAddr: 0x1B3E0, symBinAddr: 0x10001C81C, symSize: 0x8C }
  - { offsetInCU: 0x51F9A, offset: 0x51F9A, size: 0x8, addend: 0x0, symName: __ZNSt3__19allocatorINS_12basic_stringIcNS_11char_traitsIcEENS0_IcEEEEE10deallocateB8ne180100EPS5_m, symObjAddr: 0x1B46C, symBinAddr: 0x10001C8A8, symSize: 0x44 }
  - { offsetInCU: 0x51FDC, offset: 0x51FDC, size: 0x8, addend: 0x0, symName: __ZNKSt3__16vectorINS_12basic_stringIcNS_11char_traitsIcEENS_9allocatorIcEEEENS4_IS6_EEE9__end_capB8ne180100Ev, symObjAddr: 0x1B4B0, symBinAddr: 0x10001C8EC, symSize: 0x28 }
  - { offsetInCU: 0x52002, offset: 0x52002, size: 0x8, addend: 0x0, symName: __ZNKSt3__117__compressed_pairIPNS_12basic_stringIcNS_11char_traitsIcEENS_9allocatorIcEEEENS4_IS6_EEE5firstB8ne180100Ev, symObjAddr: 0x1B4D8, symBinAddr: 0x10001C914, symSize: 0x24 }
  - { offsetInCU: 0x52028, offset: 0x52028, size: 0x8, addend: 0x0, symName: __ZNKSt3__122__compressed_pair_elemIPNS_12basic_stringIcNS_11char_traitsIcEENS_9allocatorIcEEEELi0ELb0EE5__getB8ne180100Ev, symObjAddr: 0x1B4FC, symBinAddr: 0x10001C938, symSize: 0x14 }
  - { offsetInCU: 0x5204E, offset: 0x5204E, size: 0x8, addend: 0x0, symName: __ZNSt3__16vectorIiNS_9allocatorIiEEED2B8ne180100Ev, symObjAddr: 0x1B510, symBinAddr: 0x10001C94C, symSize: 0x40 }
  - { offsetInCU: 0x52078, offset: 0x52078, size: 0x8, addend: 0x0, symName: __ZNSt3__128__exception_guard_exceptionsINS_29_AllocatorDestroyRangeReverseINS_9allocatorIN7tinyobj5tag_tEEEPS4_EEED2B8ne180100Ev, symObjAddr: 0x1B550, symBinAddr: 0x10001C98C, symSize: 0x50 }
  - { offsetInCU: 0x520A2, offset: 0x520A2, size: 0x8, addend: 0x0, symName: __ZNKSt3__129_AllocatorDestroyRangeReverseINS_9allocatorIN7tinyobj5tag_tEEEPS3_EclB8ne180100Ev, symObjAddr: 0x1B5A0, symBinAddr: 0x10001C9DC, symSize: 0x68 }
  - { offsetInCU: 0x520C8, offset: 0x520C8, size: 0x8, addend: 0x0, symName: __ZNSt3__116reverse_iteratorIPN7tinyobj5tag_tEEC1B8ne180100ES3_, symObjAddr: 0x1B678, symBinAddr: 0x10001CAB4, symSize: 0x34 }
  - { offsetInCU: 0x52100, offset: 0x52100, size: 0x8, addend: 0x0, symName: __ZNSt3__116allocator_traitsINS_9allocatorIN7tinyobj5tag_tEEEE7destroyB8ne180100IS3_vEEvRS4_PT_, symObjAddr: 0x1B6F4, symBinAddr: 0x10001CB30, symSize: 0x2C }
  - { offsetInCU: 0x5213D, offset: 0x5213D, size: 0x8, addend: 0x0, symName: __ZNSt3__116reverse_iteratorIPN7tinyobj5tag_tEEppB8ne180100Ev, symObjAddr: 0x1B744, symBinAddr: 0x10001CB80, symSize: 0x20 }
  - { offsetInCU: 0x52163, offset: 0x52163, size: 0x8, addend: 0x0, symName: __ZNKSt3__116reverse_iteratorIPN7tinyobj5tag_tEE4baseB8ne180100Ev, symObjAddr: 0x1B764, symBinAddr: 0x10001CBA0, symSize: 0x18 }
  - { offsetInCU: 0x52189, offset: 0x52189, size: 0x8, addend: 0x0, symName: __ZNSt3__19allocatorIN7tinyobj5tag_tEE7destroyB8ne180100EPS2_, symObjAddr: 0x1B77C, symBinAddr: 0x10001CBB8, symSize: 0x28 }
  - { offsetInCU: 0x521C3, offset: 0x521C3, size: 0x8, addend: 0x0, symName: __ZNSt3__119__to_address_helperINS_16reverse_iteratorIPN7tinyobj5tag_tEEEvE6__callB8ne180100ERKS5_, symObjAddr: 0x1B7A4, symBinAddr: 0x10001CBE0, symSize: 0x38 }
  - { offsetInCU: 0x521E6, offset: 0x521E6, size: 0x8, addend: 0x0, symName: __ZNKSt3__116reverse_iteratorIPN7tinyobj5tag_tEEptB8ne180100Ev, symObjAddr: 0x1B7DC, symBinAddr: 0x10001CC18, symSize: 0x24 }
  - { offsetInCU: 0x5220C, offset: 0x5220C, size: 0x8, addend: 0x0, symName: __ZNKSt3__116reverse_iteratorIPN7tinyobj5tag_tEEdeB8ne180100Ev, symObjAddr: 0x1B800, symBinAddr: 0x10001CC3C, symSize: 0x28 }
  - { offsetInCU: 0x52240, offset: 0x52240, size: 0x8, addend: 0x0, symName: __ZNSt3__116reverse_iteratorIPN7tinyobj5tag_tEEC2B8ne180100ES3_, symObjAddr: 0x1B828, symBinAddr: 0x10001CC64, symSize: 0x28 }
  - { offsetInCU: 0x52278, offset: 0x52278, size: 0x8, addend: 0x0, symName: __ZNSt3__118__unwrap_iter_implIPN7tinyobj5tag_tELb1EE8__unwrapB8ne180100ES3_, symObjAddr: 0x1B850, symBinAddr: 0x10001CC8C, symSize: 0x24 }
  - { offsetInCU: 0x5229B, offset: 0x5229B, size: 0x8, addend: 0x0, symName: __ZNSt3__118__unwrap_iter_implIPN7tinyobj5tag_tELb1EE8__rewrapB8ne180100ES3_S3_, symObjAddr: 0x1B874, symBinAddr: 0x10001CCB0, symSize: 0x58 }
  - { offsetInCU: 0x522CC, offset: 0x522CC, size: 0x8, addend: 0x0, symName: __ZNSt3__117__compressed_pairIPN7tinyobj5tag_tENS_9allocatorIS2_EEE6secondB8ne180100Ev, symObjAddr: 0x1B8CC, symBinAddr: 0x10001CD08, symSize: 0x24 }
  - { offsetInCU: 0x522F2, offset: 0x522F2, size: 0x8, addend: 0x0, symName: __ZNSt3__122__compressed_pair_elemINS_9allocatorIN7tinyobj5tag_tEEELi1ELb1EE5__getB8ne180100Ev, symObjAddr: 0x1B8F0, symBinAddr: 0x10001CD2C, symSize: 0x14 }
  - { offsetInCU: 0x52318, offset: 0x52318, size: 0x8, addend: 0x0, symName: __ZNSt3__16vectorIN7tinyobj5tag_tENS_9allocatorIS2_EEE21_ConstructTransactionD2B8ne180100Ev, symObjAddr: 0x1B904, symBinAddr: 0x10001CD40, symSize: 0x20 }
  - { offsetInCU: 0x5234C, offset: 0x5234C, size: 0x8, addend: 0x0, symName: __ZNKSt3__111__copy_loopINS_17_ClassicAlgPolicyEEclB8ne180100IPN7tinyobj5tag_tES6_S6_EENS_4pairIT_T1_EES8_T0_S9_, symObjAddr: 0x1BA1C, symBinAddr: 0x10001CE58, symSize: 0x88 }
  - { offsetInCU: 0x523B7, offset: 0x523B7, size: 0x8, addend: 0x0, symName: __ZN7tinyobj5tag_taSERKS0_, symObjAddr: 0x1BAD0, symBinAddr: 0x10001CF0C, symSize: 0x70 }
  - { offsetInCU: 0x523E9, offset: 0x523E9, size: 0x8, addend: 0x0, symName: __ZNSt3__16vectorIiNS_9allocatorIiEEEaSB8ne180100ERKS3_, symObjAddr: 0x1BB40, symBinAddr: 0x10001CF7C, symSize: 0x68 }
  - { offsetInCU: 0x52420, offset: 0x52420, size: 0x8, addend: 0x0, symName: __ZNSt3__16vectorIfNS_9allocatorIfEEEaSB8ne180100ERKS3_, symObjAddr: 0x1BBA8, symBinAddr: 0x10001CFE4, symSize: 0x68 }
  - { offsetInCU: 0x52457, offset: 0x52457, size: 0x8, addend: 0x0, symName: __ZNSt3__16vectorINS_12basic_stringIcNS_11char_traitsIcEENS_9allocatorIcEEEENS4_IS6_EEEaSB8ne180100ERKS8_, symObjAddr: 0x1BC10, symBinAddr: 0x10001D04C, symSize: 0x68 }
  - { offsetInCU: 0x5248E, offset: 0x5248E, size: 0x8, addend: 0x0, symName: __ZNSt3__16vectorIiNS_9allocatorIiEEE19__copy_assign_allocB8ne180100ERKS3_, symObjAddr: 0x1BC78, symBinAddr: 0x10001D0B4, symSize: 0x2C }
  - { offsetInCU: 0x524C3, offset: 0x524C3, size: 0x8, addend: 0x0, symName: __ZNSt3__16vectorIiNS_9allocatorIiEEE6assignIPiLi0EEEvT_S6_, symObjAddr: 0x1BCA4, symBinAddr: 0x10001D0E0, symSize: 0x5C }
  - { offsetInCU: 0x52518, offset: 0x52518, size: 0x8, addend: 0x0, symName: __ZNSt3__16vectorIiNS_9allocatorIiEEE19__copy_assign_allocB8ne180100ERKS3_NS_17integral_constantIbLb0EEE, symObjAddr: 0x1BD00, symBinAddr: 0x10001D13C, symSize: 0x14 }
  - { offsetInCU: 0x52556, offset: 0x52556, size: 0x8, addend: 0x0, symName: __ZNSt3__16vectorIiNS_9allocatorIiEEE18__assign_with_sizeB8ne180100IPiS5_EEvT_T0_l, symObjAddr: 0x1BD14, symBinAddr: 0x10001D150, symSize: 0x164 }
  - { offsetInCU: 0x52606, offset: 0x52606, size: 0x8, addend: 0x0, symName: __ZNSt3__16vectorIiNS_9allocatorIiEEE17__destruct_at_endB8ne180100EPi, symObjAddr: 0x1BED8, symBinAddr: 0x10001D314, symSize: 0x4C }
  - { offsetInCU: 0x5264A, offset: 0x5264A, size: 0x8, addend: 0x0, symName: __ZNSt3__16vectorIiNS_9allocatorIiEEE13__vdeallocateEv, symObjAddr: 0x1BF24, symBinAddr: 0x10001D360, symSize: 0x94 }
  - { offsetInCU: 0x52672, offset: 0x52672, size: 0x8, addend: 0x0, symName: __ZNKSt3__16vectorIiNS_9allocatorIiEEE17__annotate_shrinkB8ne180100Em, symObjAddr: 0x1C018, symBinAddr: 0x10001D454, symSize: 0x14 }
  - { offsetInCU: 0x526A7, offset: 0x526A7, size: 0x8, addend: 0x0, symName: __ZNSt3__16vectorIiNS_9allocatorIiEEE5clearB8ne180100Ev, symObjAddr: 0x1C02C, symBinAddr: 0x10001D468, symSize: 0x44 }
  - { offsetInCU: 0x526DC, offset: 0x526DC, size: 0x8, addend: 0x0, symName: __ZNSt3__16vectorIfNS_9allocatorIfEEE19__copy_assign_allocB8ne180100ERKS3_, symObjAddr: 0x1C098, symBinAddr: 0x10001D4D4, symSize: 0x2C }
  - { offsetInCU: 0x52711, offset: 0x52711, size: 0x8, addend: 0x0, symName: __ZNSt3__16vectorIfNS_9allocatorIfEEE6assignIPfLi0EEEvT_S6_, symObjAddr: 0x1C0C4, symBinAddr: 0x10001D500, symSize: 0x5C }
  - { offsetInCU: 0x52766, offset: 0x52766, size: 0x8, addend: 0x0, symName: __ZNSt3__16vectorIfNS_9allocatorIfEEE19__copy_assign_allocB8ne180100ERKS3_NS_17integral_constantIbLb0EEE, symObjAddr: 0x1C120, symBinAddr: 0x10001D55C, symSize: 0x14 }
  - { offsetInCU: 0x527A4, offset: 0x527A4, size: 0x8, addend: 0x0, symName: __ZNSt3__16vectorIfNS_9allocatorIfEEE18__assign_with_sizeB8ne180100IPfS5_EEvT_T0_l, symObjAddr: 0x1C134, symBinAddr: 0x10001D570, symSize: 0x164 }
  - { offsetInCU: 0x52854, offset: 0x52854, size: 0x8, addend: 0x0, symName: __ZNSt3__16vectorIfNS_9allocatorIfEEE17__destruct_at_endB8ne180100EPf, symObjAddr: 0x1C2F8, symBinAddr: 0x10001D734, symSize: 0x4C }
  - { offsetInCU: 0x52898, offset: 0x52898, size: 0x8, addend: 0x0, symName: __ZNSt3__16vectorIfNS_9allocatorIfEEE13__vdeallocateEv, symObjAddr: 0x1C344, symBinAddr: 0x10001D780, symSize: 0x94 }
  - { offsetInCU: 0x528C0, offset: 0x528C0, size: 0x8, addend: 0x0, symName: __ZNKSt3__16vectorIfNS_9allocatorIfEEE11__recommendB8ne180100Em, symObjAddr: 0x1C3D8, symBinAddr: 0x10001D814, symSize: 0xB4 }
  - { offsetInCU: 0x52915, offset: 0x52915, size: 0x8, addend: 0x0, symName: __ZNKSt3__16vectorIfNS_9allocatorIfEEE17__annotate_shrinkB8ne180100Em, symObjAddr: 0x1C4EC, symBinAddr: 0x10001D928, symSize: 0x14 }
  - { offsetInCU: 0x5294A, offset: 0x5294A, size: 0x8, addend: 0x0, symName: __ZNSt3__16vectorINS_12basic_stringIcNS_11char_traitsIcEENS_9allocatorIcEEEENS4_IS6_EEE19__copy_assign_allocB8ne180100ERKS8_, symObjAddr: 0x1C528, symBinAddr: 0x10001D964, symSize: 0x2C }
  - { offsetInCU: 0x5297F, offset: 0x5297F, size: 0x8, addend: 0x0, symName: __ZNSt3__16vectorINS_12basic_stringIcNS_11char_traitsIcEENS_9allocatorIcEEEENS4_IS6_EEE6assignIPS6_Li0EEEvT_SB_, symObjAddr: 0x1C554, symBinAddr: 0x10001D990, symSize: 0x5C }
  - { offsetInCU: 0x529D4, offset: 0x529D4, size: 0x8, addend: 0x0, symName: __ZNSt3__16vectorINS_12basic_stringIcNS_11char_traitsIcEENS_9allocatorIcEEEENS4_IS6_EEE19__copy_assign_allocB8ne180100ERKS8_NS_17integral_constantIbLb0EEE, symObjAddr: 0x1C5B0, symBinAddr: 0x10001D9EC, symSize: 0x14 }
  - { offsetInCU: 0x52A12, offset: 0x52A12, size: 0x8, addend: 0x0, symName: __ZNSt3__16vectorINS_12basic_stringIcNS_11char_traitsIcEENS_9allocatorIcEEEENS4_IS6_EEE18__assign_with_sizeB8ne180100IPS6_SA_EEvT_T0_l, symObjAddr: 0x1C5C4, symBinAddr: 0x10001DA00, symSize: 0x164 }
  - { offsetInCU: 0x52AC2, offset: 0x52AC2, size: 0x8, addend: 0x0, symName: __ZNSt3__16vectorINS_12basic_stringIcNS_11char_traitsIcEENS_9allocatorIcEEEENS4_IS6_EEE17__destruct_at_endB8ne180100EPS6_, symObjAddr: 0x1C80C, symBinAddr: 0x10001DC48, symSize: 0x4C }
  - { offsetInCU: 0x52B06, offset: 0x52B06, size: 0x8, addend: 0x0, symName: __ZNSt3__16vectorINS_12basic_stringIcNS_11char_traitsIcEENS_9allocatorIcEEEENS4_IS6_EEE13__vdeallocateEv, symObjAddr: 0x1C858, symBinAddr: 0x10001DC94, symSize: 0x94 }
  - { offsetInCU: 0x52B2E, offset: 0x52B2E, size: 0x8, addend: 0x0, symName: __ZNKSt3__16vectorINS_12basic_stringIcNS_11char_traitsIcEENS_9allocatorIcEEEENS4_IS6_EEE11__recommendB8ne180100Em, symObjAddr: 0x1C8EC, symBinAddr: 0x10001DD28, symSize: 0xB4 }
  - { offsetInCU: 0x52B83, offset: 0x52B83, size: 0x8, addend: 0x0, symName: __ZNKSt3__111__copy_loopINS_17_ClassicAlgPolicyEEclB8ne180100IPNS_12basic_stringIcNS_11char_traitsIcEENS_9allocatorIcEEEESA_SA_EENS_4pairIT_T1_EESC_T0_SD_, symObjAddr: 0x1CB00, symBinAddr: 0x10001DF3C, symSize: 0x88 }
  - { offsetInCU: 0x52BEE, offset: 0x52BEE, size: 0x8, addend: 0x0, symName: __ZNKSt3__16vectorINS_12basic_stringIcNS_11char_traitsIcEENS_9allocatorIcEEEENS4_IS6_EEE17__annotate_shrinkB8ne180100Em, symObjAddr: 0x1CBB4, symBinAddr: 0x10001DFF0, symSize: 0x14 }
  - { offsetInCU: 0x52C23, offset: 0x52C23, size: 0x8, addend: 0x0, symName: __ZNSt3__16vectorIN7tinyobj5tag_tENS_9allocatorIS2_EEE22__base_destruct_at_endB8ne180100EPS2_, symObjAddr: 0x1CBF0, symBinAddr: 0x10001E02C, symSize: 0x8C }
  - { offsetInCU: 0x52C67, offset: 0x52C67, size: 0x8, addend: 0x0, symName: __ZNKSt3__16vectorIN7tinyobj5tag_tENS_9allocatorIS2_EEE17__annotate_shrinkB8ne180100Em, symObjAddr: 0x1CC7C, symBinAddr: 0x10001E0B8, symSize: 0x14 }
  - { offsetInCU: 0x52C9C, offset: 0x52C9C, size: 0x8, addend: 0x0, symName: __ZNSt3__16vectorIN7tinyobj5tag_tENS_9allocatorIS2_EEE5clearB8ne180100Ev, symObjAddr: 0x1CC90, symBinAddr: 0x10001E0CC, symSize: 0x44 }
  - { offsetInCU: 0x52CD1, offset: 0x52CD1, size: 0x8, addend: 0x0, symName: __ZNKSt3__16vectorIN7tinyobj5tag_tENS_9allocatorIS2_EEE17__annotate_deleteB8ne180100Ev, symObjAddr: 0x1CCD4, symBinAddr: 0x10001E110, symSize: 0x10 }
  - { offsetInCU: 0x52CF7, offset: 0x52CF7, size: 0x8, addend: 0x0, symName: __ZNSt3__116allocator_traitsINS_9allocatorIN7tinyobj5tag_tEEEE10deallocateB8ne180100ERS4_PS3_m, symObjAddr: 0x1CCE4, symBinAddr: 0x10001E120, symSize: 0x34 }
  - { offsetInCU: 0x52D39, offset: 0x52D39, size: 0x8, addend: 0x0, symName: __ZNSt3__16vectorIN7tinyobj5tag_tENS_9allocatorIS2_EEE9__end_capB8ne180100Ev, symObjAddr: 0x1CD18, symBinAddr: 0x10001E154, symSize: 0x28 }
  - { offsetInCU: 0x52D5F, offset: 0x52D5F, size: 0x8, addend: 0x0, symName: __ZNSt3__16vectorIN7tinyobj5tag_tENS_9allocatorIS2_EEE7__clearB8ne180100Ev, symObjAddr: 0x1CD40, symBinAddr: 0x10001E17C, symSize: 0x28 }
  - { offsetInCU: 0x52D85, offset: 0x52D85, size: 0x8, addend: 0x0, symName: __ZNSt3__19allocatorIN7tinyobj5tag_tEE10deallocateB8ne180100EPS2_m, symObjAddr: 0x1CD68, symBinAddr: 0x10001E1A4, symSize: 0x44 }
  - { offsetInCU: 0x52DC7, offset: 0x52DC7, size: 0x8, addend: 0x0, symName: __ZNSt3__117__compressed_pairIPN7tinyobj5tag_tENS_9allocatorIS2_EEE5firstB8ne180100Ev, symObjAddr: 0x1CDAC, symBinAddr: 0x10001E1E8, symSize: 0x24 }
  - { offsetInCU: 0x52DED, offset: 0x52DED, size: 0x8, addend: 0x0, symName: __ZNSt3__122__compressed_pair_elemIPN7tinyobj5tag_tELi0ELb0EE5__getB8ne180100Ev, symObjAddr: 0x1CDD0, symBinAddr: 0x10001E20C, symSize: 0x14 }
  - { offsetInCU: 0x52E13, offset: 0x52E13, size: 0x8, addend: 0x0, symName: __ZNKSt3__16vectorIN7tinyobj5tag_tENS_9allocatorIS2_EEE8max_sizeEv, symObjAddr: 0x1CDE4, symBinAddr: 0x10001E220, symSize: 0x60 }
  - { offsetInCU: 0x52E3B, offset: 0x52E3B, size: 0x8, addend: 0x0, symName: __ZNKSt3__16vectorIN7tinyobj5tag_tENS_9allocatorIS2_EEE20__throw_length_errorB8ne180100Ev, symObjAddr: 0x1CE44, symBinAddr: 0x10001E280, symSize: 0x1C }
  - { offsetInCU: 0x52E61, offset: 0x52E61, size: 0x8, addend: 0x0, symName: __ZNKSt3__16vectorIN7tinyobj5tag_tENS_9allocatorIS2_EEE14__annotate_newB8ne180100Em, symObjAddr: 0x1CEA0, symBinAddr: 0x10001E2DC, symSize: 0x14 }
  - { offsetInCU: 0x52EA1, offset: 0x52EA1, size: 0x8, addend: 0x0, symName: __ZNSt3__116allocator_traitsINS_9allocatorIN7tinyobj5tag_tEEEE8max_sizeB8ne180100IS4_vEEmRKS4_, symObjAddr: 0x1CEB4, symBinAddr: 0x10001E2F0, symSize: 0x24 }
  - { offsetInCU: 0x52ECF, offset: 0x52ECF, size: 0x8, addend: 0x0, symName: __ZNKSt3__16vectorIN7tinyobj5tag_tENS_9allocatorIS2_EEE7__allocB8ne180100Ev, symObjAddr: 0x1CED8, symBinAddr: 0x10001E314, symSize: 0x28 }
  - { offsetInCU: 0x52EF5, offset: 0x52EF5, size: 0x8, addend: 0x0, symName: __ZNKSt3__19allocatorIN7tinyobj5tag_tEE8max_sizeB8ne180100Ev, symObjAddr: 0x1CF00, symBinAddr: 0x10001E33C, symSize: 0x18 }
  - { offsetInCU: 0x52F1B, offset: 0x52F1B, size: 0x8, addend: 0x0, symName: __ZNKSt3__117__compressed_pairIPN7tinyobj5tag_tENS_9allocatorIS2_EEE6secondB8ne180100Ev, symObjAddr: 0x1CF18, symBinAddr: 0x10001E354, symSize: 0x24 }
  - { offsetInCU: 0x52F41, offset: 0x52F41, size: 0x8, addend: 0x0, symName: __ZNKSt3__122__compressed_pair_elemINS_9allocatorIN7tinyobj5tag_tEEELi1ELb1EE5__getB8ne180100Ev, symObjAddr: 0x1CF3C, symBinAddr: 0x10001E378, symSize: 0x14 }
  - { offsetInCU: 0x52F67, offset: 0x52F67, size: 0x8, addend: 0x0, symName: __ZNSt3__19allocatorIN7tinyobj5tag_tEE8allocateB8ne180100Em, symObjAddr: 0x1CF50, symBinAddr: 0x10001E38C, symSize: 0x5C }
  - { offsetInCU: 0x52F9B, offset: 0x52F9B, size: 0x8, addend: 0x0, symName: __ZNSt3__16vectorIiNS_9allocatorIiEEE22__construct_one_at_endB8ne180100IJiEEEvDpOT_, symObjAddr: 0x1CFD4, symBinAddr: 0x10001E410, symSize: 0x90 }
  - { offsetInCU: 0x52FEA, offset: 0x52FEA, size: 0x8, addend: 0x0, symName: __ZNSt3__16vectorIiNS_9allocatorIiEEE21__push_back_slow_pathIiEEPiOT_, symObjAddr: 0x1D064, symBinAddr: 0x10001E4A0, symSize: 0xE8 }
  - { offsetInCU: 0x53048, offset: 0x53048, size: 0x8, addend: 0x0, symName: __ZNSt3__116allocator_traitsINS_9allocatorIiEEE9constructB8ne180100IiJiEvEEvRS2_PT_DpOT0_, symObjAddr: 0x1D14C, symBinAddr: 0x10001E588, symSize: 0x34 }
  - { offsetInCU: 0x5309F, offset: 0x5309F, size: 0x8, addend: 0x0, symName: __ZNSt3__19allocatorIiE9constructB8ne180100IiJiEEEvPT_DpOT0_, symObjAddr: 0x1D180, symBinAddr: 0x10001E5BC, symSize: 0x28 }
  - { offsetInCU: 0x530F5, offset: 0x530F5, size: 0x8, addend: 0x0, symName: __ZNKSt3__112basic_stringIcNS_11char_traitsIcEENS_9allocatorIcEEEixB8ne180100Em, symObjAddr: 0x1D1A8, symBinAddr: 0x10001E5E4, symSize: 0x48 }
  - { offsetInCU: 0x53136, offset: 0x53136, size: 0x8, addend: 0x0, symName: __ZN7tinyobj6mesh_taSEOS0_, symObjAddr: 0x1D1F0, symBinAddr: 0x10001E62C, symSize: 0x84 }
  - { offsetInCU: 0x53174, offset: 0x53174, size: 0x8, addend: 0x0, symName: __ZN7tinyobj7lines_taSEOS0_, symObjAddr: 0x1D274, symBinAddr: 0x10001E6B0, symSize: 0x48 }
  - { offsetInCU: 0x531B2, offset: 0x531B2, size: 0x8, addend: 0x0, symName: __ZN7tinyobj8points_taSEOS0_, symObjAddr: 0x1D2BC, symBinAddr: 0x10001E6F8, symSize: 0x34 }
  - { offsetInCU: 0x531E4, offset: 0x531E4, size: 0x8, addend: 0x0, symName: __ZNSt3__16vectorIN7tinyobj7index_tENS_9allocatorIS2_EEEaSB8ne180100EOS5_, symObjAddr: 0x1D2F0, symBinAddr: 0x10001E72C, symSize: 0x34 }
  - { offsetInCU: 0x5321B, offset: 0x5321B, size: 0x8, addend: 0x0, symName: __ZNSt3__16vectorIjNS_9allocatorIjEEEaSB8ne180100EOS3_, symObjAddr: 0x1D324, symBinAddr: 0x10001E760, symSize: 0x34 }
  - { offsetInCU: 0x53252, offset: 0x53252, size: 0x8, addend: 0x0, symName: __ZNSt3__16vectorIiNS_9allocatorIiEEEaSB8ne180100EOS3_, symObjAddr: 0x1D358, symBinAddr: 0x10001E794, symSize: 0x34 }
  - { offsetInCU: 0x53289, offset: 0x53289, size: 0x8, addend: 0x0, symName: __ZNSt3__16vectorIN7tinyobj5tag_tENS_9allocatorIS2_EEEaSB8ne180100EOS5_, symObjAddr: 0x1D38C, symBinAddr: 0x10001E7C8, symSize: 0x34 }
  - { offsetInCU: 0x532C0, offset: 0x532C0, size: 0x8, addend: 0x0, symName: __ZNSt3__16vectorIN7tinyobj7index_tENS_9allocatorIS2_EEE13__move_assignERS5_NS_17integral_constantIbLb1EEE, symObjAddr: 0x1D3C0, symBinAddr: 0x10001E7FC, symSize: 0x94 }
  - { offsetInCU: 0x53303, offset: 0x53303, size: 0x8, addend: 0x0, symName: __ZNSt3__16vectorIN7tinyobj7index_tENS_9allocatorIS2_EEE13__vdeallocateEv, symObjAddr: 0x1D454, symBinAddr: 0x10001E890, symSize: 0x94 }
  - { offsetInCU: 0x5332B, offset: 0x5332B, size: 0x8, addend: 0x0, symName: __ZNSt3__16vectorIN7tinyobj7index_tENS_9allocatorIS2_EEE19__move_assign_allocB8ne180100ERS5_, symObjAddr: 0x1D4E8, symBinAddr: 0x10001E924, symSize: 0x2C }
  - { offsetInCU: 0x53360, offset: 0x53360, size: 0x8, addend: 0x0, symName: __ZNSt3__16vectorIN7tinyobj7index_tENS_9allocatorIS2_EEE9__end_capB8ne180100Ev, symObjAddr: 0x1D514, symBinAddr: 0x10001E950, symSize: 0x28 }
  - { offsetInCU: 0x53386, offset: 0x53386, size: 0x8, addend: 0x0, symName: __ZNKSt3__16vectorIN7tinyobj7index_tENS_9allocatorIS2_EEE17__annotate_deleteB8ne180100Ev, symObjAddr: 0x1D53C, symBinAddr: 0x10001E978, symSize: 0x10 }
  - { offsetInCU: 0x533AC, offset: 0x533AC, size: 0x8, addend: 0x0, symName: __ZNSt3__116allocator_traitsINS_9allocatorIN7tinyobj7index_tEEEE10deallocateB8ne180100ERS4_PS3_m, symObjAddr: 0x1D54C, symBinAddr: 0x10001E988, symSize: 0x34 }
  - { offsetInCU: 0x533EE, offset: 0x533EE, size: 0x8, addend: 0x0, symName: __ZNSt3__16vectorIN7tinyobj7index_tENS_9allocatorIS2_EEE7__allocB8ne180100Ev, symObjAddr: 0x1D580, symBinAddr: 0x10001E9BC, symSize: 0x28 }
  - { offsetInCU: 0x53414, offset: 0x53414, size: 0x8, addend: 0x0, symName: __ZNKSt3__16vectorIN7tinyobj7index_tENS_9allocatorIS2_EEE8capacityB8ne180100Ev, symObjAddr: 0x1D5A8, symBinAddr: 0x10001E9E4, symSize: 0x40 }
  - { offsetInCU: 0x5343A, offset: 0x5343A, size: 0x8, addend: 0x0, symName: __ZNSt3__19allocatorIN7tinyobj7index_tEE10deallocateB8ne180100EPS2_m, symObjAddr: 0x1D5E8, symBinAddr: 0x10001EA24, symSize: 0x44 }
  - { offsetInCU: 0x5347C, offset: 0x5347C, size: 0x8, addend: 0x0, symName: __ZNSt3__117__compressed_pairIPN7tinyobj7index_tENS_9allocatorIS2_EEE6secondB8ne180100Ev, symObjAddr: 0x1D62C, symBinAddr: 0x10001EA68, symSize: 0x24 }
  - { offsetInCU: 0x534A2, offset: 0x534A2, size: 0x8, addend: 0x0, symName: __ZNSt3__122__compressed_pair_elemINS_9allocatorIN7tinyobj7index_tEEELi1ELb1EE5__getB8ne180100Ev, symObjAddr: 0x1D650, symBinAddr: 0x10001EA8C, symSize: 0x14 }
  - { offsetInCU: 0x534C8, offset: 0x534C8, size: 0x8, addend: 0x0, symName: __ZNKSt3__16vectorIN7tinyobj7index_tENS_9allocatorIS2_EEE9__end_capB8ne180100Ev, symObjAddr: 0x1D664, symBinAddr: 0x10001EAA0, symSize: 0x28 }
  - { offsetInCU: 0x534EE, offset: 0x534EE, size: 0x8, addend: 0x0, symName: __ZNKSt3__117__compressed_pairIPN7tinyobj7index_tENS_9allocatorIS2_EEE5firstB8ne180100Ev, symObjAddr: 0x1D68C, symBinAddr: 0x10001EAC8, symSize: 0x24 }
  - { offsetInCU: 0x53514, offset: 0x53514, size: 0x8, addend: 0x0, symName: __ZNKSt3__122__compressed_pair_elemIPN7tinyobj7index_tELi0ELb0EE5__getB8ne180100Ev, symObjAddr: 0x1D6B0, symBinAddr: 0x10001EAEC, symSize: 0x14 }
  - { offsetInCU: 0x5353A, offset: 0x5353A, size: 0x8, addend: 0x0, symName: __ZNSt3__16vectorIN7tinyobj7index_tENS_9allocatorIS2_EEE19__move_assign_allocB8ne180100ERS5_NS_17integral_constantIbLb1EEE, symObjAddr: 0x1D6C4, symBinAddr: 0x10001EB00, symSize: 0x38 }
  - { offsetInCU: 0x5357B, offset: 0x5357B, size: 0x8, addend: 0x0, symName: __ZNSt3__117__compressed_pairIPN7tinyobj7index_tENS_9allocatorIS2_EEE5firstB8ne180100Ev, symObjAddr: 0x1D6FC, symBinAddr: 0x10001EB38, symSize: 0x24 }
  - { offsetInCU: 0x535A1, offset: 0x535A1, size: 0x8, addend: 0x0, symName: __ZNSt3__122__compressed_pair_elemIPN7tinyobj7index_tELi0ELb0EE5__getB8ne180100Ev, symObjAddr: 0x1D720, symBinAddr: 0x10001EB5C, symSize: 0x14 }
  - { offsetInCU: 0x535C7, offset: 0x535C7, size: 0x8, addend: 0x0, symName: __ZNSt3__16vectorIjNS_9allocatorIjEEE13__move_assignERS3_NS_17integral_constantIbLb1EEE, symObjAddr: 0x1D734, symBinAddr: 0x10001EB70, symSize: 0x94 }
  - { offsetInCU: 0x5360A, offset: 0x5360A, size: 0x8, addend: 0x0, symName: __ZNSt3__16vectorIjNS_9allocatorIjEEE13__vdeallocateEv, symObjAddr: 0x1D7C8, symBinAddr: 0x10001EC04, symSize: 0x94 }
  - { offsetInCU: 0x53632, offset: 0x53632, size: 0x8, addend: 0x0, symName: __ZNSt3__16vectorIjNS_9allocatorIjEEE19__move_assign_allocB8ne180100ERS3_, symObjAddr: 0x1D85C, symBinAddr: 0x10001EC98, symSize: 0x2C }
  - { offsetInCU: 0x53667, offset: 0x53667, size: 0x8, addend: 0x0, symName: __ZNSt3__16vectorIjNS_9allocatorIjEEE5clearB8ne180100Ev, symObjAddr: 0x1D888, symBinAddr: 0x10001ECC4, symSize: 0x44 }
  - { offsetInCU: 0x5369C, offset: 0x5369C, size: 0x8, addend: 0x0, symName: __ZNSt3__16vectorIjNS_9allocatorIjEEE7__clearB8ne180100Ev, symObjAddr: 0x1D8CC, symBinAddr: 0x10001ED08, symSize: 0x28 }
  - { offsetInCU: 0x536C2, offset: 0x536C2, size: 0x8, addend: 0x0, symName: __ZNKSt3__16vectorIjNS_9allocatorIjEEE17__annotate_shrinkB8ne180100Em, symObjAddr: 0x1D8F4, symBinAddr: 0x10001ED30, symSize: 0x14 }
  - { offsetInCU: 0x536F7, offset: 0x536F7, size: 0x8, addend: 0x0, symName: __ZNSt3__16vectorIjNS_9allocatorIjEEE22__base_destruct_at_endB8ne180100EPj, symObjAddr: 0x1D908, symBinAddr: 0x10001ED44, symSize: 0x8C }
  - { offsetInCU: 0x5373B, offset: 0x5373B, size: 0x8, addend: 0x0, symName: __ZNSt3__16vectorIjNS_9allocatorIjEEE19__move_assign_allocB8ne180100ERS3_NS_17integral_constantIbLb1EEE, symObjAddr: 0x1D994, symBinAddr: 0x10001EDD0, symSize: 0x38 }
  - { offsetInCU: 0x5377C, offset: 0x5377C, size: 0x8, addend: 0x0, symName: __ZNSt3__16vectorIiNS_9allocatorIiEEE13__move_assignERS3_NS_17integral_constantIbLb1EEE, symObjAddr: 0x1D9CC, symBinAddr: 0x10001EE08, symSize: 0x94 }
  - { offsetInCU: 0x537BF, offset: 0x537BF, size: 0x8, addend: 0x0, symName: __ZNSt3__16vectorIiNS_9allocatorIiEEE19__move_assign_allocB8ne180100ERS3_, symObjAddr: 0x1DA60, symBinAddr: 0x10001EE9C, symSize: 0x2C }
  - { offsetInCU: 0x537F4, offset: 0x537F4, size: 0x8, addend: 0x0, symName: __ZNSt3__16vectorIiNS_9allocatorIiEEE19__move_assign_allocB8ne180100ERS3_NS_17integral_constantIbLb1EEE, symObjAddr: 0x1DA8C, symBinAddr: 0x10001EEC8, symSize: 0x38 }
  - { offsetInCU: 0x53835, offset: 0x53835, size: 0x8, addend: 0x0, symName: __ZNSt3__16vectorIN7tinyobj5tag_tENS_9allocatorIS2_EEE13__move_assignERS5_NS_17integral_constantIbLb1EEE, symObjAddr: 0x1DAC4, symBinAddr: 0x10001EF00, symSize: 0x94 }
  - { offsetInCU: 0x53878, offset: 0x53878, size: 0x8, addend: 0x0, symName: __ZNSt3__16vectorIN7tinyobj5tag_tENS_9allocatorIS2_EEE19__move_assign_allocB8ne180100ERS5_, symObjAddr: 0x1DB58, symBinAddr: 0x10001EF94, symSize: 0x2C }
  - { offsetInCU: 0x538AD, offset: 0x538AD, size: 0x8, addend: 0x0, symName: __ZNSt3__16vectorIN7tinyobj5tag_tENS_9allocatorIS2_EEE19__move_assign_allocB8ne180100ERS5_NS_17integral_constantIbLb1EEE, symObjAddr: 0x1DB84, symBinAddr: 0x10001EFC0, symSize: 0x38 }
  - { offsetInCU: 0x538EE, offset: 0x538EE, size: 0x8, addend: 0x0, symName: __ZN7tinyobj7shape_tD2Ev, symObjAddr: 0x1DBBC, symBinAddr: 0x10001EFF8, symSize: 0x50 }
  - { offsetInCU: 0x5391B, offset: 0x5391B, size: 0x8, addend: 0x0, symName: __ZN7tinyobj8points_tD1Ev, symObjAddr: 0x1DC0C, symBinAddr: 0x10001F048, symSize: 0x2C }
  - { offsetInCU: 0x53948, offset: 0x53948, size: 0x8, addend: 0x0, symName: __ZN7tinyobj7lines_tD1Ev, symObjAddr: 0x1DC38, symBinAddr: 0x10001F074, symSize: 0x2C }
  - { offsetInCU: 0x53975, offset: 0x53975, size: 0x8, addend: 0x0, symName: __ZN7tinyobj6mesh_tD1Ev, symObjAddr: 0x1DC64, symBinAddr: 0x10001F0A0, symSize: 0x2C }
  - { offsetInCU: 0x539A2, offset: 0x539A2, size: 0x8, addend: 0x0, symName: __ZN7tinyobj8points_tD2Ev, symObjAddr: 0x1DC90, symBinAddr: 0x10001F0CC, symSize: 0x2C }
  - { offsetInCU: 0x539CF, offset: 0x539CF, size: 0x8, addend: 0x0, symName: __ZN7tinyobj7lines_tD2Ev, symObjAddr: 0x1DCBC, symBinAddr: 0x10001F0F8, symSize: 0x38 }
  - { offsetInCU: 0x539FC, offset: 0x539FC, size: 0x8, addend: 0x0, symName: __ZN7tinyobj6mesh_tD2Ev, symObjAddr: 0x1DCF4, symBinAddr: 0x10001F130, symSize: 0x5C }
  - { offsetInCU: 0x53A29, offset: 0x53A29, size: 0x8, addend: 0x0, symName: __ZNSt3__16vectorIN7tinyobj8__line_tENS_9allocatorIS2_EEE5clearB8ne180100Ev, symObjAddr: 0x1DD50, symBinAddr: 0x10001F18C, symSize: 0x44 }
  - { offsetInCU: 0x53A5E, offset: 0x53A5E, size: 0x8, addend: 0x0, symName: __ZNSt3__16vectorIN7tinyobj10__points_tENS_9allocatorIS2_EEE5clearB8ne180100Ev, symObjAddr: 0x1DD94, symBinAddr: 0x10001F1D0, symSize: 0x44 }
  - { offsetInCU: 0x53A93, offset: 0x53A93, size: 0x8, addend: 0x0, symName: __ZNSt3__16vectorIN7tinyobj8__line_tENS_9allocatorIS2_EEE7__clearB8ne180100Ev, symObjAddr: 0x1DDD8, symBinAddr: 0x10001F214, symSize: 0x28 }
  - { offsetInCU: 0x53AB9, offset: 0x53AB9, size: 0x8, addend: 0x0, symName: __ZNKSt3__16vectorIN7tinyobj8__line_tENS_9allocatorIS2_EEE17__annotate_shrinkB8ne180100Em, symObjAddr: 0x1DE00, symBinAddr: 0x10001F23C, symSize: 0x14 }
  - { offsetInCU: 0x53AEE, offset: 0x53AEE, size: 0x8, addend: 0x0, symName: __ZNSt3__16vectorIN7tinyobj8__line_tENS_9allocatorIS2_EEE22__base_destruct_at_endB8ne180100EPS2_, symObjAddr: 0x1DE14, symBinAddr: 0x10001F250, symSize: 0x8C }
  - { offsetInCU: 0x53B32, offset: 0x53B32, size: 0x8, addend: 0x0, symName: __ZNSt3__116allocator_traitsINS_9allocatorIN7tinyobj8__line_tEEEE7destroyB8ne180100IS3_vEEvRS4_PT_, symObjAddr: 0x1DEA0, symBinAddr: 0x10001F2DC, symSize: 0x2C }
  - { offsetInCU: 0x53B6F, offset: 0x53B6F, size: 0x8, addend: 0x0, symName: __ZNSt3__16vectorIN7tinyobj8__line_tENS_9allocatorIS2_EEE7__allocB8ne180100Ev, symObjAddr: 0x1DECC, symBinAddr: 0x10001F308, symSize: 0x28 }
  - { offsetInCU: 0x53B95, offset: 0x53B95, size: 0x8, addend: 0x0, symName: __ZNSt3__19allocatorIN7tinyobj8__line_tEE7destroyB8ne180100EPS2_, symObjAddr: 0x1DF08, symBinAddr: 0x10001F344, symSize: 0x28 }
  - { offsetInCU: 0x53BC9, offset: 0x53BC9, size: 0x8, addend: 0x0, symName: __ZNSt3__117__compressed_pairIPN7tinyobj8__line_tENS_9allocatorIS2_EEE6secondB8ne180100Ev, symObjAddr: 0x1DF30, symBinAddr: 0x10001F36C, symSize: 0x24 }
  - { offsetInCU: 0x53BEF, offset: 0x53BEF, size: 0x8, addend: 0x0, symName: __ZNSt3__122__compressed_pair_elemINS_9allocatorIN7tinyobj8__line_tEEELi1ELb1EE5__getB8ne180100Ev, symObjAddr: 0x1DF54, symBinAddr: 0x10001F390, symSize: 0x14 }
  - { offsetInCU: 0x53C15, offset: 0x53C15, size: 0x8, addend: 0x0, symName: __ZNSt3__16vectorIN7tinyobj10__points_tENS_9allocatorIS2_EEE7__clearB8ne180100Ev, symObjAddr: 0x1DF68, symBinAddr: 0x10001F3A4, symSize: 0x28 }
  - { offsetInCU: 0x53C3B, offset: 0x53C3B, size: 0x8, addend: 0x0, symName: __ZNKSt3__16vectorIN7tinyobj10__points_tENS_9allocatorIS2_EEE17__annotate_shrinkB8ne180100Em, symObjAddr: 0x1DF90, symBinAddr: 0x10001F3CC, symSize: 0x14 }
  - { offsetInCU: 0x53C70, offset: 0x53C70, size: 0x8, addend: 0x0, symName: __ZNSt3__16vectorIN7tinyobj10__points_tENS_9allocatorIS2_EEE22__base_destruct_at_endB8ne180100EPS2_, symObjAddr: 0x1DFA4, symBinAddr: 0x10001F3E0, symSize: 0x8C }
  - { offsetInCU: 0x53CB4, offset: 0x53CB4, size: 0x8, addend: 0x0, symName: __ZNSt3__116allocator_traitsINS_9allocatorIN7tinyobj10__points_tEEEE7destroyB8ne180100IS3_vEEvRS4_PT_, symObjAddr: 0x1E030, symBinAddr: 0x10001F46C, symSize: 0x2C }
  - { offsetInCU: 0x53CF1, offset: 0x53CF1, size: 0x8, addend: 0x0, symName: __ZNSt3__16vectorIN7tinyobj10__points_tENS_9allocatorIS2_EEE7__allocB8ne180100Ev, symObjAddr: 0x1E05C, symBinAddr: 0x10001F498, symSize: 0x28 }
  - { offsetInCU: 0x53D17, offset: 0x53D17, size: 0x8, addend: 0x0, symName: __ZNSt3__19allocatorIN7tinyobj10__points_tEE7destroyB8ne180100EPS2_, symObjAddr: 0x1E098, symBinAddr: 0x10001F4D4, symSize: 0x28 }
  - { offsetInCU: 0x53D4B, offset: 0x53D4B, size: 0x8, addend: 0x0, symName: __ZNSt3__117__compressed_pairIPN7tinyobj10__points_tENS_9allocatorIS2_EEE6secondB8ne180100Ev, symObjAddr: 0x1E0C0, symBinAddr: 0x10001F4FC, symSize: 0x24 }
  - { offsetInCU: 0x53D71, offset: 0x53D71, size: 0x8, addend: 0x0, symName: __ZNSt3__122__compressed_pair_elemINS_9allocatorIN7tinyobj10__points_tEEELi1ELb1EE5__getB8ne180100Ev, symObjAddr: 0x1E0E4, symBinAddr: 0x10001F520, symSize: 0x14 }
  - { offsetInCU: 0x53D97, offset: 0x53D97, size: 0x8, addend: 0x0, symName: __ZN7tinyobj5tag_tC2Ev, symObjAddr: 0x1E0F8, symBinAddr: 0x10001F534, symSize: 0x50 }
  - { offsetInCU: 0x53DC9, offset: 0x53DC9, size: 0x8, addend: 0x0, symName: __ZN7tinyobj9tag_sizesC1Ev, symObjAddr: 0x1E148, symBinAddr: 0x10001F584, symSize: 0x2C }
  - { offsetInCU: 0x53DF3, offset: 0x53DF3, size: 0x8, addend: 0x0, symName: __ZN7tinyobj9tag_sizesC2Ev, symObjAddr: 0x1E174, symBinAddr: 0x10001F5B0, symSize: 0x20 }
  - { offsetInCU: 0x53E1D, offset: 0x53E1D, size: 0x8, addend: 0x0, symName: __ZN7tinyobj5tag_tD2Ev, symObjAddr: 0x1E194, symBinAddr: 0x10001F5D0, symSize: 0x50 }
  - { offsetInCU: 0x53E4A, offset: 0x53E4A, size: 0x8, addend: 0x0, symName: __ZN7tinyobj9PrimGroupD2Ev, symObjAddr: 0x1E1E4, symBinAddr: 0x10001F620, symSize: 0x44 }
  - { offsetInCU: 0x53E77, offset: 0x53E77, size: 0x8, addend: 0x0, symName: __ZNSt3__16vectorIN7tinyobj10__points_tENS_9allocatorIS2_EEED1B8ne180100Ev, symObjAddr: 0x1E228, symBinAddr: 0x10001F664, symSize: 0x2C }
  - { offsetInCU: 0x53EA1, offset: 0x53EA1, size: 0x8, addend: 0x0, symName: __ZNSt3__16vectorIN7tinyobj8__line_tENS_9allocatorIS2_EEED1B8ne180100Ev, symObjAddr: 0x1E254, symBinAddr: 0x10001F690, symSize: 0x2C }
  - { offsetInCU: 0x53ECB, offset: 0x53ECB, size: 0x8, addend: 0x0, symName: __ZNSt3__16vectorIN7tinyobj6face_tENS_9allocatorIS2_EEED1B8ne180100Ev, symObjAddr: 0x1E280, symBinAddr: 0x10001F6BC, symSize: 0x2C }
  - { offsetInCU: 0x53EF5, offset: 0x53EF5, size: 0x8, addend: 0x0, symName: __ZNSt3__16vectorIN7tinyobj10__points_tENS_9allocatorIS2_EEED2B8ne180100Ev, symObjAddr: 0x1E2AC, symBinAddr: 0x10001F6E8, symSize: 0x44 }
  - { offsetInCU: 0x53F1F, offset: 0x53F1F, size: 0x8, addend: 0x0, symName: __ZNSt3__16vectorIN7tinyobj10__points_tENS_9allocatorIS2_EEE16__destroy_vectorC1B8ne180100ERS5_, symObjAddr: 0x1E2F0, symBinAddr: 0x10001F72C, symSize: 0x34 }
  - { offsetInCU: 0x53F58, offset: 0x53F58, size: 0x8, addend: 0x0, symName: __ZNSt3__16vectorIN7tinyobj10__points_tENS_9allocatorIS2_EEE16__destroy_vectorclB8ne180100Ev, symObjAddr: 0x1E324, symBinAddr: 0x10001F760, symSize: 0x90 }
  - { offsetInCU: 0x53F7E, offset: 0x53F7E, size: 0x8, addend: 0x0, symName: __ZNSt3__16vectorIN7tinyobj10__points_tENS_9allocatorIS2_EEE16__destroy_vectorC2B8ne180100ERS5_, symObjAddr: 0x1E3B4, symBinAddr: 0x10001F7F0, symSize: 0x20 }
  - { offsetInCU: 0x53FB7, offset: 0x53FB7, size: 0x8, addend: 0x0, symName: __ZNKSt3__16vectorIN7tinyobj10__points_tENS_9allocatorIS2_EEE17__annotate_deleteB8ne180100Ev, symObjAddr: 0x1E3D4, symBinAddr: 0x10001F810, symSize: 0x10 }
  - { offsetInCU: 0x53FDD, offset: 0x53FDD, size: 0x8, addend: 0x0, symName: __ZNSt3__116allocator_traitsINS_9allocatorIN7tinyobj10__points_tEEEE10deallocateB8ne180100ERS4_PS3_m, symObjAddr: 0x1E3E4, symBinAddr: 0x10001F820, symSize: 0x34 }
  - { offsetInCU: 0x5401F, offset: 0x5401F, size: 0x8, addend: 0x0, symName: __ZNKSt3__16vectorIN7tinyobj10__points_tENS_9allocatorIS2_EEE8capacityB8ne180100Ev, symObjAddr: 0x1E418, symBinAddr: 0x10001F854, symSize: 0x40 }
  - { offsetInCU: 0x54045, offset: 0x54045, size: 0x8, addend: 0x0, symName: __ZNSt3__19allocatorIN7tinyobj10__points_tEE10deallocateB8ne180100EPS2_m, symObjAddr: 0x1E458, symBinAddr: 0x10001F894, symSize: 0x44 }
  - { offsetInCU: 0x54087, offset: 0x54087, size: 0x8, addend: 0x0, symName: __ZNKSt3__16vectorIN7tinyobj10__points_tENS_9allocatorIS2_EEE9__end_capB8ne180100Ev, symObjAddr: 0x1E49C, symBinAddr: 0x10001F8D8, symSize: 0x28 }
  - { offsetInCU: 0x540AD, offset: 0x540AD, size: 0x8, addend: 0x0, symName: __ZNKSt3__117__compressed_pairIPN7tinyobj10__points_tENS_9allocatorIS2_EEE5firstB8ne180100Ev, symObjAddr: 0x1E4C4, symBinAddr: 0x10001F900, symSize: 0x24 }
  - { offsetInCU: 0x540D3, offset: 0x540D3, size: 0x8, addend: 0x0, symName: __ZNKSt3__122__compressed_pair_elemIPN7tinyobj10__points_tELi0ELb0EE5__getB8ne180100Ev, symObjAddr: 0x1E4E8, symBinAddr: 0x10001F924, symSize: 0x14 }
  - { offsetInCU: 0x540F9, offset: 0x540F9, size: 0x8, addend: 0x0, symName: __ZNSt3__16vectorIN7tinyobj8__line_tENS_9allocatorIS2_EEED2B8ne180100Ev, symObjAddr: 0x1E4FC, symBinAddr: 0x10001F938, symSize: 0x44 }
  - { offsetInCU: 0x54123, offset: 0x54123, size: 0x8, addend: 0x0, symName: __ZNSt3__16vectorIN7tinyobj8__line_tENS_9allocatorIS2_EEE16__destroy_vectorC1B8ne180100ERS5_, symObjAddr: 0x1E540, symBinAddr: 0x10001F97C, symSize: 0x34 }
  - { offsetInCU: 0x5415C, offset: 0x5415C, size: 0x8, addend: 0x0, symName: __ZNSt3__16vectorIN7tinyobj8__line_tENS_9allocatorIS2_EEE16__destroy_vectorclB8ne180100Ev, symObjAddr: 0x1E574, symBinAddr: 0x10001F9B0, symSize: 0x90 }
  - { offsetInCU: 0x54182, offset: 0x54182, size: 0x8, addend: 0x0, symName: __ZNSt3__16vectorIN7tinyobj8__line_tENS_9allocatorIS2_EEE16__destroy_vectorC2B8ne180100ERS5_, symObjAddr: 0x1E604, symBinAddr: 0x10001FA40, symSize: 0x20 }
  - { offsetInCU: 0x541BB, offset: 0x541BB, size: 0x8, addend: 0x0, symName: __ZNKSt3__16vectorIN7tinyobj8__line_tENS_9allocatorIS2_EEE17__annotate_deleteB8ne180100Ev, symObjAddr: 0x1E624, symBinAddr: 0x10001FA60, symSize: 0x10 }
  - { offsetInCU: 0x541E1, offset: 0x541E1, size: 0x8, addend: 0x0, symName: __ZNSt3__116allocator_traitsINS_9allocatorIN7tinyobj8__line_tEEEE10deallocateB8ne180100ERS4_PS3_m, symObjAddr: 0x1E634, symBinAddr: 0x10001FA70, symSize: 0x34 }
  - { offsetInCU: 0x54223, offset: 0x54223, size: 0x8, addend: 0x0, symName: __ZNKSt3__16vectorIN7tinyobj8__line_tENS_9allocatorIS2_EEE8capacityB8ne180100Ev, symObjAddr: 0x1E668, symBinAddr: 0x10001FAA4, symSize: 0x40 }
  - { offsetInCU: 0x54249, offset: 0x54249, size: 0x8, addend: 0x0, symName: __ZNSt3__19allocatorIN7tinyobj8__line_tEE10deallocateB8ne180100EPS2_m, symObjAddr: 0x1E6A8, symBinAddr: 0x10001FAE4, symSize: 0x44 }
  - { offsetInCU: 0x5428B, offset: 0x5428B, size: 0x8, addend: 0x0, symName: __ZNKSt3__16vectorIN7tinyobj8__line_tENS_9allocatorIS2_EEE9__end_capB8ne180100Ev, symObjAddr: 0x1E6EC, symBinAddr: 0x10001FB28, symSize: 0x28 }
  - { offsetInCU: 0x542B1, offset: 0x542B1, size: 0x8, addend: 0x0, symName: __ZNKSt3__117__compressed_pairIPN7tinyobj8__line_tENS_9allocatorIS2_EEE5firstB8ne180100Ev, symObjAddr: 0x1E714, symBinAddr: 0x10001FB50, symSize: 0x24 }
  - { offsetInCU: 0x542D7, offset: 0x542D7, size: 0x8, addend: 0x0, symName: __ZNKSt3__122__compressed_pair_elemIPN7tinyobj8__line_tELi0ELb0EE5__getB8ne180100Ev, symObjAddr: 0x1E738, symBinAddr: 0x10001FB74, symSize: 0x14 }
  - { offsetInCU: 0x542FD, offset: 0x542FD, size: 0x8, addend: 0x0, symName: __ZNSt3__16vectorIN7tinyobj6face_tENS_9allocatorIS2_EEED2B8ne180100Ev, symObjAddr: 0x1E74C, symBinAddr: 0x10001FB88, symSize: 0x44 }
  - { offsetInCU: 0x54327, offset: 0x54327, size: 0x8, addend: 0x0, symName: __ZNSt3__16vectorIN7tinyobj6face_tENS_9allocatorIS2_EEE16__destroy_vectorC1B8ne180100ERS5_, symObjAddr: 0x1E790, symBinAddr: 0x10001FBCC, symSize: 0x34 }
  - { offsetInCU: 0x54360, offset: 0x54360, size: 0x8, addend: 0x0, symName: __ZNSt3__16vectorIN7tinyobj6face_tENS_9allocatorIS2_EEE16__destroy_vectorclB8ne180100Ev, symObjAddr: 0x1E7C4, symBinAddr: 0x10001FC00, symSize: 0x90 }
  - { offsetInCU: 0x54386, offset: 0x54386, size: 0x8, addend: 0x0, symName: __ZNSt3__16vectorIN7tinyobj6face_tENS_9allocatorIS2_EEE16__destroy_vectorC2B8ne180100ERS5_, symObjAddr: 0x1E854, symBinAddr: 0x10001FC90, symSize: 0x20 }
  - { offsetInCU: 0x543BF, offset: 0x543BF, size: 0x8, addend: 0x0, symName: __ZNSt3__16vectorIN7tinyobj6face_tENS_9allocatorIS2_EEE7__clearB8ne180100Ev, symObjAddr: 0x1E874, symBinAddr: 0x10001FCB0, symSize: 0x28 }
  - { offsetInCU: 0x543E5, offset: 0x543E5, size: 0x8, addend: 0x0, symName: __ZNKSt3__16vectorIN7tinyobj6face_tENS_9allocatorIS2_EEE17__annotate_deleteB8ne180100Ev, symObjAddr: 0x1E89C, symBinAddr: 0x10001FCD8, symSize: 0x10 }
  - { offsetInCU: 0x5440B, offset: 0x5440B, size: 0x8, addend: 0x0, symName: __ZNSt3__116allocator_traitsINS_9allocatorIN7tinyobj6face_tEEEE10deallocateB8ne180100ERS4_PS3_m, symObjAddr: 0x1E8AC, symBinAddr: 0x10001FCE8, symSize: 0x34 }
  - { offsetInCU: 0x5444D, offset: 0x5444D, size: 0x8, addend: 0x0, symName: __ZNSt3__16vectorIN7tinyobj6face_tENS_9allocatorIS2_EEE7__allocB8ne180100Ev, symObjAddr: 0x1E8E0, symBinAddr: 0x10001FD1C, symSize: 0x28 }
  - { offsetInCU: 0x54473, offset: 0x54473, size: 0x8, addend: 0x0, symName: __ZNKSt3__16vectorIN7tinyobj6face_tENS_9allocatorIS2_EEE8capacityB8ne180100Ev, symObjAddr: 0x1E908, symBinAddr: 0x10001FD44, symSize: 0x40 }
  - { offsetInCU: 0x54499, offset: 0x54499, size: 0x8, addend: 0x0, symName: __ZNSt3__16vectorIN7tinyobj6face_tENS_9allocatorIS2_EEE22__base_destruct_at_endB8ne180100EPS2_, symObjAddr: 0x1E948, symBinAddr: 0x10001FD84, symSize: 0x8C }
  - { offsetInCU: 0x544DD, offset: 0x544DD, size: 0x8, addend: 0x0, symName: __ZNSt3__116allocator_traitsINS_9allocatorIN7tinyobj6face_tEEEE7destroyB8ne180100IS3_vEEvRS4_PT_, symObjAddr: 0x1E9D4, symBinAddr: 0x10001FE10, symSize: 0x2C }
  - { offsetInCU: 0x5451A, offset: 0x5451A, size: 0x8, addend: 0x0, symName: __ZNSt3__19allocatorIN7tinyobj6face_tEE7destroyB8ne180100EPS2_, symObjAddr: 0x1EA14, symBinAddr: 0x10001FE50, symSize: 0x28 }
  - { offsetInCU: 0x5454E, offset: 0x5454E, size: 0x8, addend: 0x0, symName: __ZNSt3__19allocatorIN7tinyobj6face_tEE10deallocateB8ne180100EPS2_m, symObjAddr: 0x1EA3C, symBinAddr: 0x10001FE78, symSize: 0x40 }
  - { offsetInCU: 0x54590, offset: 0x54590, size: 0x8, addend: 0x0, symName: __ZNSt3__117__compressed_pairIPN7tinyobj6face_tENS_9allocatorIS2_EEE6secondB8ne180100Ev, symObjAddr: 0x1EA7C, symBinAddr: 0x10001FEB8, symSize: 0x24 }
  - { offsetInCU: 0x545B6, offset: 0x545B6, size: 0x8, addend: 0x0, symName: __ZNSt3__122__compressed_pair_elemINS_9allocatorIN7tinyobj6face_tEEELi1ELb1EE5__getB8ne180100Ev, symObjAddr: 0x1EAA0, symBinAddr: 0x10001FEDC, symSize: 0x14 }
  - { offsetInCU: 0x545DC, offset: 0x545DC, size: 0x8, addend: 0x0, symName: __ZNKSt3__16vectorIN7tinyobj6face_tENS_9allocatorIS2_EEE9__end_capB8ne180100Ev, symObjAddr: 0x1EAB4, symBinAddr: 0x10001FEF0, symSize: 0x28 }
  - { offsetInCU: 0x54602, offset: 0x54602, size: 0x8, addend: 0x0, symName: __ZNKSt3__117__compressed_pairIPN7tinyobj6face_tENS_9allocatorIS2_EEE5firstB8ne180100Ev, symObjAddr: 0x1EADC, symBinAddr: 0x10001FF18, symSize: 0x24 }
  - { offsetInCU: 0x54628, offset: 0x54628, size: 0x8, addend: 0x0, symName: __ZNKSt3__122__compressed_pair_elemIPN7tinyobj6face_tELi0ELb0EE5__getB8ne180100Ev, symObjAddr: 0x1EB00, symBinAddr: 0x10001FF3C, symSize: 0x14 }
  - { offsetInCU: 0x5464E, offset: 0x5464E, size: 0x8, addend: 0x0, symName: __ZN7tinyobj20MaterialStreamReaderC2ERNSt3__113basic_istreamIcNS1_11char_traitsIcEEEE, symObjAddr: 0x1EB14, symBinAddr: 0x10001FF50, symSize: 0x50 }
  - { offsetInCU: 0x54687, offset: 0x54687, size: 0x8, addend: 0x0, symName: __ZN7tinyobj20MaterialStreamReaderD2Ev, symObjAddr: 0x1EB64, symBinAddr: 0x10001FFA0, symSize: 0x2C }
  - { offsetInCU: 0x546B1, offset: 0x546B1, size: 0x8, addend: 0x0, symName: __ZNSt3__115basic_stringbufIcNS_11char_traitsIcEENS_9allocatorIcEEED2Ev, symObjAddr: 0x1EB90, symBinAddr: 0x10001FFCC, symSize: 0x48 }
  - { offsetInCU: 0x546DE, offset: 0x546DE, size: 0x8, addend: 0x0, symName: __ZN7tinyobj8attrib_tC2Ev, symObjAddr: 0x1EBD8, symBinAddr: 0x100020014, symSize: 0x74 }
  - { offsetInCU: 0x54708, offset: 0x54708, size: 0x8, addend: 0x0, symName: __ZN3glm3vecILi3EfLNS_9qualifierE0EEC2Efff, symObjAddr: 0x1EC4C, symBinAddr: 0x100020088, symSize: 0x38 }
  - { offsetInCU: 0x5475E, offset: 0x5475E, size: 0x8, addend: 0x0, symName: __ZN7tinyobj8attrib_tD2Ev, symObjAddr: 0x1EC84, symBinAddr: 0x1000200C0, symSize: 0x74 }
  - { offsetInCU: 0x5478B, offset: 0x5478B, size: 0x8, addend: 0x0, symName: __ZNSt3__112basic_stringIcNS_11char_traitsIcEENS_9allocatorIcEEEC2B8ne180100EPKcm, symObjAddr: 0x1ECF8, symBinAddr: 0x100020134, symSize: 0x4C }
  - { offsetInCU: 0x547D3, offset: 0x547D3, size: 0x8, addend: 0x0, symName: __ZNSt3__16vectorIfNS_9allocatorIfEEEC2B8ne180100Ev, symObjAddr: 0x1ED44, symBinAddr: 0x100020180, symSize: 0x4C }
  - { offsetInCU: 0x547FD, offset: 0x547FD, size: 0x8, addend: 0x0, symName: __ZNSt3__117__compressed_pairIPfNS_9allocatorIfEEEC1B8ne180100IDnNS_18__default_init_tagEEEOT_OT0_, symObjAddr: 0x1ED90, symBinAddr: 0x1000201CC, symSize: 0x3C }
  - { offsetInCU: 0x54855, offset: 0x54855, size: 0x8, addend: 0x0, symName: __ZNSt3__117__compressed_pairIPfNS_9allocatorIfEEEC2B8ne180100IDnNS_18__default_init_tagEEEOT_OT0_, symObjAddr: 0x1EDCC, symBinAddr: 0x100020208, symSize: 0x40 }
  - { offsetInCU: 0x548AD, offset: 0x548AD, size: 0x8, addend: 0x0, symName: __ZNSt3__122__compressed_pair_elemINS_9allocatorIfEELi1ELb1EEC2B8ne180100ENS_18__default_init_tagE, symObjAddr: 0x1EE0C, symBinAddr: 0x100020248, symSize: 0x2C }
  - { offsetInCU: 0x548E2, offset: 0x548E2, size: 0x8, addend: 0x0, symName: __ZNSt3__19allocatorIfEC2B8ne180100Ev, symObjAddr: 0x1EE38, symBinAddr: 0x100020274, symSize: 0x2C }
  - { offsetInCU: 0x5490C, offset: 0x5490C, size: 0x8, addend: 0x0, symName: __ZNSt3__116__non_trivial_ifILb1ENS_9allocatorIfEEEC2B8ne180100Ev, symObjAddr: 0x1EE64, symBinAddr: 0x1000202A0, symSize: 0x14 }
  - { offsetInCU: 0x54936, offset: 0x54936, size: 0x8, addend: 0x0, symName: __ZNSt3__16vectorIN7tinyobj13skin_weight_tENS_9allocatorIS2_EEEC2B8ne180100Ev, symObjAddr: 0x1EE78, symBinAddr: 0x1000202B4, symSize: 0x4C }
  - { offsetInCU: 0x54960, offset: 0x54960, size: 0x8, addend: 0x0, symName: __ZNSt3__117__compressed_pairIPN7tinyobj13skin_weight_tENS_9allocatorIS2_EEEC1B8ne180100IDnNS_18__default_init_tagEEEOT_OT0_, symObjAddr: 0x1EEC4, symBinAddr: 0x100020300, symSize: 0x3C }
  - { offsetInCU: 0x549B8, offset: 0x549B8, size: 0x8, addend: 0x0, symName: __ZNSt3__117__compressed_pairIPN7tinyobj13skin_weight_tENS_9allocatorIS2_EEEC2B8ne180100IDnNS_18__default_init_tagEEEOT_OT0_, symObjAddr: 0x1EF00, symBinAddr: 0x10002033C, symSize: 0x40 }
  - { offsetInCU: 0x54A10, offset: 0x54A10, size: 0x8, addend: 0x0, symName: __ZNSt3__122__compressed_pair_elemIPN7tinyobj13skin_weight_tELi0ELb0EEC2B8ne180100IDnvEEOT_, symObjAddr: 0x1EF40, symBinAddr: 0x10002037C, symSize: 0x1C }
  - { offsetInCU: 0x54A52, offset: 0x54A52, size: 0x8, addend: 0x0, symName: __ZNSt3__122__compressed_pair_elemINS_9allocatorIN7tinyobj13skin_weight_tEEELi1ELb1EEC2B8ne180100ENS_18__default_init_tagE, symObjAddr: 0x1EF5C, symBinAddr: 0x100020398, symSize: 0x2C }
  - { offsetInCU: 0x54A87, offset: 0x54A87, size: 0x8, addend: 0x0, symName: __ZNSt3__19allocatorIN7tinyobj13skin_weight_tEEC2B8ne180100Ev, symObjAddr: 0x1EF88, symBinAddr: 0x1000203C4, symSize: 0x2C }
  - { offsetInCU: 0x54AB1, offset: 0x54AB1, size: 0x8, addend: 0x0, symName: __ZNSt3__116__non_trivial_ifILb1ENS_9allocatorIN7tinyobj13skin_weight_tEEEEC2B8ne180100Ev, symObjAddr: 0x1EFB4, symBinAddr: 0x1000203F0, symSize: 0x14 }
  - { offsetInCU: 0x54ADB, offset: 0x54ADB, size: 0x8, addend: 0x0, symName: __ZNSt3__16vectorIfNS_9allocatorIfEEED2B8ne180100Ev, symObjAddr: 0x1EFC8, symBinAddr: 0x100020404, symSize: 0x40 }
  - { offsetInCU: 0x54B05, offset: 0x54B05, size: 0x8, addend: 0x0, symName: __ZNSt3__16vectorIN7tinyobj13skin_weight_tENS_9allocatorIS2_EEED2B8ne180100Ev, symObjAddr: 0x1F008, symBinAddr: 0x100020444, symSize: 0x44 }
  - { offsetInCU: 0x54B2F, offset: 0x54B2F, size: 0x8, addend: 0x0, symName: __ZNSt3__16vectorIN7tinyobj13skin_weight_tENS_9allocatorIS2_EEE16__destroy_vectorC1B8ne180100ERS5_, symObjAddr: 0x1F04C, symBinAddr: 0x100020488, symSize: 0x34 }
  - { offsetInCU: 0x54B68, offset: 0x54B68, size: 0x8, addend: 0x0, symName: __ZNSt3__16vectorIN7tinyobj13skin_weight_tENS_9allocatorIS2_EEE16__destroy_vectorclB8ne180100Ev, symObjAddr: 0x1F080, symBinAddr: 0x1000204BC, symSize: 0x90 }
  - { offsetInCU: 0x54B8E, offset: 0x54B8E, size: 0x8, addend: 0x0, symName: __ZNSt3__16vectorIN7tinyobj13skin_weight_tENS_9allocatorIS2_EEE16__destroy_vectorC2B8ne180100ERS5_, symObjAddr: 0x1F110, symBinAddr: 0x10002054C, symSize: 0x20 }
  - { offsetInCU: 0x54BC7, offset: 0x54BC7, size: 0x8, addend: 0x0, symName: __ZNSt3__16vectorIN7tinyobj13skin_weight_tENS_9allocatorIS2_EEE7__clearB8ne180100Ev, symObjAddr: 0x1F130, symBinAddr: 0x10002056C, symSize: 0x28 }
  - { offsetInCU: 0x54BED, offset: 0x54BED, size: 0x8, addend: 0x0, symName: __ZNKSt3__16vectorIN7tinyobj13skin_weight_tENS_9allocatorIS2_EEE17__annotate_deleteB8ne180100Ev, symObjAddr: 0x1F158, symBinAddr: 0x100020594, symSize: 0x10 }
  - { offsetInCU: 0x54C13, offset: 0x54C13, size: 0x8, addend: 0x0, symName: __ZNSt3__116allocator_traitsINS_9allocatorIN7tinyobj13skin_weight_tEEEE10deallocateB8ne180100ERS4_PS3_m, symObjAddr: 0x1F168, symBinAddr: 0x1000205A4, symSize: 0x34 }
  - { offsetInCU: 0x54C55, offset: 0x54C55, size: 0x8, addend: 0x0, symName: __ZNSt3__16vectorIN7tinyobj13skin_weight_tENS_9allocatorIS2_EEE7__allocB8ne180100Ev, symObjAddr: 0x1F19C, symBinAddr: 0x1000205D8, symSize: 0x28 }
  - { offsetInCU: 0x54C7B, offset: 0x54C7B, size: 0x8, addend: 0x0, symName: __ZNKSt3__16vectorIN7tinyobj13skin_weight_tENS_9allocatorIS2_EEE8capacityB8ne180100Ev, symObjAddr: 0x1F1C4, symBinAddr: 0x100020600, symSize: 0x40 }
  - { offsetInCU: 0x54CA1, offset: 0x54CA1, size: 0x8, addend: 0x0, symName: __ZNSt3__16vectorIN7tinyobj13skin_weight_tENS_9allocatorIS2_EEE22__base_destruct_at_endB8ne180100EPS2_, symObjAddr: 0x1F204, symBinAddr: 0x100020640, symSize: 0x8C }
  - { offsetInCU: 0x54CE5, offset: 0x54CE5, size: 0x8, addend: 0x0, symName: __ZNSt3__116allocator_traitsINS_9allocatorIN7tinyobj13skin_weight_tEEEE7destroyB8ne180100IS3_vEEvRS4_PT_, symObjAddr: 0x1F290, symBinAddr: 0x1000206CC, symSize: 0x2C }
  - { offsetInCU: 0x54D22, offset: 0x54D22, size: 0x8, addend: 0x0, symName: __ZNSt3__19allocatorIN7tinyobj13skin_weight_tEE7destroyB8ne180100EPS2_, symObjAddr: 0x1F2D0, symBinAddr: 0x10002070C, symSize: 0x28 }
  - { offsetInCU: 0x54D56, offset: 0x54D56, size: 0x8, addend: 0x0, symName: __ZNSt3__19allocatorIN7tinyobj13skin_weight_tEE10deallocateB8ne180100EPS2_m, symObjAddr: 0x1F2F8, symBinAddr: 0x100020734, symSize: 0x40 }
  - { offsetInCU: 0x54D98, offset: 0x54D98, size: 0x8, addend: 0x0, symName: __ZNSt3__117__compressed_pairIPN7tinyobj13skin_weight_tENS_9allocatorIS2_EEE6secondB8ne180100Ev, symObjAddr: 0x1F338, symBinAddr: 0x100020774, symSize: 0x24 }
  - { offsetInCU: 0x54DBE, offset: 0x54DBE, size: 0x8, addend: 0x0, symName: __ZNSt3__122__compressed_pair_elemINS_9allocatorIN7tinyobj13skin_weight_tEEELi1ELb1EE5__getB8ne180100Ev, symObjAddr: 0x1F35C, symBinAddr: 0x100020798, symSize: 0x14 }
  - { offsetInCU: 0x54DE4, offset: 0x54DE4, size: 0x8, addend: 0x0, symName: __ZNKSt3__16vectorIN7tinyobj13skin_weight_tENS_9allocatorIS2_EEE9__end_capB8ne180100Ev, symObjAddr: 0x1F370, symBinAddr: 0x1000207AC, symSize: 0x28 }
  - { offsetInCU: 0x54E0A, offset: 0x54E0A, size: 0x8, addend: 0x0, symName: __ZNKSt3__117__compressed_pairIPN7tinyobj13skin_weight_tENS_9allocatorIS2_EEE5firstB8ne180100Ev, symObjAddr: 0x1F398, symBinAddr: 0x1000207D4, symSize: 0x24 }
  - { offsetInCU: 0x54E30, offset: 0x54E30, size: 0x8, addend: 0x0, symName: __ZNKSt3__122__compressed_pair_elemIPN7tinyobj13skin_weight_tELi0ELb0EE5__getB8ne180100Ev, symObjAddr: 0x1F3BC, symBinAddr: 0x1000207F8, symSize: 0x14 }
  - { offsetInCU: 0x54E56, offset: 0x54E56, size: 0x8, addend: 0x0, symName: __ZNSt3__112basic_stringIcNS_11char_traitsIcEENS_9allocatorIcEEEC2B8ne180100ILi0EEEPKc, symObjAddr: 0x1F3D0, symBinAddr: 0x10002080C, symSize: 0x58 }
  - { offsetInCU: 0x54E95, offset: 0x54E95, size: 0x8, addend: 0x0, symName: __ZNSt3__111char_traitsIcE6lengthB8ne180100EPKc, symObjAddr: 0x1F428, symBinAddr: 0x100020864, symSize: 0x34 }
  - { offsetInCU: 0x54EB8, offset: 0x54EB8, size: 0x8, addend: 0x0, symName: __ZNSt3__112basic_stringIcNS_11char_traitsIcEENS_9allocatorIcEEEC2B8ne180100Ev, symObjAddr: 0x1F480, symBinAddr: 0x1000208BC, symSize: 0x48 }
  - { offsetInCU: 0x54EE8, offset: 0x54EE8, size: 0x8, addend: 0x0, symName: __ZNSt3__117__compressed_pairINS_12basic_stringIcNS_11char_traitsIcEENS_9allocatorIcEEE5__repES5_EC1B8ne180100INS_16__value_init_tagENS_18__default_init_tagEEEOT_OT0_, symObjAddr: 0x1F4C8, symBinAddr: 0x100020904, symSize: 0x3C }
  - { offsetInCU: 0x54F40, offset: 0x54F40, size: 0x8, addend: 0x0, symName: __ZNSt3__117__compressed_pairINS_12basic_stringIcNS_11char_traitsIcEENS_9allocatorIcEEE5__repES5_EC2B8ne180100INS_16__value_init_tagENS_18__default_init_tagEEEOT_OT0_, symObjAddr: 0x1F504, symBinAddr: 0x100020940, symSize: 0x3C }
  - { offsetInCU: 0x54F98, offset: 0x54F98, size: 0x8, addend: 0x0, symName: __ZNSt3__122__compressed_pair_elemINS_12basic_stringIcNS_11char_traitsIcEENS_9allocatorIcEEE5__repELi0ELb0EEC2B8ne180100ENS_16__value_init_tagE, symObjAddr: 0x1F540, symBinAddr: 0x10002097C, symSize: 0x20 }
  - { offsetInCU: 0x54FCD, offset: 0x54FCD, size: 0x8, addend: 0x0, symName: __ZNSt3__16vectorIN7tinyobj7shape_tENS_9allocatorIS2_EEEC2B8ne180100Ev, symObjAddr: 0x1F560, symBinAddr: 0x10002099C, symSize: 0x4C }
  - { offsetInCU: 0x54FF7, offset: 0x54FF7, size: 0x8, addend: 0x0, symName: __ZNSt3__117__compressed_pairIPN7tinyobj7shape_tENS_9allocatorIS2_EEEC1B8ne180100IDnNS_18__default_init_tagEEEOT_OT0_, symObjAddr: 0x1F5AC, symBinAddr: 0x1000209E8, symSize: 0x3C }
  - { offsetInCU: 0x5504F, offset: 0x5504F, size: 0x8, addend: 0x0, symName: __ZNSt3__117__compressed_pairIPN7tinyobj7shape_tENS_9allocatorIS2_EEEC2B8ne180100IDnNS_18__default_init_tagEEEOT_OT0_, symObjAddr: 0x1F5E8, symBinAddr: 0x100020A24, symSize: 0x40 }
  - { offsetInCU: 0x550A7, offset: 0x550A7, size: 0x8, addend: 0x0, symName: __ZNSt3__122__compressed_pair_elemIPN7tinyobj7shape_tELi0ELb0EEC2B8ne180100IDnvEEOT_, symObjAddr: 0x1F628, symBinAddr: 0x100020A64, symSize: 0x1C }
  - { offsetInCU: 0x550E9, offset: 0x550E9, size: 0x8, addend: 0x0, symName: __ZNSt3__122__compressed_pair_elemINS_9allocatorIN7tinyobj7shape_tEEELi1ELb1EEC2B8ne180100ENS_18__default_init_tagE, symObjAddr: 0x1F644, symBinAddr: 0x100020A80, symSize: 0x2C }
  - { offsetInCU: 0x5511E, offset: 0x5511E, size: 0x8, addend: 0x0, symName: __ZNSt3__19allocatorIN7tinyobj7shape_tEEC2B8ne180100Ev, symObjAddr: 0x1F670, symBinAddr: 0x100020AAC, symSize: 0x2C }
  - { offsetInCU: 0x55148, offset: 0x55148, size: 0x8, addend: 0x0, symName: __ZNSt3__116__non_trivial_ifILb1ENS_9allocatorIN7tinyobj7shape_tEEEEC2B8ne180100Ev, symObjAddr: 0x1F69C, symBinAddr: 0x100020AD8, symSize: 0x14 }
  - { offsetInCU: 0x55172, offset: 0x55172, size: 0x8, addend: 0x0, symName: __ZNSt3__16vectorIN7tinyobj10material_tENS_9allocatorIS2_EEEC2B8ne180100Ev, symObjAddr: 0x1F6B0, symBinAddr: 0x100020AEC, symSize: 0x4C }
  - { offsetInCU: 0x5519C, offset: 0x5519C, size: 0x8, addend: 0x0, symName: __ZNSt3__117__compressed_pairIPN7tinyobj10material_tENS_9allocatorIS2_EEEC1B8ne180100IDnNS_18__default_init_tagEEEOT_OT0_, symObjAddr: 0x1F6FC, symBinAddr: 0x100020B38, symSize: 0x3C }
  - { offsetInCU: 0x551F4, offset: 0x551F4, size: 0x8, addend: 0x0, symName: __ZNSt3__117__compressed_pairIPN7tinyobj10material_tENS_9allocatorIS2_EEEC2B8ne180100IDnNS_18__default_init_tagEEEOT_OT0_, symObjAddr: 0x1F738, symBinAddr: 0x100020B74, symSize: 0x40 }
  - { offsetInCU: 0x5524C, offset: 0x5524C, size: 0x8, addend: 0x0, symName: __ZNSt3__122__compressed_pair_elemIPN7tinyobj10material_tELi0ELb0EEC2B8ne180100IDnvEEOT_, symObjAddr: 0x1F778, symBinAddr: 0x100020BB4, symSize: 0x1C }
  - { offsetInCU: 0x5528E, offset: 0x5528E, size: 0x8, addend: 0x0, symName: __ZNSt3__122__compressed_pair_elemINS_9allocatorIN7tinyobj10material_tEEELi1ELb1EEC2B8ne180100ENS_18__default_init_tagE, symObjAddr: 0x1F794, symBinAddr: 0x100020BD0, symSize: 0x2C }
  - { offsetInCU: 0x552C3, offset: 0x552C3, size: 0x8, addend: 0x0, symName: __ZNSt3__19allocatorIN7tinyobj10material_tEEC2B8ne180100Ev, symObjAddr: 0x1F7C0, symBinAddr: 0x100020BFC, symSize: 0x2C }
  - { offsetInCU: 0x552ED, offset: 0x552ED, size: 0x8, addend: 0x0, symName: __ZNSt3__116__non_trivial_ifILb1ENS_9allocatorIN7tinyobj10material_tEEEEC2B8ne180100Ev, symObjAddr: 0x1F7EC, symBinAddr: 0x100020C28, symSize: 0x14 }
  - { offsetInCU: 0x55317, offset: 0x55317, size: 0x8, addend: 0x0, symName: __ZNSt3__16vectorIN7tinyobj7shape_tENS_9allocatorIS2_EEED2B8ne180100Ev, symObjAddr: 0x1F800, symBinAddr: 0x100020C3C, symSize: 0x44 }
  - { offsetInCU: 0x55341, offset: 0x55341, size: 0x8, addend: 0x0, symName: __ZNSt3__16vectorIN7tinyobj7shape_tENS_9allocatorIS2_EEE16__destroy_vectorC1B8ne180100ERS5_, symObjAddr: 0x1F844, symBinAddr: 0x100020C80, symSize: 0x34 }
  - { offsetInCU: 0x5537A, offset: 0x5537A, size: 0x8, addend: 0x0, symName: __ZNSt3__16vectorIN7tinyobj7shape_tENS_9allocatorIS2_EEE16__destroy_vectorclB8ne180100Ev, symObjAddr: 0x1F878, symBinAddr: 0x100020CB4, symSize: 0x90 }
  - { offsetInCU: 0x553A0, offset: 0x553A0, size: 0x8, addend: 0x0, symName: __ZNSt3__16vectorIN7tinyobj7shape_tENS_9allocatorIS2_EEE16__destroy_vectorC2B8ne180100ERS5_, symObjAddr: 0x1F908, symBinAddr: 0x100020D44, symSize: 0x20 }
  - { offsetInCU: 0x553D9, offset: 0x553D9, size: 0x8, addend: 0x0, symName: __ZNSt3__16vectorIN7tinyobj7shape_tENS_9allocatorIS2_EEE7__clearB8ne180100Ev, symObjAddr: 0x1F928, symBinAddr: 0x100020D64, symSize: 0x28 }
  - { offsetInCU: 0x553FF, offset: 0x553FF, size: 0x8, addend: 0x0, symName: __ZNKSt3__16vectorIN7tinyobj7shape_tENS_9allocatorIS2_EEE17__annotate_deleteB8ne180100Ev, symObjAddr: 0x1F950, symBinAddr: 0x100020D8C, symSize: 0x10 }
  - { offsetInCU: 0x55425, offset: 0x55425, size: 0x8, addend: 0x0, symName: __ZNSt3__116allocator_traitsINS_9allocatorIN7tinyobj7shape_tEEEE10deallocateB8ne180100ERS4_PS3_m, symObjAddr: 0x1F960, symBinAddr: 0x100020D9C, symSize: 0x34 }
  - { offsetInCU: 0x55467, offset: 0x55467, size: 0x8, addend: 0x0, symName: __ZNSt3__16vectorIN7tinyobj7shape_tENS_9allocatorIS2_EEE7__allocB8ne180100Ev, symObjAddr: 0x1F994, symBinAddr: 0x100020DD0, symSize: 0x28 }
  - { offsetInCU: 0x5548D, offset: 0x5548D, size: 0x8, addend: 0x0, symName: __ZNKSt3__16vectorIN7tinyobj7shape_tENS_9allocatorIS2_EEE8capacityB8ne180100Ev, symObjAddr: 0x1F9BC, symBinAddr: 0x100020DF8, symSize: 0x40 }
  - { offsetInCU: 0x554B3, offset: 0x554B3, size: 0x8, addend: 0x0, symName: __ZNSt3__16vectorIN7tinyobj7shape_tENS_9allocatorIS2_EEE22__base_destruct_at_endB8ne180100EPS2_, symObjAddr: 0x1F9FC, symBinAddr: 0x100020E38, symSize: 0x8C }
  - { offsetInCU: 0x554F7, offset: 0x554F7, size: 0x8, addend: 0x0, symName: __ZNSt3__116allocator_traitsINS_9allocatorIN7tinyobj7shape_tEEEE7destroyB8ne180100IS3_vEEvRS4_PT_, symObjAddr: 0x1FA88, symBinAddr: 0x100020EC4, symSize: 0x2C }
  - { offsetInCU: 0x55534, offset: 0x55534, size: 0x8, addend: 0x0, symName: __ZNSt3__19allocatorIN7tinyobj7shape_tEE7destroyB8ne180100EPS2_, symObjAddr: 0x1FAC8, symBinAddr: 0x100020F04, symSize: 0x28 }
  - { offsetInCU: 0x55568, offset: 0x55568, size: 0x8, addend: 0x0, symName: __ZNSt3__19allocatorIN7tinyobj7shape_tEE10deallocateB8ne180100EPS2_m, symObjAddr: 0x1FAF0, symBinAddr: 0x100020F2C, symSize: 0x44 }
  - { offsetInCU: 0x555AA, offset: 0x555AA, size: 0x8, addend: 0x0, symName: __ZNSt3__117__compressed_pairIPN7tinyobj7shape_tENS_9allocatorIS2_EEE6secondB8ne180100Ev, symObjAddr: 0x1FB34, symBinAddr: 0x100020F70, symSize: 0x24 }
  - { offsetInCU: 0x555D0, offset: 0x555D0, size: 0x8, addend: 0x0, symName: __ZNSt3__122__compressed_pair_elemINS_9allocatorIN7tinyobj7shape_tEEELi1ELb1EE5__getB8ne180100Ev, symObjAddr: 0x1FB58, symBinAddr: 0x100020F94, symSize: 0x14 }
  - { offsetInCU: 0x555F6, offset: 0x555F6, size: 0x8, addend: 0x0, symName: __ZNKSt3__16vectorIN7tinyobj7shape_tENS_9allocatorIS2_EEE9__end_capB8ne180100Ev, symObjAddr: 0x1FB6C, symBinAddr: 0x100020FA8, symSize: 0x28 }
  - { offsetInCU: 0x5561C, offset: 0x5561C, size: 0x8, addend: 0x0, symName: __ZNKSt3__117__compressed_pairIPN7tinyobj7shape_tENS_9allocatorIS2_EEE5firstB8ne180100Ev, symObjAddr: 0x1FB94, symBinAddr: 0x100020FD0, symSize: 0x24 }
  - { offsetInCU: 0x55642, offset: 0x55642, size: 0x8, addend: 0x0, symName: __ZNKSt3__122__compressed_pair_elemIPN7tinyobj7shape_tELi0ELb0EE5__getB8ne180100Ev, symObjAddr: 0x1FBB8, symBinAddr: 0x100020FF4, symSize: 0x14 }
  - { offsetInCU: 0x55668, offset: 0x55668, size: 0x8, addend: 0x0, symName: __ZNSt3__16vectorIN7tinyobj10material_tENS_9allocatorIS2_EEED2B8ne180100Ev, symObjAddr: 0x1FBCC, symBinAddr: 0x100021008, symSize: 0x44 }
  - { offsetInCU: 0x55692, offset: 0x55692, size: 0x8, addend: 0x0, symName: __ZNSt3__16vectorIN7tinyobj10material_tENS_9allocatorIS2_EEE16__destroy_vectorC1B8ne180100ERS5_, symObjAddr: 0x1FC10, symBinAddr: 0x10002104C, symSize: 0x34 }
  - { offsetInCU: 0x556CB, offset: 0x556CB, size: 0x8, addend: 0x0, symName: __ZNSt3__16vectorIN7tinyobj10material_tENS_9allocatorIS2_EEE16__destroy_vectorclB8ne180100Ev, symObjAddr: 0x1FC44, symBinAddr: 0x100021080, symSize: 0x90 }
  - { offsetInCU: 0x556F1, offset: 0x556F1, size: 0x8, addend: 0x0, symName: __ZNSt3__16vectorIN7tinyobj10material_tENS_9allocatorIS2_EEE16__destroy_vectorC2B8ne180100ERS5_, symObjAddr: 0x1FCD4, symBinAddr: 0x100021110, symSize: 0x20 }
  - { offsetInCU: 0x5572A, offset: 0x5572A, size: 0x8, addend: 0x0, symName: __ZNSt3__16vectorIN7tinyobj10material_tENS_9allocatorIS2_EEE7__clearB8ne180100Ev, symObjAddr: 0x1FCF4, symBinAddr: 0x100021130, symSize: 0x28 }
  - { offsetInCU: 0x55750, offset: 0x55750, size: 0x8, addend: 0x0, symName: __ZNKSt3__16vectorIN7tinyobj10material_tENS_9allocatorIS2_EEE17__annotate_deleteB8ne180100Ev, symObjAddr: 0x1FD1C, symBinAddr: 0x100021158, symSize: 0x10 }
  - { offsetInCU: 0x55776, offset: 0x55776, size: 0x8, addend: 0x0, symName: __ZNSt3__116allocator_traitsINS_9allocatorIN7tinyobj10material_tEEEE10deallocateB8ne180100ERS4_PS3_m, symObjAddr: 0x1FD2C, symBinAddr: 0x100021168, symSize: 0x34 }
  - { offsetInCU: 0x557B8, offset: 0x557B8, size: 0x8, addend: 0x0, symName: __ZNSt3__16vectorIN7tinyobj10material_tENS_9allocatorIS2_EEE7__allocB8ne180100Ev, symObjAddr: 0x1FD60, symBinAddr: 0x10002119C, symSize: 0x28 }
  - { offsetInCU: 0x557DE, offset: 0x557DE, size: 0x8, addend: 0x0, symName: __ZNKSt3__16vectorIN7tinyobj10material_tENS_9allocatorIS2_EEE8capacityB8ne180100Ev, symObjAddr: 0x1FD88, symBinAddr: 0x1000211C4, symSize: 0x40 }
  - { offsetInCU: 0x55804, offset: 0x55804, size: 0x8, addend: 0x0, symName: __ZNSt3__16vectorIN7tinyobj10material_tENS_9allocatorIS2_EEE22__base_destruct_at_endB8ne180100EPS2_, symObjAddr: 0x1FDC8, symBinAddr: 0x100021204, symSize: 0x8C }
  - { offsetInCU: 0x55848, offset: 0x55848, size: 0x8, addend: 0x0, symName: __ZNSt3__116allocator_traitsINS_9allocatorIN7tinyobj10material_tEEEE7destroyB8ne180100IS3_vEEvRS4_PT_, symObjAddr: 0x1FE54, symBinAddr: 0x100021290, symSize: 0x2C }
  - { offsetInCU: 0x55885, offset: 0x55885, size: 0x8, addend: 0x0, symName: __ZNSt3__19allocatorIN7tinyobj10material_tEE7destroyB8ne180100EPS2_, symObjAddr: 0x1FE94, symBinAddr: 0x1000212D0, symSize: 0x28 }
  - { offsetInCU: 0x558B9, offset: 0x558B9, size: 0x8, addend: 0x0, symName: __ZNSt3__19allocatorIN7tinyobj10material_tEE10deallocateB8ne180100EPS2_m, symObjAddr: 0x1FEBC, symBinAddr: 0x1000212F8, symSize: 0x44 }
  - { offsetInCU: 0x558FB, offset: 0x558FB, size: 0x8, addend: 0x0, symName: __ZNSt3__117__compressed_pairIPN7tinyobj10material_tENS_9allocatorIS2_EEE6secondB8ne180100Ev, symObjAddr: 0x1FF00, symBinAddr: 0x10002133C, symSize: 0x24 }
  - { offsetInCU: 0x55921, offset: 0x55921, size: 0x8, addend: 0x0, symName: __ZNSt3__122__compressed_pair_elemINS_9allocatorIN7tinyobj10material_tEEELi1ELb1EE5__getB8ne180100Ev, symObjAddr: 0x1FF24, symBinAddr: 0x100021360, symSize: 0x14 }
  - { offsetInCU: 0x55947, offset: 0x55947, size: 0x8, addend: 0x0, symName: __ZNKSt3__16vectorIN7tinyobj10material_tENS_9allocatorIS2_EEE9__end_capB8ne180100Ev, symObjAddr: 0x1FF38, symBinAddr: 0x100021374, symSize: 0x28 }
  - { offsetInCU: 0x5596D, offset: 0x5596D, size: 0x8, addend: 0x0, symName: __ZNKSt3__117__compressed_pairIPN7tinyobj10material_tENS_9allocatorIS2_EEE5firstB8ne180100Ev, symObjAddr: 0x1FF60, symBinAddr: 0x10002139C, symSize: 0x24 }
  - { offsetInCU: 0x55993, offset: 0x55993, size: 0x8, addend: 0x0, symName: __ZNKSt3__122__compressed_pair_elemIPN7tinyobj10material_tELi0ELb0EE5__getB8ne180100Ev, symObjAddr: 0x1FF84, symBinAddr: 0x1000213C0, symSize: 0x14 }
  - { offsetInCU: 0x559B9, offset: 0x559B9, size: 0x8, addend: 0x0, symName: __ZNSt3__112basic_stringIcNS_11char_traitsIcEENS_9allocatorIcEEE13__move_assignB8ne180100ERS5_NS_17integral_constantIbLb1EEE, symObjAddr: 0x1FF98, symBinAddr: 0x1000213D4, symSize: 0x17C }
  - { offsetInCU: 0x55A1A, offset: 0x55A1A, size: 0x8, addend: 0x0, symName: __ZNSt3__116allocator_traitsINS_9allocatorIcEEE10deallocateB8ne180100ERS2_Pcm, symObjAddr: 0x20114, symBinAddr: 0x100021550, symSize: 0x34 }
  - { offsetInCU: 0x55A5C, offset: 0x55A5C, size: 0x8, addend: 0x0, symName: __ZNKSt3__112basic_stringIcNS_11char_traitsIcEENS_9allocatorIcEEE14__get_long_capB8ne180100Ev, symObjAddr: 0x20148, symBinAddr: 0x100021584, symSize: 0x30 }
  - { offsetInCU: 0x55A82, offset: 0x55A82, size: 0x8, addend: 0x0, symName: __ZNSt3__112basic_stringIcNS_11char_traitsIcEENS_9allocatorIcEEE19__move_assign_allocB8ne180100ERS5_, symObjAddr: 0x20178, symBinAddr: 0x1000215B4, symSize: 0x2C }
  - { offsetInCU: 0x55AB7, offset: 0x55AB7, size: 0x8, addend: 0x0, symName: __ZNKSt3__112basic_stringIcNS_11char_traitsIcEENS_9allocatorIcEEE16__get_short_sizeB8ne180100Ev, symObjAddr: 0x201A4, symBinAddr: 0x1000215E0, symSize: 0x34 }
  - { offsetInCU: 0x55ADD, offset: 0x55ADD, size: 0x8, addend: 0x0, symName: __ZNSt3__19allocatorIcE10deallocateB8ne180100EPcm, symObjAddr: 0x201D8, symBinAddr: 0x100021614, symSize: 0x40 }
  - { offsetInCU: 0x55B1F, offset: 0x55B1F, size: 0x8, addend: 0x0, symName: __ZNSt3__112basic_stringIcNS_11char_traitsIcEENS_9allocatorIcEEE19__move_assign_allocB8ne180100ERS5_NS_17integral_constantIbLb1EEE, symObjAddr: 0x20218, symBinAddr: 0x100021654, symSize: 0x38 }
  - { offsetInCU: 0x55B60, offset: 0x55B60, size: 0x8, addend: 0x0, symName: __ZNKSt3__16vectorIN7tinyobj6face_tENS_9allocatorIS2_EEE17__annotate_shrinkB8ne180100Em, symObjAddr: 0x20250, symBinAddr: 0x10002168C, symSize: 0x14 }
  - { offsetInCU: 0x55B95, offset: 0x55B95, size: 0x8, addend: 0x0, symName: __ZNSt3__16vectorIN7tinyobj7index_tENS_9allocatorIS2_EEE22__construct_one_at_endB8ne180100IJRKS2_EEEvDpOT_, symObjAddr: 0x20264, symBinAddr: 0x1000216A0, symSize: 0x90 }
  - { offsetInCU: 0x55BE4, offset: 0x55BE4, size: 0x8, addend: 0x0, symName: __ZNSt3__16vectorIN7tinyobj7index_tENS_9allocatorIS2_EEE21__push_back_slow_pathIRKS2_EEPS2_OT_, symObjAddr: 0x202F4, symBinAddr: 0x100021730, symSize: 0xE8 }
  - { offsetInCU: 0x55C5D, offset: 0x55C5D, size: 0x8, addend: 0x0, symName: __ZNSt3__16vectorIN7tinyobj7index_tENS_9allocatorIS2_EEE21_ConstructTransactionC1B8ne180100ERS5_m, symObjAddr: 0x203DC, symBinAddr: 0x100021818, symSize: 0x3C }
  - { offsetInCU: 0x55CA5, offset: 0x55CA5, size: 0x8, addend: 0x0, symName: __ZNSt3__116allocator_traitsINS_9allocatorIN7tinyobj7index_tEEEE9constructB8ne180100IS3_JRKS3_EvEEvRS4_PT_DpOT0_, symObjAddr: 0x20418, symBinAddr: 0x100021854, symSize: 0x34 }
  - { offsetInCU: 0x55CFC, offset: 0x55CFC, size: 0x8, addend: 0x0, symName: __ZNSt3__16vectorIN7tinyobj7index_tENS_9allocatorIS2_EEE21_ConstructTransactionD1B8ne180100Ev, symObjAddr: 0x20460, symBinAddr: 0x10002189C, symSize: 0x2C }
  - { offsetInCU: 0x55D26, offset: 0x55D26, size: 0x8, addend: 0x0, symName: __ZNSt3__16vectorIN7tinyobj7index_tENS_9allocatorIS2_EEE21_ConstructTransactionC2B8ne180100ERS5_m, symObjAddr: 0x2048C, symBinAddr: 0x1000218C8, symSize: 0x4C }
  - { offsetInCU: 0x55D6E, offset: 0x55D6E, size: 0x8, addend: 0x0, symName: __ZNSt3__19allocatorIN7tinyobj7index_tEE9constructB8ne180100IS2_JRKS2_EEEvPT_DpOT0_, symObjAddr: 0x204D8, symBinAddr: 0x100021914, symSize: 0x30 }
  - { offsetInCU: 0x55DC4, offset: 0x55DC4, size: 0x8, addend: 0x0, symName: __ZNSt3__16vectorIN7tinyobj7index_tENS_9allocatorIS2_EEE21_ConstructTransactionD2B8ne180100Ev, symObjAddr: 0x20508, symBinAddr: 0x100021944, symSize: 0x20 }
  - { offsetInCU: 0x55DEE, offset: 0x55DEE, size: 0x8, addend: 0x0, symName: __ZNKSt3__16vectorIN7tinyobj7index_tENS_9allocatorIS2_EEE11__recommendB8ne180100Em, symObjAddr: 0x20528, symBinAddr: 0x100021964, symSize: 0xB4 }
  - { offsetInCU: 0x55E43, offset: 0x55E43, size: 0x8, addend: 0x0, symName: __ZNSt3__114__split_bufferIN7tinyobj7index_tERNS_9allocatorIS2_EEEC1EmmS5_, symObjAddr: 0x205DC, symBinAddr: 0x100021A18, symSize: 0x44 }
  - { offsetInCU: 0x55E99, offset: 0x55E99, size: 0x8, addend: 0x0, symName: __ZNSt3__114__split_bufferIN7tinyobj7index_tERNS_9allocatorIS2_EEED1Ev, symObjAddr: 0x20730, symBinAddr: 0x100021B6C, symSize: 0x2C }
  - { offsetInCU: 0x55EC5, offset: 0x55EC5, size: 0x8, addend: 0x0, symName: __ZNKSt3__16vectorIN7tinyobj7index_tENS_9allocatorIS2_EEE8max_sizeEv, symObjAddr: 0x2075C, symBinAddr: 0x100021B98, symSize: 0x60 }
  - { offsetInCU: 0x55EED, offset: 0x55EED, size: 0x8, addend: 0x0, symName: __ZNKSt3__16vectorIN7tinyobj7index_tENS_9allocatorIS2_EEE20__throw_length_errorB8ne180100Ev, symObjAddr: 0x207BC, symBinAddr: 0x100021BF8, symSize: 0x1C }
  - { offsetInCU: 0x55F1E, offset: 0x55F1E, size: 0x8, addend: 0x0, symName: __ZNSt3__116allocator_traitsINS_9allocatorIN7tinyobj7index_tEEEE8max_sizeB8ne180100IS4_vEEmRKS4_, symObjAddr: 0x207D8, symBinAddr: 0x100021C14, symSize: 0x24 }
  - { offsetInCU: 0x55F4C, offset: 0x55F4C, size: 0x8, addend: 0x0, symName: __ZNKSt3__16vectorIN7tinyobj7index_tENS_9allocatorIS2_EEE7__allocB8ne180100Ev, symObjAddr: 0x207FC, symBinAddr: 0x100021C38, symSize: 0x28 }
  - { offsetInCU: 0x55F72, offset: 0x55F72, size: 0x8, addend: 0x0, symName: __ZNKSt3__19allocatorIN7tinyobj7index_tEE8max_sizeB8ne180100Ev, symObjAddr: 0x20824, symBinAddr: 0x100021C60, symSize: 0x18 }
  - { offsetInCU: 0x55F98, offset: 0x55F98, size: 0x8, addend: 0x0, symName: __ZNKSt3__117__compressed_pairIPN7tinyobj7index_tENS_9allocatorIS2_EEE6secondB8ne180100Ev, symObjAddr: 0x2083C, symBinAddr: 0x100021C78, symSize: 0x24 }
  - { offsetInCU: 0x55FBE, offset: 0x55FBE, size: 0x8, addend: 0x0, symName: __ZNKSt3__122__compressed_pair_elemINS_9allocatorIN7tinyobj7index_tEEELi1ELb1EE5__getB8ne180100Ev, symObjAddr: 0x20860, symBinAddr: 0x100021C9C, symSize: 0x14 }
  - { offsetInCU: 0x55FE4, offset: 0x55FE4, size: 0x8, addend: 0x0, symName: __ZNSt3__114__split_bufferIN7tinyobj7index_tERNS_9allocatorIS2_EEEC2EmmS5_, symObjAddr: 0x20874, symBinAddr: 0x100021CB0, symSize: 0xE0 }
  - { offsetInCU: 0x56057, offset: 0x56057, size: 0x8, addend: 0x0, symName: __ZNSt3__117__compressed_pairIPN7tinyobj7index_tERNS_9allocatorIS2_EEEC1B8ne180100IDnS6_EEOT_OT0_, symObjAddr: 0x20954, symBinAddr: 0x100021D90, symSize: 0x3C }
  - { offsetInCU: 0x560AF, offset: 0x560AF, size: 0x8, addend: 0x0, symName: __ZNSt3__114__split_bufferIN7tinyobj7index_tERNS_9allocatorIS2_EEE7__allocB8ne180100Ev, symObjAddr: 0x209D0, symBinAddr: 0x100021E0C, symSize: 0x28 }
  - { offsetInCU: 0x560D5, offset: 0x560D5, size: 0x8, addend: 0x0, symName: __ZNSt3__114__split_bufferIN7tinyobj7index_tERNS_9allocatorIS2_EEE9__end_capB8ne180100Ev, symObjAddr: 0x209F8, symBinAddr: 0x100021E34, symSize: 0x28 }
  - { offsetInCU: 0x560FB, offset: 0x560FB, size: 0x8, addend: 0x0, symName: __ZNSt3__117__compressed_pairIPN7tinyobj7index_tERNS_9allocatorIS2_EEEC2B8ne180100IDnS6_EEOT_OT0_, symObjAddr: 0x20A20, symBinAddr: 0x100021E5C, symSize: 0x48 }
  - { offsetInCU: 0x56153, offset: 0x56153, size: 0x8, addend: 0x0, symName: __ZNSt3__122__compressed_pair_elemIPN7tinyobj7index_tELi0ELb0EEC2B8ne180100IDnvEEOT_, symObjAddr: 0x20A68, symBinAddr: 0x100021EA4, symSize: 0x1C }
  - { offsetInCU: 0x56195, offset: 0x56195, size: 0x8, addend: 0x0, symName: __ZNSt3__122__compressed_pair_elemIRNS_9allocatorIN7tinyobj7index_tEEELi1ELb0EEC2B8ne180100IS5_vEEOT_, symObjAddr: 0x20A84, symBinAddr: 0x100021EC0, symSize: 0x20 }
  - { offsetInCU: 0x561D7, offset: 0x561D7, size: 0x8, addend: 0x0, symName: __ZNSt3__19allocatorIN7tinyobj7index_tEE8allocateB8ne180100Em, symObjAddr: 0x20AA4, symBinAddr: 0x100021EE0, symSize: 0x5C }
  - { offsetInCU: 0x5620B, offset: 0x5620B, size: 0x8, addend: 0x0, symName: __ZNSt3__117__compressed_pairIPN7tinyobj7index_tERNS_9allocatorIS2_EEE6secondB8ne180100Ev, symObjAddr: 0x20B00, symBinAddr: 0x100021F3C, symSize: 0x28 }
  - { offsetInCU: 0x56231, offset: 0x56231, size: 0x8, addend: 0x0, symName: __ZNSt3__122__compressed_pair_elemIRNS_9allocatorIN7tinyobj7index_tEEELi1ELb0EE5__getB8ne180100Ev, symObjAddr: 0x20B28, symBinAddr: 0x100021F64, symSize: 0x18 }
  - { offsetInCU: 0x56257, offset: 0x56257, size: 0x8, addend: 0x0, symName: __ZNSt3__117__compressed_pairIPN7tinyobj7index_tERNS_9allocatorIS2_EEE5firstB8ne180100Ev, symObjAddr: 0x20B40, symBinAddr: 0x100021F7C, symSize: 0x24 }
  - { offsetInCU: 0x5627D, offset: 0x5627D, size: 0x8, addend: 0x0, symName: __ZNSt3__116reverse_iteratorIPN7tinyobj7index_tEEC1B8ne180100ES3_, symObjAddr: 0x20BDC, symBinAddr: 0x100022018, symSize: 0x34 }
  - { offsetInCU: 0x562B5, offset: 0x562B5, size: 0x8, addend: 0x0, symName: __ZNKSt3__116reverse_iteratorIPN7tinyobj7index_tEE4baseB8ne180100Ev, symObjAddr: 0x20C10, symBinAddr: 0x10002204C, symSize: 0x18 }
  - { offsetInCU: 0x562DB, offset: 0x562DB, size: 0x8, addend: 0x0, symName: __ZNKSt3__16vectorIN7tinyobj7index_tENS_9allocatorIS2_EEE14__annotate_newB8ne180100Em, symObjAddr: 0x20C64, symBinAddr: 0x1000220A0, symSize: 0x14 }
  - { offsetInCU: 0x5632C, offset: 0x5632C, size: 0x8, addend: 0x0, symName: __ZNKSt3__111__move_loopINS_17_ClassicAlgPolicyEEclB8ne180100INS_16reverse_iteratorIPN7tinyobj7index_tEEES8_S8_EENS_4pairIT_T1_EESA_T0_SB_, symObjAddr: 0x20F68, symBinAddr: 0x1000223A4, symSize: 0xA8 }
  - { offsetInCU: 0x5639D, offset: 0x5639D, size: 0x8, addend: 0x0, symName: __ZNSt3__18_IterOpsINS_17_ClassicAlgPolicyEE11__iter_moveB8ne180100IRNS_16reverse_iteratorIPN7tinyobj7index_tEEELi0EEEDTclsr3stdE4movedeclsr3stdE7declvalIRT_EEEEOSA_, symObjAddr: 0x211A4, symBinAddr: 0x1000225E0, symSize: 0x28 }
  - { offsetInCU: 0x563CF, offset: 0x563CF, size: 0x8, addend: 0x0, symName: __ZNKSt3__116reverse_iteratorIPN7tinyobj7index_tEEdeB8ne180100Ev, symObjAddr: 0x211CC, symBinAddr: 0x100022608, symSize: 0x28 }
  - { offsetInCU: 0x56403, offset: 0x56403, size: 0x8, addend: 0x0, symName: __ZNSt3__116reverse_iteratorIPN7tinyobj7index_tEEppB8ne180100Ev, symObjAddr: 0x211F4, symBinAddr: 0x100022630, symSize: 0x20 }
  - { offsetInCU: 0x56429, offset: 0x56429, size: 0x8, addend: 0x0, symName: __ZNSt3__18_IterOpsINS_17_ClassicAlgPolicyEE25__validate_iter_referenceB8ne180100IRNS_16reverse_iteratorIPN7tinyobj7index_tEEEEEvv, symObjAddr: 0x21214, symBinAddr: 0x100022650, symSize: 0x4 }
  - { offsetInCU: 0x56447, offset: 0x56447, size: 0x8, addend: 0x0, symName: __ZNSt3__118__unwrap_iter_implINS_16reverse_iteratorIPN7tinyobj7index_tEEELb0EE8__unwrapB8ne180100ES5_, symObjAddr: 0x21218, symBinAddr: 0x100022654, symSize: 0x24 }
  - { offsetInCU: 0x56470, offset: 0x56470, size: 0x8, addend: 0x0, symName: __ZNSt3__14pairINS_16reverse_iteratorIPN7tinyobj7index_tEEES5_EC1B8ne180100IS5_S5_Li0EEEOT_OT0_, symObjAddr: 0x2123C, symBinAddr: 0x100022678, symSize: 0x3C }
  - { offsetInCU: 0x564CE, offset: 0x564CE, size: 0x8, addend: 0x0, symName: __ZNSt3__14pairINS_16reverse_iteratorIPN7tinyobj7index_tEEES5_EC2B8ne180100IS5_S5_Li0EEEOT_OT0_, symObjAddr: 0x21278, symBinAddr: 0x1000226B4, symSize: 0x34 }
  - { offsetInCU: 0x5652C, offset: 0x5652C, size: 0x8, addend: 0x0, symName: __ZNSt3__118__unwrap_iter_implINS_16reverse_iteratorIPN7tinyobj7index_tEEELb0EE8__rewrapB8ne180100ES5_S5_, symObjAddr: 0x212AC, symBinAddr: 0x1000226E8, symSize: 0x2C }
  - { offsetInCU: 0x5655A, offset: 0x5655A, size: 0x8, addend: 0x0, symName: __ZNSt3__116reverse_iteratorIPN7tinyobj7index_tEEC2B8ne180100ES3_, symObjAddr: 0x212D8, symBinAddr: 0x100022714, symSize: 0x28 }
  - { offsetInCU: 0x56592, offset: 0x56592, size: 0x8, addend: 0x0, symName: __ZNSt3__114__split_bufferIN7tinyobj7index_tERNS_9allocatorIS2_EEED2Ev, symObjAddr: 0x21300, symBinAddr: 0x10002273C, symSize: 0x8C }
  - { offsetInCU: 0x565BE, offset: 0x565BE, size: 0x8, addend: 0x0, symName: __ZNSt3__114__split_bufferIN7tinyobj7index_tERNS_9allocatorIS2_EEE5clearB8ne180100Ev, symObjAddr: 0x2138C, symBinAddr: 0x1000227C8, symSize: 0x28 }
  - { offsetInCU: 0x565E4, offset: 0x565E4, size: 0x8, addend: 0x0, symName: __ZNKSt3__114__split_bufferIN7tinyobj7index_tERNS_9allocatorIS2_EEE8capacityB8ne180100Ev, symObjAddr: 0x213B4, symBinAddr: 0x1000227F0, symSize: 0x40 }
  - { offsetInCU: 0x5660A, offset: 0x5660A, size: 0x8, addend: 0x0, symName: __ZNSt3__114__split_bufferIN7tinyobj7index_tERNS_9allocatorIS2_EEE17__destruct_at_endB8ne180100EPS2_, symObjAddr: 0x213F4, symBinAddr: 0x100022830, symSize: 0x2C }
  - { offsetInCU: 0x5663E, offset: 0x5663E, size: 0x8, addend: 0x0, symName: __ZNSt3__114__split_bufferIN7tinyobj7index_tERNS_9allocatorIS2_EEE17__destruct_at_endB8ne180100EPS2_NS_17integral_constantIbLb0EEE, symObjAddr: 0x21420, symBinAddr: 0x10002285C, symSize: 0x80 }
  - { offsetInCU: 0x5667F, offset: 0x5667F, size: 0x8, addend: 0x0, symName: __ZNSt3__116allocator_traitsINS_9allocatorIN7tinyobj7index_tEEEE7destroyB8ne180100IS3_vEEvRS4_PT_, symObjAddr: 0x214A0, symBinAddr: 0x1000228DC, symSize: 0x2C }
  - { offsetInCU: 0x566BC, offset: 0x566BC, size: 0x8, addend: 0x0, symName: __ZNSt3__19allocatorIN7tinyobj7index_tEE7destroyB8ne180100EPS2_, symObjAddr: 0x214CC, symBinAddr: 0x100022908, symSize: 0x14 }
  - { offsetInCU: 0x566F0, offset: 0x566F0, size: 0x8, addend: 0x0, symName: __ZNKSt3__114__split_bufferIN7tinyobj7index_tERNS_9allocatorIS2_EEE9__end_capB8ne180100Ev, symObjAddr: 0x214E0, symBinAddr: 0x10002291C, symSize: 0x28 }
  - { offsetInCU: 0x56716, offset: 0x56716, size: 0x8, addend: 0x0, symName: __ZNKSt3__117__compressed_pairIPN7tinyobj7index_tERNS_9allocatorIS2_EEE5firstB8ne180100Ev, symObjAddr: 0x21508, symBinAddr: 0x100022944, symSize: 0x24 }
  - { offsetInCU: 0x56742, offset: 0x56742, size: 0x8, addend: 0x0, symName: __ZNSt3__16vectorIjNS_9allocatorIjEEE22__construct_one_at_endB8ne180100IJjEEEvDpOT_, symObjAddr: 0x2152C, symBinAddr: 0x100022968, symSize: 0x90 }
  - { offsetInCU: 0x56791, offset: 0x56791, size: 0x8, addend: 0x0, symName: __ZNSt3__16vectorIjNS_9allocatorIjEEE21__push_back_slow_pathIjEEPjOT_, symObjAddr: 0x215BC, symBinAddr: 0x1000229F8, symSize: 0xE8 }
  - { offsetInCU: 0x567EF, offset: 0x567EF, size: 0x8, addend: 0x0, symName: __ZNSt3__116allocator_traitsINS_9allocatorIjEEE9constructB8ne180100IjJjEvEEvRS2_PT_DpOT0_, symObjAddr: 0x216A4, symBinAddr: 0x100022AE0, symSize: 0x34 }
  - { offsetInCU: 0x56846, offset: 0x56846, size: 0x8, addend: 0x0, symName: __ZNSt3__19allocatorIjE9constructB8ne180100IjJjEEEvPT_DpOT0_, symObjAddr: 0x216D8, symBinAddr: 0x100022B14, symSize: 0x28 }
  - { offsetInCU: 0x5689C, offset: 0x5689C, size: 0x8, addend: 0x0, symName: __ZNKSt3__112basic_stringIcNS_11char_traitsIcEENS_9allocatorIcEEE15__get_long_sizeB8ne180100Ev, symObjAddr: 0x21700, symBinAddr: 0x100022B3C, symSize: 0x28 }
  - { offsetInCU: 0x568C2, offset: 0x568C2, size: 0x8, addend: 0x0, symName: __ZNSt3__16vectorINS_12basic_stringIcNS_11char_traitsIcEENS_9allocatorIcEEEENS4_IS6_EEE22__construct_one_at_endB8ne180100IJRKS6_EEEvDpOT_, symObjAddr: 0x21728, symBinAddr: 0x100022B64, symSize: 0x90 }
  - { offsetInCU: 0x56911, offset: 0x56911, size: 0x8, addend: 0x0, symName: __ZNSt3__16vectorINS_12basic_stringIcNS_11char_traitsIcEENS_9allocatorIcEEEENS4_IS6_EEE21__push_back_slow_pathIRKS6_EEPS6_OT_, symObjAddr: 0x217B8, symBinAddr: 0x100022BF4, symSize: 0xE8 }
  - { offsetInCU: 0x5696F, offset: 0x5696F, size: 0x8, addend: 0x0, symName: __ZNSt3__116allocator_traitsINS_9allocatorINS_12basic_stringIcNS_11char_traitsIcEENS1_IcEEEEEEE9constructB8ne180100IS6_JRKS6_EvEEvRS7_PT_DpOT0_, symObjAddr: 0x218A0, symBinAddr: 0x100022CDC, symSize: 0x34 }
  - { offsetInCU: 0x569C6, offset: 0x569C6, size: 0x8, addend: 0x0, symName: __ZNSt3__19allocatorINS_12basic_stringIcNS_11char_traitsIcEENS0_IcEEEEE9constructB8ne180100IS5_JRKS5_EEEvPT_DpOT0_, symObjAddr: 0x218D4, symBinAddr: 0x100022D10, symSize: 0x30 }
  - { offsetInCU: 0x56A1C, offset: 0x56A1C, size: 0x8, addend: 0x0, symName: __ZNSt3__114__split_bufferINS_12basic_stringIcNS_11char_traitsIcEENS_9allocatorIcEEEERNS4_IS6_EEEC1EmmS8_, symObjAddr: 0x21904, symBinAddr: 0x100022D40, symSize: 0x44 }
  - { offsetInCU: 0x56A72, offset: 0x56A72, size: 0x8, addend: 0x0, symName: __ZNSt3__114__split_bufferINS_12basic_stringIcNS_11char_traitsIcEENS_9allocatorIcEEEERNS4_IS6_EEED1Ev, symObjAddr: 0x21A58, symBinAddr: 0x100022E94, symSize: 0x2C }
  - { offsetInCU: 0x56A9E, offset: 0x56A9E, size: 0x8, addend: 0x0, symName: __ZNSt3__114__split_bufferINS_12basic_stringIcNS_11char_traitsIcEENS_9allocatorIcEEEERNS4_IS6_EEEC2EmmS8_, symObjAddr: 0x21A84, symBinAddr: 0x100022EC0, symSize: 0xE0 }
  - { offsetInCU: 0x56B11, offset: 0x56B11, size: 0x8, addend: 0x0, symName: __ZNSt3__117__compressed_pairIPNS_12basic_stringIcNS_11char_traitsIcEENS_9allocatorIcEEEERNS4_IS6_EEEC1B8ne180100IDnS9_EEOT_OT0_, symObjAddr: 0x21B64, symBinAddr: 0x100022FA0, symSize: 0x3C }
  - { offsetInCU: 0x56B69, offset: 0x56B69, size: 0x8, addend: 0x0, symName: __ZNSt3__114__split_bufferINS_12basic_stringIcNS_11char_traitsIcEENS_9allocatorIcEEEERNS4_IS6_EEE7__allocB8ne180100Ev, symObjAddr: 0x21BA0, symBinAddr: 0x100022FDC, symSize: 0x28 }
  - { offsetInCU: 0x56B8F, offset: 0x56B8F, size: 0x8, addend: 0x0, symName: __ZNSt3__114__split_bufferINS_12basic_stringIcNS_11char_traitsIcEENS_9allocatorIcEEEERNS4_IS6_EEE9__end_capB8ne180100Ev, symObjAddr: 0x21BC8, symBinAddr: 0x100023004, symSize: 0x28 }
  - { offsetInCU: 0x56BB5, offset: 0x56BB5, size: 0x8, addend: 0x0, symName: __ZNSt3__117__compressed_pairIPNS_12basic_stringIcNS_11char_traitsIcEENS_9allocatorIcEEEERNS4_IS6_EEEC2B8ne180100IDnS9_EEOT_OT0_, symObjAddr: 0x21BF0, symBinAddr: 0x10002302C, symSize: 0x48 }
  - { offsetInCU: 0x56C0D, offset: 0x56C0D, size: 0x8, addend: 0x0, symName: __ZNSt3__122__compressed_pair_elemIRNS_9allocatorINS_12basic_stringIcNS_11char_traitsIcEENS1_IcEEEEEELi1ELb0EEC2B8ne180100IS8_vEEOT_, symObjAddr: 0x21C38, symBinAddr: 0x100023074, symSize: 0x20 }
  - { offsetInCU: 0x56C4F, offset: 0x56C4F, size: 0x8, addend: 0x0, symName: __ZNSt3__117__compressed_pairIPNS_12basic_stringIcNS_11char_traitsIcEENS_9allocatorIcEEEERNS4_IS6_EEE6secondB8ne180100Ev, symObjAddr: 0x21C58, symBinAddr: 0x100023094, symSize: 0x28 }
  - { offsetInCU: 0x56C75, offset: 0x56C75, size: 0x8, addend: 0x0, symName: __ZNSt3__122__compressed_pair_elemIRNS_9allocatorINS_12basic_stringIcNS_11char_traitsIcEENS1_IcEEEEEELi1ELb0EE5__getB8ne180100Ev, symObjAddr: 0x21C80, symBinAddr: 0x1000230BC, symSize: 0x18 }
  - { offsetInCU: 0x56C9B, offset: 0x56C9B, size: 0x8, addend: 0x0, symName: __ZNSt3__117__compressed_pairIPNS_12basic_stringIcNS_11char_traitsIcEENS_9allocatorIcEEEERNS4_IS6_EEE5firstB8ne180100Ev, symObjAddr: 0x21C98, symBinAddr: 0x1000230D4, symSize: 0x24 }
  - { offsetInCU: 0x56CC1, offset: 0x56CC1, size: 0x8, addend: 0x0, symName: __ZNSt3__129_AllocatorDestroyRangeReverseINS_9allocatorINS_12basic_stringIcNS_11char_traitsIcEENS1_IcEEEEEENS_16reverse_iteratorIPS6_EEEC1B8ne180100ERS7_RSA_SD_, symObjAddr: 0x21E60, symBinAddr: 0x10002329C, symSize: 0x44 }
  - { offsetInCU: 0x56D1E, offset: 0x56D1E, size: 0x8, addend: 0x0, symName: __ZNSt3__116allocator_traitsINS_9allocatorINS_12basic_stringIcNS_11char_traitsIcEENS1_IcEEEEEEE9constructB8ne180100IS6_JS6_EvEEvRS7_PT_DpOT0_, symObjAddr: 0x21EA4, symBinAddr: 0x1000232E0, symSize: 0x34 }
  - { offsetInCU: 0x56D75, offset: 0x56D75, size: 0x8, addend: 0x0, symName: __ZNSt3__128__exception_guard_exceptionsINS_29_AllocatorDestroyRangeReverseINS_9allocatorINS_12basic_stringIcNS_11char_traitsIcEENS2_IcEEEEEENS_16reverse_iteratorIPS7_EEEEE10__completeB8ne180100Ev, symObjAddr: 0x21ED8, symBinAddr: 0x100023314, symSize: 0x1C }
  - { offsetInCU: 0x56D9B, offset: 0x56D9B, size: 0x8, addend: 0x0, symName: __ZNSt3__128__exception_guard_exceptionsINS_29_AllocatorDestroyRangeReverseINS_9allocatorINS_12basic_stringIcNS_11char_traitsIcEENS2_IcEEEEEENS_16reverse_iteratorIPS7_EEEEED1B8ne180100Ev, symObjAddr: 0x21EF4, symBinAddr: 0x100023330, symSize: 0x2C }
  - { offsetInCU: 0x56DC5, offset: 0x56DC5, size: 0x8, addend: 0x0, symName: __ZNSt3__128__exception_guard_exceptionsINS_29_AllocatorDestroyRangeReverseINS_9allocatorINS_12basic_stringIcNS_11char_traitsIcEENS2_IcEEEEEENS_16reverse_iteratorIPS7_EEEEEC1B8ne180100ESC_, symObjAddr: 0x21F20, symBinAddr: 0x10002335C, symSize: 0x34 }
  - { offsetInCU: 0x56DFE, offset: 0x56DFE, size: 0x8, addend: 0x0, symName: __ZNSt3__128__exception_guard_exceptionsINS_29_AllocatorDestroyRangeReverseINS_9allocatorINS_12basic_stringIcNS_11char_traitsIcEENS2_IcEEEEEENS_16reverse_iteratorIPS7_EEEEEC2B8ne180100ESC_, symObjAddr: 0x21F54, symBinAddr: 0x100023390, symSize: 0x30 }
  - { offsetInCU: 0x56E37, offset: 0x56E37, size: 0x8, addend: 0x0, symName: __ZNSt3__129_AllocatorDestroyRangeReverseINS_9allocatorINS_12basic_stringIcNS_11char_traitsIcEENS1_IcEEEEEENS_16reverse_iteratorIPS6_EEEC2B8ne180100ERS7_RSA_SD_, symObjAddr: 0x21F84, symBinAddr: 0x1000233C0, symSize: 0x38 }
  - { offsetInCU: 0x56E8E, offset: 0x56E8E, size: 0x8, addend: 0x0, symName: __ZNSt3__19allocatorINS_12basic_stringIcNS_11char_traitsIcEENS0_IcEEEEE9constructB8ne180100IS5_JS5_EEEvPT_DpOT0_, symObjAddr: 0x21FBC, symBinAddr: 0x1000233F8, symSize: 0x30 }
  - { offsetInCU: 0x56EE4, offset: 0x56EE4, size: 0x8, addend: 0x0, symName: __ZNSt3__128__exception_guard_exceptionsINS_29_AllocatorDestroyRangeReverseINS_9allocatorINS_12basic_stringIcNS_11char_traitsIcEENS2_IcEEEEEENS_16reverse_iteratorIPS7_EEEEED2B8ne180100Ev, symObjAddr: 0x21FEC, symBinAddr: 0x100023428, symSize: 0x50 }
  - { offsetInCU: 0x56F0E, offset: 0x56F0E, size: 0x8, addend: 0x0, symName: __ZNKSt3__129_AllocatorDestroyRangeReverseINS_9allocatorINS_12basic_stringIcNS_11char_traitsIcEENS1_IcEEEEEENS_16reverse_iteratorIPS6_EEEclB8ne180100Ev, symObjAddr: 0x2203C, symBinAddr: 0x100023478, symSize: 0xB4 }
  - { offsetInCU: 0x56F35, offset: 0x56F35, size: 0x8, addend: 0x0, symName: __ZNSt3__116reverse_iteratorINS0_IPNS_12basic_stringIcNS_11char_traitsIcEENS_9allocatorIcEEEEEEEC1B8ne180100ES8_, symObjAddr: 0x22160, symBinAddr: 0x10002359C, symSize: 0x3C }
  - { offsetInCU: 0x56F6D, offset: 0x56F6D, size: 0x8, addend: 0x0, symName: __ZNSt3__116reverse_iteratorINS0_IPNS_12basic_stringIcNS_11char_traitsIcEENS_9allocatorIcEEEEEEEppB8ne180100Ev, symObjAddr: 0x22220, symBinAddr: 0x10002365C, symSize: 0x30 }
  - { offsetInCU: 0x56F93, offset: 0x56F93, size: 0x8, addend: 0x0, symName: __ZNKSt3__116reverse_iteratorINS0_IPNS_12basic_stringIcNS_11char_traitsIcEENS_9allocatorIcEEEEEEE4baseB8ne180100Ev, symObjAddr: 0x22250, symBinAddr: 0x10002368C, symSize: 0x24 }
  - { offsetInCU: 0x56FBF, offset: 0x56FBF, size: 0x8, addend: 0x0, symName: __ZNSt3__119__to_address_helperINS_16reverse_iteratorINS1_IPNS_12basic_stringIcNS_11char_traitsIcEENS_9allocatorIcEEEEEEEEvE6__callB8ne180100ERKSA_, symObjAddr: 0x22274, symBinAddr: 0x1000236B0, symSize: 0x38 }
  - { offsetInCU: 0x56FE2, offset: 0x56FE2, size: 0x8, addend: 0x0, symName: __ZNKSt3__116reverse_iteratorINS0_IPNS_12basic_stringIcNS_11char_traitsIcEENS_9allocatorIcEEEEEEEptB8ne180100Ev, symObjAddr: 0x222AC, symBinAddr: 0x1000236E8, symSize: 0x24 }
  - { offsetInCU: 0x57008, offset: 0x57008, size: 0x8, addend: 0x0, symName: __ZNKSt3__116reverse_iteratorINS0_IPNS_12basic_stringIcNS_11char_traitsIcEENS_9allocatorIcEEEEEEEdeB8ne180100Ev, symObjAddr: 0x222D0, symBinAddr: 0x10002370C, symSize: 0x34 }
  - { offsetInCU: 0x5703C, offset: 0x5703C, size: 0x8, addend: 0x0, symName: __ZNSt3__116reverse_iteratorIPNS_12basic_stringIcNS_11char_traitsIcEENS_9allocatorIcEEEEEmmB8ne180100Ev, symObjAddr: 0x22304, symBinAddr: 0x100023740, symSize: 0x20 }
  - { offsetInCU: 0x57062, offset: 0x57062, size: 0x8, addend: 0x0, symName: __ZNSt3__116reverse_iteratorINS0_IPNS_12basic_stringIcNS_11char_traitsIcEENS_9allocatorIcEEEEEEEC2B8ne180100ES8_, symObjAddr: 0x22324, symBinAddr: 0x100023760, symSize: 0x2C }
  - { offsetInCU: 0x5709A, offset: 0x5709A, size: 0x8, addend: 0x0, symName: __ZNSt3__114__split_bufferINS_12basic_stringIcNS_11char_traitsIcEENS_9allocatorIcEEEERNS4_IS6_EEED2Ev, symObjAddr: 0x22350, symBinAddr: 0x10002378C, symSize: 0x8C }
  - { offsetInCU: 0x570C6, offset: 0x570C6, size: 0x8, addend: 0x0, symName: __ZNSt3__114__split_bufferINS_12basic_stringIcNS_11char_traitsIcEENS_9allocatorIcEEEERNS4_IS6_EEE5clearB8ne180100Ev, symObjAddr: 0x223DC, symBinAddr: 0x100023818, symSize: 0x28 }
  - { offsetInCU: 0x570EC, offset: 0x570EC, size: 0x8, addend: 0x0, symName: __ZNKSt3__114__split_bufferINS_12basic_stringIcNS_11char_traitsIcEENS_9allocatorIcEEEERNS4_IS6_EEE8capacityB8ne180100Ev, symObjAddr: 0x22404, symBinAddr: 0x100023840, symSize: 0x40 }
  - { offsetInCU: 0x57112, offset: 0x57112, size: 0x8, addend: 0x0, symName: __ZNSt3__114__split_bufferINS_12basic_stringIcNS_11char_traitsIcEENS_9allocatorIcEEEERNS4_IS6_EEE17__destruct_at_endB8ne180100EPS6_, symObjAddr: 0x22444, symBinAddr: 0x100023880, symSize: 0x2C }
  - { offsetInCU: 0x57146, offset: 0x57146, size: 0x8, addend: 0x0, symName: __ZNSt3__114__split_bufferINS_12basic_stringIcNS_11char_traitsIcEENS_9allocatorIcEEEERNS4_IS6_EEE17__destruct_at_endB8ne180100EPS6_NS_17integral_constantIbLb0EEE, symObjAddr: 0x22470, symBinAddr: 0x1000238AC, symSize: 0x80 }
  - { offsetInCU: 0x57187, offset: 0x57187, size: 0x8, addend: 0x0, symName: __ZNKSt3__114__split_bufferINS_12basic_stringIcNS_11char_traitsIcEENS_9allocatorIcEEEERNS4_IS6_EEE9__end_capB8ne180100Ev, symObjAddr: 0x224F0, symBinAddr: 0x10002392C, symSize: 0x28 }
  - { offsetInCU: 0x571AD, offset: 0x571AD, size: 0x8, addend: 0x0, symName: __ZNKSt3__117__compressed_pairIPNS_12basic_stringIcNS_11char_traitsIcEENS_9allocatorIcEEEERNS4_IS6_EEE5firstB8ne180100Ev, symObjAddr: 0x22518, symBinAddr: 0x100023954, symSize: 0x24 }
  - { offsetInCU: 0x571D3, offset: 0x571D3, size: 0x8, addend: 0x0, symName: __ZNSt3__19basic_iosIcNS_11char_traitsIcEEEC2B8ne180100Ev, symObjAddr: 0x2253C, symBinAddr: 0x100023978, symSize: 0x44 }
  - { offsetInCU: 0x571FD, offset: 0x571FD, size: 0x8, addend: 0x0, symName: __ZNSt3__114basic_iostreamIcNS_11char_traitsIcEEEC2B8ne180100EPNS_15basic_streambufIcS2_EE, symObjAddr: 0x22580, symBinAddr: 0x1000239BC, symSize: 0xAC }
  - { offsetInCU: 0x57243, offset: 0x57243, size: 0x8, addend: 0x0, symName: __ZNSt3__115basic_stringbufIcNS_11char_traitsIcEENS_9allocatorIcEEEC1B8ne180100Ej, symObjAddr: 0x2262C, symBinAddr: 0x100023A68, symSize: 0x34 }
  - { offsetInCU: 0x5727C, offset: 0x5727C, size: 0x8, addend: 0x0, symName: __ZNSt3__18ios_baseC2B8ne180100Ev, symObjAddr: 0x22660, symBinAddr: 0x100023A9C, symSize: 0x24 }
  - { offsetInCU: 0x572A6, offset: 0x572A6, size: 0x8, addend: 0x0, symName: __ZNSt3__113basic_istreamIcNS_11char_traitsIcEEEC2B8ne180100EPNS_15basic_streambufIcS2_EE, symObjAddr: 0x22684, symBinAddr: 0x100023AC0, symSize: 0x64 }
  - { offsetInCU: 0x572EB, offset: 0x572EB, size: 0x8, addend: 0x0, symName: __ZNSt3__113basic_ostreamIcNS_11char_traitsIcEEEC2B8ne180100Ev, symObjAddr: 0x226E8, symBinAddr: 0x100023B24, symSize: 0x34 }
  - { offsetInCU: 0x57322, offset: 0x57322, size: 0x8, addend: 0x0, symName: __ZNSt3__19basic_iosIcNS_11char_traitsIcEEE4initB8ne180100EPNS_15basic_streambufIcS2_EE, symObjAddr: 0x2271C, symBinAddr: 0x100023B58, symSize: 0x44 }
  - { offsetInCU: 0x57359, offset: 0x57359, size: 0x8, addend: 0x0, symName: __ZNSt3__111char_traitsIcE3eofB8ne180100Ev, symObjAddr: 0x22760, symBinAddr: 0x100023B9C, symSize: 0x8 }
  - { offsetInCU: 0x5736D, offset: 0x5736D, size: 0x8, addend: 0x0, symName: __ZNSt3__115basic_stringbufIcNS_11char_traitsIcEENS_9allocatorIcEEEC2B8ne180100Ej, symObjAddr: 0x22768, symBinAddr: 0x100023BA4, symSize: 0x60 }
  - { offsetInCU: 0x573A6, offset: 0x573A6, size: 0x8, addend: 0x0, symName: __ZNSt3__19allocatorIcEC1B8ne180100Ev, symObjAddr: 0x227C8, symBinAddr: 0x100023C04, symSize: 0x2C }
  - { offsetInCU: 0x573D0, offset: 0x573D0, size: 0x8, addend: 0x0, symName: __ZNSt3__111char_traitsIcE4findB8ne180100EPKcmRS2_, symObjAddr: 0x228D0, symBinAddr: 0x100023D0C, symSize: 0x70 }
  - { offsetInCU: 0x5740F, offset: 0x5740F, size: 0x8, addend: 0x0, symName: __ZNSt3__16__treeINS_12__value_typeINS_12basic_stringIcNS_11char_traitsIcEENS_9allocatorIcEEEEiEENS_19__map_value_compareIS7_S8_NS_4lessIS7_EELb1EEENS5_IS8_EEE15__insert_uniqueB8ne180100INS_4pairIS7_iEEvEENSG_INS_15__tree_iteratorIS8_PNS_11__tree_nodeIS8_PvEElEEbEEOT_, symObjAddr: 0x22980, symBinAddr: 0x100023DBC, symSize: 0x3C }
  - { offsetInCU: 0x5744E, offset: 0x5744E, size: 0x8, addend: 0x0, symName: __ZNSt3__14pairINS_14__map_iteratorINS_15__tree_iteratorINS_12__value_typeINS_12basic_stringIcNS_11char_traitsIcEENS_9allocatorIcEEEEiEEPNS_11__tree_nodeISA_PvEElEEEEbEC1B8ne180100ISF_bLi0EEEONS0_IT_T0_EE, symObjAddr: 0x229BC, symBinAddr: 0x100023DF8, symSize: 0x34 }
  - { offsetInCU: 0x5749E, offset: 0x5749E, size: 0x8, addend: 0x0, symName: __ZNSt3__16__treeINS_12__value_typeINS_12basic_stringIcNS_11char_traitsIcEENS_9allocatorIcEEEEiEENS_19__map_value_compareIS7_S8_NS_4lessIS7_EELb1EEENS5_IS8_EEE16__emplace_uniqueB8ne180100INS_4pairIS7_iEEEENSG_INS_15__tree_iteratorIS8_PNS_11__tree_nodeIS8_PvEElEEbEEOT_, symObjAddr: 0x229F0, symBinAddr: 0x100023E2C, symSize: 0x3C }
  - { offsetInCU: 0x574DC, offset: 0x574DC, size: 0x8, addend: 0x0, symName: __ZNSt3__16__treeINS_12__value_typeINS_12basic_stringIcNS_11char_traitsIcEENS_9allocatorIcEEEEiEENS_19__map_value_compareIS7_S8_NS_4lessIS7_EELb1EEENS5_IS8_EEE28__emplace_unique_extract_keyB8ne180100INS_4pairIS7_iEEEENSG_INS_15__tree_iteratorIS8_PNS_11__tree_nodeIS8_PvEElEEbEEOT_NS_23__extract_key_first_tagE, symObjAddr: 0x22A2C, symBinAddr: 0x100023E68, symSize: 0x40 }
  - { offsetInCU: 0x57526, offset: 0x57526, size: 0x8, addend: 0x0, symName: __ZNSt3__16__treeINS_12__value_typeINS_12basic_stringIcNS_11char_traitsIcEENS_9allocatorIcEEEEiEENS_19__map_value_compareIS7_S8_NS_4lessIS7_EELb1EEENS5_IS8_EEE25__emplace_unique_key_argsIS7_JNS_4pairIS7_iEEEEENSG_INS_15__tree_iteratorIS8_PNS_11__tree_nodeIS8_PvEElEEbEERKT_DpOT0_, symObjAddr: 0x22A6C, symBinAddr: 0x100023EA8, symSize: 0xF0 }
  - { offsetInCU: 0x575D2, offset: 0x575D2, size: 0x8, addend: 0x0, symName: __ZNSt3__16__treeINS_12__value_typeINS_12basic_stringIcNS_11char_traitsIcEENS_9allocatorIcEEEEiEENS_19__map_value_compareIS7_S8_NS_4lessIS7_EELb1EEENS5_IS8_EEE12__find_equalIS7_EERPNS_16__tree_node_baseIPvEERPNS_15__tree_end_nodeISJ_EERKT_, symObjAddr: 0x22B5C, symBinAddr: 0x100023F98, symSize: 0x184 }
  - { offsetInCU: 0x5763F, offset: 0x5763F, size: 0x8, addend: 0x0, symName: __ZNSt3__16__treeINS_12__value_typeINS_12basic_stringIcNS_11char_traitsIcEENS_9allocatorIcEEEEiEENS_19__map_value_compareIS7_S8_NS_4lessIS7_EELb1EEENS5_IS8_EEE16__construct_nodeIJNS_4pairIS7_iEEEEENS_10unique_ptrINS_11__tree_nodeIS8_PvEENS_22__tree_node_destructorINS5_ISL_EEEEEEDpOT_, symObjAddr: 0x22CE0, symBinAddr: 0x10002411C, symSize: 0x110 }
  - { offsetInCU: 0x576A0, offset: 0x576A0, size: 0x8, addend: 0x0, symName: __ZNSt3__16__treeINS_12__value_typeINS_12basic_stringIcNS_11char_traitsIcEENS_9allocatorIcEEEEiEENS_19__map_value_compareIS7_S8_NS_4lessIS7_EELb1EEENS5_IS8_EEE16__insert_node_atEPNS_15__tree_end_nodeIPNS_16__tree_node_baseIPvEEEERSJ_SJ_, symObjAddr: 0x22DF0, symBinAddr: 0x10002422C, symSize: 0xCC }
  - { offsetInCU: 0x576F5, offset: 0x576F5, size: 0x8, addend: 0x0, symName: __ZNKSt3__110unique_ptrINS_11__tree_nodeINS_12__value_typeINS_12basic_stringIcNS_11char_traitsIcEENS_9allocatorIcEEEEiEEPvEENS_22__tree_node_destructorINS6_ISB_EEEEE3getB8ne180100Ev, symObjAddr: 0x22EBC, symBinAddr: 0x1000242F8, symSize: 0x28 }
  - { offsetInCU: 0x5771B, offset: 0x5771B, size: 0x8, addend: 0x0, symName: __ZNSt3__110unique_ptrINS_11__tree_nodeINS_12__value_typeINS_12basic_stringIcNS_11char_traitsIcEENS_9allocatorIcEEEEiEEPvEENS_22__tree_node_destructorINS6_ISB_EEEEE7releaseB8ne180100Ev, symObjAddr: 0x22EE4, symBinAddr: 0x100024320, symSize: 0x44 }
  - { offsetInCU: 0x57750, offset: 0x57750, size: 0x8, addend: 0x0, symName: __ZNSt3__110unique_ptrINS_11__tree_nodeINS_12__value_typeINS_12basic_stringIcNS_11char_traitsIcEENS_9allocatorIcEEEEiEEPvEENS_22__tree_node_destructorINS6_ISB_EEEEED1B8ne180100Ev, symObjAddr: 0x22F28, symBinAddr: 0x100024364, symSize: 0x2C }
  - { offsetInCU: 0x5777A, offset: 0x5777A, size: 0x8, addend: 0x0, symName: __ZNSt3__115__tree_iteratorINS_12__value_typeINS_12basic_stringIcNS_11char_traitsIcEENS_9allocatorIcEEEEiEEPNS_11__tree_nodeIS8_PvEElEC1B8ne180100ESC_, symObjAddr: 0x22F54, symBinAddr: 0x100024390, symSize: 0x34 }
  - { offsetInCU: 0x577B9, offset: 0x577B9, size: 0x8, addend: 0x0, symName: __ZNSt3__14pairINS_15__tree_iteratorINS_12__value_typeINS_12basic_stringIcNS_11char_traitsIcEENS_9allocatorIcEEEEiEEPNS_11__tree_nodeIS9_PvEElEEbEC1B8ne180100ISE_RbLi0EEEOT_OT0_, symObjAddr: 0x22F88, symBinAddr: 0x1000243C4, symSize: 0x3C }
  - { offsetInCU: 0x57817, offset: 0x57817, size: 0x8, addend: 0x0, symName: __ZNKSt3__16__treeINS_12__value_typeINS_12basic_stringIcNS_11char_traitsIcEENS_9allocatorIcEEEEiEENS_19__map_value_compareIS7_S8_NS_4lessIS7_EELb1EEENS5_IS8_EEE6__rootB8ne180100Ev, symObjAddr: 0x22FC4, symBinAddr: 0x100024400, symSize: 0x28 }
  - { offsetInCU: 0x5783D, offset: 0x5783D, size: 0x8, addend: 0x0, symName: __ZNKSt3__16__treeINS_12__value_typeINS_12basic_stringIcNS_11char_traitsIcEENS_9allocatorIcEEEEiEENS_19__map_value_compareIS7_S8_NS_4lessIS7_EELb1EEENS5_IS8_EEE10__root_ptrB8ne180100Ev, symObjAddr: 0x22FEC, symBinAddr: 0x100024428, symSize: 0x24 }
  - { offsetInCU: 0x57863, offset: 0x57863, size: 0x8, addend: 0x0, symName: __ZNSt3__16__treeINS_12__value_typeINS_12basic_stringIcNS_11char_traitsIcEENS_9allocatorIcEEEEiEENS_19__map_value_compareIS7_S8_NS_4lessIS7_EELb1EEENS5_IS8_EEE10value_compB8ne180100Ev, symObjAddr: 0x23010, symBinAddr: 0x10002444C, symSize: 0x28 }
  - { offsetInCU: 0x57889, offset: 0x57889, size: 0x8, addend: 0x0, symName: __ZNKSt3__119__map_value_compareINS_12basic_stringIcNS_11char_traitsIcEENS_9allocatorIcEEEENS_12__value_typeIS6_iEENS_4lessIS6_EELb1EEclB8ne180100ERKS6_RKS8_, symObjAddr: 0x23038, symBinAddr: 0x100024474, symSize: 0x50 }
  - { offsetInCU: 0x578CD, offset: 0x578CD, size: 0x8, addend: 0x0, symName: __ZNKSt3__119__map_value_compareINS_12basic_stringIcNS_11char_traitsIcEENS_9allocatorIcEEEENS_12__value_typeIS6_iEENS_4lessIS6_EELb1EEclB8ne180100ERKS8_RKS6_, symObjAddr: 0x23088, symBinAddr: 0x1000244C4, symSize: 0x48 }
  - { offsetInCU: 0x57911, offset: 0x57911, size: 0x8, addend: 0x0, symName: __ZNSt3__16__treeINS_12__value_typeINS_12basic_stringIcNS_11char_traitsIcEENS_9allocatorIcEEEEiEENS_19__map_value_compareIS7_S8_NS_4lessIS7_EELb1EEENS5_IS8_EEE10__end_nodeB8ne180100Ev, symObjAddr: 0x230D0, symBinAddr: 0x10002450C, symSize: 0x2C }
  - { offsetInCU: 0x57937, offset: 0x57937, size: 0x8, addend: 0x0, symName: __ZNKSt3__16__treeINS_12__value_typeINS_12basic_stringIcNS_11char_traitsIcEENS_9allocatorIcEEEEiEENS_19__map_value_compareIS7_S8_NS_4lessIS7_EELb1EEENS5_IS8_EEE10__end_nodeB8ne180100Ev, symObjAddr: 0x230FC, symBinAddr: 0x100024538, symSize: 0x2C }
  - { offsetInCU: 0x5795D, offset: 0x5795D, size: 0x8, addend: 0x0, symName: __ZNKSt3__117__compressed_pairINS_15__tree_end_nodeIPNS_16__tree_node_baseIPvEEEENS_9allocatorINS_11__tree_nodeINS_12__value_typeINS_12basic_stringIcNS_11char_traitsIcEENS7_IcEEEEiEES3_EEEEE5firstB8ne180100Ev, symObjAddr: 0x23128, symBinAddr: 0x100024564, symSize: 0x24 }
  - { offsetInCU: 0x57983, offset: 0x57983, size: 0x8, addend: 0x0, symName: __ZNSt3__117__compressed_pairImNS_19__map_value_compareINS_12basic_stringIcNS_11char_traitsIcEENS_9allocatorIcEEEENS_12__value_typeIS7_iEENS_4lessIS7_EELb1EEEE6secondB8ne180100Ev, symObjAddr: 0x2314C, symBinAddr: 0x100024588, symSize: 0x24 }
  - { offsetInCU: 0x579A9, offset: 0x579A9, size: 0x8, addend: 0x0, symName: __ZNSt3__122__compressed_pair_elemINS_19__map_value_compareINS_12basic_stringIcNS_11char_traitsIcEENS_9allocatorIcEEEENS_12__value_typeIS7_iEENS_4lessIS7_EELb1EEELi1ELb1EE5__getB8ne180100Ev, symObjAddr: 0x23170, symBinAddr: 0x1000245AC, symSize: 0x14 }
  - { offsetInCU: 0x579CF, offset: 0x579CF, size: 0x8, addend: 0x0, symName: __ZNKSt3__14lessINS_12basic_stringIcNS_11char_traitsIcEENS_9allocatorIcEEEEEclB8ne180100ERKS6_S9_, symObjAddr: 0x23184, symBinAddr: 0x1000245C0, symSize: 0x34 }
  - { offsetInCU: 0x57A13, offset: 0x57A13, size: 0x8, addend: 0x0, symName: __ZNKSt3__112__value_typeINS_12basic_stringIcNS_11char_traitsIcEENS_9allocatorIcEEEEiE11__get_valueB8ne180100Ev, symObjAddr: 0x231B8, symBinAddr: 0x1000245F4, symSize: 0x24 }
  - { offsetInCU: 0x57A39, offset: 0x57A39, size: 0x8, addend: 0x0, symName: __ZNKSt3__112basic_stringIcNS_11char_traitsIcEENS_9allocatorIcEEE7compareB8ne180100ERKS5_, symObjAddr: 0x23214, symBinAddr: 0x100024650, symSize: 0x4C }
  - { offsetInCU: 0x57A70, offset: 0x57A70, size: 0x8, addend: 0x0, symName: __ZNKSt3__112basic_stringIcNS_11char_traitsIcEENS_9allocatorIcEEE7compareINS_17basic_string_viewIcS2_EELi0EEEiRKT_, symObjAddr: 0x23260, symBinAddr: 0x10002469C, symSize: 0x12C }
  - { offsetInCU: 0x57AF3, offset: 0x57AF3, size: 0x8, addend: 0x0, symName: __ZNKSt3__112basic_stringIcNS_11char_traitsIcEENS_9allocatorIcEEEcvNS_17basic_string_viewIcS2_EEB8ne180100Ev, symObjAddr: 0x2338C, symBinAddr: 0x1000247C8, symSize: 0x50 }
  - { offsetInCU: 0x57B19, offset: 0x57B19, size: 0x8, addend: 0x0, symName: __ZNKSt3__117basic_string_viewIcNS_11char_traitsIcEEE4sizeB8ne180100Ev, symObjAddr: 0x233DC, symBinAddr: 0x100024818, symSize: 0x18 }
  - { offsetInCU: 0x57B3F, offset: 0x57B3F, size: 0x8, addend: 0x0, symName: __ZNSt3__111char_traitsIcE7compareB8ne180100EPKcS3_m, symObjAddr: 0x233F4, symBinAddr: 0x100024830, symSize: 0x34 }
  - { offsetInCU: 0x57B7E, offset: 0x57B7E, size: 0x8, addend: 0x0, symName: __ZNKSt3__117basic_string_viewIcNS_11char_traitsIcEEE4dataB8ne180100Ev, symObjAddr: 0x23428, symBinAddr: 0x100024864, symSize: 0x18 }
  - { offsetInCU: 0x57BA4, offset: 0x57BA4, size: 0x8, addend: 0x0, symName: __ZNSt3__117basic_string_viewIcNS_11char_traitsIcEEEC1B8ne180100EPKcm, symObjAddr: 0x23440, symBinAddr: 0x10002487C, symSize: 0x3C }
  - { offsetInCU: 0x57BEC, offset: 0x57BEC, size: 0x8, addend: 0x0, symName: __ZNSt3__117basic_string_viewIcNS_11char_traitsIcEEEC2B8ne180100EPKcm, symObjAddr: 0x2347C, symBinAddr: 0x1000248B8, symSize: 0x2C }
  - { offsetInCU: 0x57C34, offset: 0x57C34, size: 0x8, addend: 0x0, symName: __ZNSt3__117__compressed_pairINS_15__tree_end_nodeIPNS_16__tree_node_baseIPvEEEENS_9allocatorINS_11__tree_nodeINS_12__value_typeINS_12basic_stringIcNS_11char_traitsIcEENS7_IcEEEEiEES3_EEEEE5firstB8ne180100Ev, symObjAddr: 0x234E0, symBinAddr: 0x10002491C, symSize: 0x24 }
  - { offsetInCU: 0x57C5A, offset: 0x57C5A, size: 0x8, addend: 0x0, symName: __ZNSt3__16__treeINS_12__value_typeINS_12basic_stringIcNS_11char_traitsIcEENS_9allocatorIcEEEEiEENS_19__map_value_compareIS7_S8_NS_4lessIS7_EELb1EEENS5_IS8_EEE12__node_allocB8ne180100Ev, symObjAddr: 0x23504, symBinAddr: 0x100024940, symSize: 0x28 }
  - { offsetInCU: 0x57C80, offset: 0x57C80, size: 0x8, addend: 0x0, symName: __ZNSt3__116allocator_traitsINS_9allocatorINS_11__tree_nodeINS_12__value_typeINS_12basic_stringIcNS_11char_traitsIcEENS1_IcEEEEiEEPvEEEEE8allocateB8ne180100ERSC_m, symObjAddr: 0x2352C, symBinAddr: 0x100024968, symSize: 0x2C }
  - { offsetInCU: 0x57CB3, offset: 0x57CB3, size: 0x8, addend: 0x0, symName: __ZNSt3__122__tree_node_destructorINS_9allocatorINS_11__tree_nodeINS_12__value_typeINS_12basic_stringIcNS_11char_traitsIcEENS1_IcEEEEiEEPvEEEEEC1B8ne180100ERSC_b, symObjAddr: 0x23558, symBinAddr: 0x100024994, symSize: 0x48 }
  - { offsetInCU: 0x57D01, offset: 0x57D01, size: 0x8, addend: 0x0, symName: __ZNSt3__110unique_ptrINS_11__tree_nodeINS_12__value_typeINS_12basic_stringIcNS_11char_traitsIcEENS_9allocatorIcEEEEiEEPvEENS_22__tree_node_destructorINS6_ISB_EEEEEC1B8ne180100ILb1EvEEPSB_NS_16__dependent_typeINS_27__unique_ptr_deleter_sfinaeISE_EEXT_EE20__good_rval_ref_typeE, symObjAddr: 0x235A0, symBinAddr: 0x1000249DC, symSize: 0x3C }
  - { offsetInCU: 0x57D52, offset: 0x57D52, size: 0x8, addend: 0x0, symName: __ZNSt3__116allocator_traitsINS_9allocatorINS_11__tree_nodeINS_12__value_typeINS_12basic_stringIcNS_11char_traitsIcEENS1_IcEEEEiEEPvEEEEE9constructB8ne180100INS_4pairIKS8_iEEJNSF_IS8_iEEEvEEvRSC_PT_DpOT0_, symObjAddr: 0x235DC, symBinAddr: 0x100024A18, symSize: 0x34 }
  - { offsetInCU: 0x57DA9, offset: 0x57DA9, size: 0x8, addend: 0x0, symName: __ZNSt3__122__tree_key_value_typesINS_12__value_typeINS_12basic_stringIcNS_11char_traitsIcEENS_9allocatorIcEEEEiEEE9__get_ptrB8ne180100ERS8_, symObjAddr: 0x23610, symBinAddr: 0x100024A4C, symSize: 0x24 }
  - { offsetInCU: 0x57DCD, offset: 0x57DCD, size: 0x8, addend: 0x0, symName: __ZNKSt3__110unique_ptrINS_11__tree_nodeINS_12__value_typeINS_12basic_stringIcNS_11char_traitsIcEENS_9allocatorIcEEEEiEEPvEENS_22__tree_node_destructorINS6_ISB_EEEEEptB8ne180100Ev, symObjAddr: 0x23634, symBinAddr: 0x100024A70, symSize: 0x28 }
  - { offsetInCU: 0x57DF3, offset: 0x57DF3, size: 0x8, addend: 0x0, symName: __ZNSt3__110unique_ptrINS_11__tree_nodeINS_12__value_typeINS_12basic_stringIcNS_11char_traitsIcEENS_9allocatorIcEEEEiEEPvEENS_22__tree_node_destructorINS6_ISB_EEEEE11get_deleterB8ne180100Ev, symObjAddr: 0x2365C, symBinAddr: 0x100024A98, symSize: 0x24 }
  - { offsetInCU: 0x57E19, offset: 0x57E19, size: 0x8, addend: 0x0, symName: __ZNSt3__117__compressed_pairINS_15__tree_end_nodeIPNS_16__tree_node_baseIPvEEEENS_9allocatorINS_11__tree_nodeINS_12__value_typeINS_12basic_stringIcNS_11char_traitsIcEENS7_IcEEEEiEES3_EEEEE6secondB8ne180100Ev, symObjAddr: 0x23680, symBinAddr: 0x100024ABC, symSize: 0x24 }
  - { offsetInCU: 0x57E3F, offset: 0x57E3F, size: 0x8, addend: 0x0, symName: __ZNSt3__122__compressed_pair_elemINS_9allocatorINS_11__tree_nodeINS_12__value_typeINS_12basic_stringIcNS_11char_traitsIcEENS1_IcEEEEiEEPvEEEELi1ELb1EE5__getB8ne180100Ev, symObjAddr: 0x236A4, symBinAddr: 0x100024AE0, symSize: 0x14 }
  - { offsetInCU: 0x57E65, offset: 0x57E65, size: 0x8, addend: 0x0, symName: __ZNSt3__19allocatorINS_11__tree_nodeINS_12__value_typeINS_12basic_stringIcNS_11char_traitsIcEENS0_IcEEEEiEEPvEEE8allocateB8ne180100Em, symObjAddr: 0x236B8, symBinAddr: 0x100024AF4, symSize: 0x58 }
  - { offsetInCU: 0x57EA4, offset: 0x57EA4, size: 0x8, addend: 0x0, symName: __ZNSt3__116allocator_traitsINS_9allocatorINS_11__tree_nodeINS_12__value_typeINS_12basic_stringIcNS_11char_traitsIcEENS1_IcEEEEiEEPvEEEEE8max_sizeB8ne180100ISC_vEEmRKSC_, symObjAddr: 0x23710, symBinAddr: 0x100024B4C, symSize: 0x24 }
  - { offsetInCU: 0x57ED2, offset: 0x57ED2, size: 0x8, addend: 0x0, symName: __ZNKSt3__19allocatorINS_11__tree_nodeINS_12__value_typeINS_12basic_stringIcNS_11char_traitsIcEENS0_IcEEEEiEEPvEEE8max_sizeB8ne180100Ev, symObjAddr: 0x23734, symBinAddr: 0x100024B70, symSize: 0x14 }
  - { offsetInCU: 0x57EF8, offset: 0x57EF8, size: 0x8, addend: 0x0, symName: __ZNSt3__122__tree_node_destructorINS_9allocatorINS_11__tree_nodeINS_12__value_typeINS_12basic_stringIcNS_11char_traitsIcEENS1_IcEEEEiEEPvEEEEEC2B8ne180100ERSC_b, symObjAddr: 0x23748, symBinAddr: 0x100024B84, symSize: 0x38 }
  - { offsetInCU: 0x57F40, offset: 0x57F40, size: 0x8, addend: 0x0, symName: __ZNSt3__110unique_ptrINS_11__tree_nodeINS_12__value_typeINS_12basic_stringIcNS_11char_traitsIcEENS_9allocatorIcEEEEiEEPvEENS_22__tree_node_destructorINS6_ISB_EEEEEC2B8ne180100ILb1EvEEPSB_NS_16__dependent_typeINS_27__unique_ptr_deleter_sfinaeISE_EEXT_EE20__good_rval_ref_typeE, symObjAddr: 0x23780, symBinAddr: 0x100024BBC, symSize: 0x48 }
  - { offsetInCU: 0x57F91, offset: 0x57F91, size: 0x8, addend: 0x0, symName: __ZNSt3__117__compressed_pairIPNS_11__tree_nodeINS_12__value_typeINS_12basic_stringIcNS_11char_traitsIcEENS_9allocatorIcEEEEiEEPvEENS_22__tree_node_destructorINS6_ISB_EEEEEC1B8ne180100IRSC_SF_EEOT_OT0_, symObjAddr: 0x237C8, symBinAddr: 0x100024C04, symSize: 0x3C }
  - { offsetInCU: 0x57FE9, offset: 0x57FE9, size: 0x8, addend: 0x0, symName: __ZNSt3__117__compressed_pairIPNS_11__tree_nodeINS_12__value_typeINS_12basic_stringIcNS_11char_traitsIcEENS_9allocatorIcEEEEiEEPvEENS_22__tree_node_destructorINS6_ISB_EEEEEC2B8ne180100IRSC_SF_EEOT_OT0_, symObjAddr: 0x23804, symBinAddr: 0x100024C40, symSize: 0x48 }
  - { offsetInCU: 0x58041, offset: 0x58041, size: 0x8, addend: 0x0, symName: __ZNSt3__122__compressed_pair_elemIPNS_11__tree_nodeINS_12__value_typeINS_12basic_stringIcNS_11char_traitsIcEENS_9allocatorIcEEEEiEEPvEELi0ELb0EEC2B8ne180100IRSC_vEEOT_, symObjAddr: 0x2384C, symBinAddr: 0x100024C88, symSize: 0x24 }
  - { offsetInCU: 0x58083, offset: 0x58083, size: 0x8, addend: 0x0, symName: __ZNSt3__122__compressed_pair_elemINS_22__tree_node_destructorINS_9allocatorINS_11__tree_nodeINS_12__value_typeINS_12basic_stringIcNS_11char_traitsIcEENS2_IcEEEEiEEPvEEEEEELi1ELb0EEC2B8ne180100ISE_vEEOT_, symObjAddr: 0x23870, symBinAddr: 0x100024CAC, symSize: 0x24 }
  - { offsetInCU: 0x580C5, offset: 0x580C5, size: 0x8, addend: 0x0, symName: __ZNSt3__19allocatorINS_11__tree_nodeINS_12__value_typeINS_12basic_stringIcNS_11char_traitsIcEENS0_IcEEEEiEEPvEEE9constructB8ne180100INS_4pairIKS7_iEEJNSD_IS7_iEEEEEvPT_DpOT0_, symObjAddr: 0x23894, symBinAddr: 0x100024CD0, symSize: 0x30 }
  - { offsetInCU: 0x5811B, offset: 0x5811B, size: 0x8, addend: 0x0, symName: __ZNSt3__14pairIKNS_12basic_stringIcNS_11char_traitsIcEENS_9allocatorIcEEEEiEC1B8ne180100IS6_iLi0EEEONS0_IT_T0_EE, symObjAddr: 0x238C4, symBinAddr: 0x100024D00, symSize: 0x34 }
  - { offsetInCU: 0x5816B, offset: 0x5816B, size: 0x8, addend: 0x0, symName: __ZNSt3__14pairIKNS_12basic_stringIcNS_11char_traitsIcEENS_9allocatorIcEEEEiEC2B8ne180100IS6_iLi0EEEONS0_IT_T0_EE, symObjAddr: 0x238F8, symBinAddr: 0x100024D34, symSize: 0x40 }
  - { offsetInCU: 0x581BB, offset: 0x581BB, size: 0x8, addend: 0x0, symName: __ZNSt3__112__value_typeINS_12basic_stringIcNS_11char_traitsIcEENS_9allocatorIcEEEEiE11__get_valueB8ne180100Ev, symObjAddr: 0x23938, symBinAddr: 0x100024D74, symSize: 0x24 }
  - { offsetInCU: 0x581E1, offset: 0x581E1, size: 0x8, addend: 0x0, symName: __ZNKSt3__117__compressed_pairIPNS_11__tree_nodeINS_12__value_typeINS_12basic_stringIcNS_11char_traitsIcEENS_9allocatorIcEEEEiEEPvEENS_22__tree_node_destructorINS6_ISB_EEEEE5firstB8ne180100Ev, symObjAddr: 0x23994, symBinAddr: 0x100024DD0, symSize: 0x24 }
  - { offsetInCU: 0x58207, offset: 0x58207, size: 0x8, addend: 0x0, symName: __ZNKSt3__122__compressed_pair_elemIPNS_11__tree_nodeINS_12__value_typeINS_12basic_stringIcNS_11char_traitsIcEENS_9allocatorIcEEEEiEEPvEELi0ELb0EE5__getB8ne180100Ev, symObjAddr: 0x239B8, symBinAddr: 0x100024DF4, symSize: 0x14 }
  - { offsetInCU: 0x5822D, offset: 0x5822D, size: 0x8, addend: 0x0, symName: __ZNSt3__117__compressed_pairIPNS_11__tree_nodeINS_12__value_typeINS_12basic_stringIcNS_11char_traitsIcEENS_9allocatorIcEEEEiEEPvEENS_22__tree_node_destructorINS6_ISB_EEEEE6secondB8ne180100Ev, symObjAddr: 0x239CC, symBinAddr: 0x100024E08, symSize: 0x28 }
  - { offsetInCU: 0x58253, offset: 0x58253, size: 0x8, addend: 0x0, symName: __ZNSt3__122__compressed_pair_elemINS_22__tree_node_destructorINS_9allocatorINS_11__tree_nodeINS_12__value_typeINS_12basic_stringIcNS_11char_traitsIcEENS2_IcEEEEiEEPvEEEEEELi1ELb0EE5__getB8ne180100Ev, symObjAddr: 0x239F4, symBinAddr: 0x100024E30, symSize: 0x14 }
  - { offsetInCU: 0x58279, offset: 0x58279, size: 0x8, addend: 0x0, symName: __ZNSt3__16__treeINS_12__value_typeINS_12basic_stringIcNS_11char_traitsIcEENS_9allocatorIcEEEEiEENS_19__map_value_compareIS7_S8_NS_4lessIS7_EELb1EEENS5_IS8_EEE12__begin_nodeB8ne180100Ev, symObjAddr: 0x23A08, symBinAddr: 0x100024E44, symSize: 0x14 }
  - { offsetInCU: 0x5829F, offset: 0x5829F, size: 0x8, addend: 0x0, symName: __ZNSt3__16__treeINS_12__value_typeINS_12basic_stringIcNS_11char_traitsIcEENS_9allocatorIcEEEEiEENS_19__map_value_compareIS7_S8_NS_4lessIS7_EELb1EEENS5_IS8_EEE4sizeB8ne180100Ev, symObjAddr: 0x23D48, symBinAddr: 0x100025184, symSize: 0x28 }
  - { offsetInCU: 0x582C5, offset: 0x582C5, size: 0x8, addend: 0x0, symName: __ZNKSt3__116__tree_node_baseIPvE15__parent_unsafeB8ne180100Ev, symObjAddr: 0x23D70, symBinAddr: 0x1000251AC, symSize: 0x18 }
  - { offsetInCU: 0x582EB, offset: 0x582EB, size: 0x8, addend: 0x0, symName: __ZNSt3__116__tree_node_baseIPvE12__set_parentB8ne180100EPS2_, symObjAddr: 0x23F58, symBinAddr: 0x100025394, symSize: 0x20 }
  - { offsetInCU: 0x58320, offset: 0x58320, size: 0x8, addend: 0x0, symName: __ZNSt3__117__compressed_pairImNS_19__map_value_compareINS_12basic_stringIcNS_11char_traitsIcEENS_9allocatorIcEEEENS_12__value_typeIS7_iEENS_4lessIS7_EELb1EEEE5firstB8ne180100Ev, symObjAddr: 0x23F78, symBinAddr: 0x1000253B4, symSize: 0x24 }
  - { offsetInCU: 0x58346, offset: 0x58346, size: 0x8, addend: 0x0, symName: __ZNSt3__117__compressed_pairIPNS_11__tree_nodeINS_12__value_typeINS_12basic_stringIcNS_11char_traitsIcEENS_9allocatorIcEEEEiEEPvEENS_22__tree_node_destructorINS6_ISB_EEEEE5firstB8ne180100Ev, symObjAddr: 0x23F9C, symBinAddr: 0x1000253D8, symSize: 0x24 }
  - { offsetInCU: 0x5836C, offset: 0x5836C, size: 0x8, addend: 0x0, symName: __ZNSt3__122__compressed_pair_elemIPNS_11__tree_nodeINS_12__value_typeINS_12basic_stringIcNS_11char_traitsIcEENS_9allocatorIcEEEEiEEPvEELi0ELb0EE5__getB8ne180100Ev, symObjAddr: 0x23FC0, symBinAddr: 0x1000253FC, symSize: 0x14 }
  - { offsetInCU: 0x58392, offset: 0x58392, size: 0x8, addend: 0x0, symName: __ZNSt3__110unique_ptrINS_11__tree_nodeINS_12__value_typeINS_12basic_stringIcNS_11char_traitsIcEENS_9allocatorIcEEEEiEEPvEENS_22__tree_node_destructorINS6_ISB_EEEEED2B8ne180100Ev, symObjAddr: 0x23FD4, symBinAddr: 0x100025410, symSize: 0x30 }
  - { offsetInCU: 0x583BC, offset: 0x583BC, size: 0x8, addend: 0x0, symName: __ZNSt3__110unique_ptrINS_11__tree_nodeINS_12__value_typeINS_12basic_stringIcNS_11char_traitsIcEENS_9allocatorIcEEEEiEEPvEENS_22__tree_node_destructorINS6_ISB_EEEEE5resetB8ne180100EPSB_, symObjAddr: 0x24004, symBinAddr: 0x100025440, symSize: 0x78 }
  - { offsetInCU: 0x58400, offset: 0x58400, size: 0x8, addend: 0x0, symName: __ZNSt3__122__tree_node_destructorINS_9allocatorINS_11__tree_nodeINS_12__value_typeINS_12basic_stringIcNS_11char_traitsIcEENS1_IcEEEEiEEPvEEEEEclB8ne180100EPSB_, symObjAddr: 0x2407C, symBinAddr: 0x1000254B8, symSize: 0x98 }
  - { offsetInCU: 0x58435, offset: 0x58435, size: 0x8, addend: 0x0, symName: __ZNSt3__116allocator_traitsINS_9allocatorINS_11__tree_nodeINS_12__value_typeINS_12basic_stringIcNS_11char_traitsIcEENS1_IcEEEEiEEPvEEEEE7destroyB8ne180100INS_4pairIKS8_iEEvvEEvRSC_PT_, symObjAddr: 0x24114, symBinAddr: 0x100025550, symSize: 0x28 }
  - { offsetInCU: 0x58470, offset: 0x58470, size: 0x8, addend: 0x0, symName: __ZNSt3__116allocator_traitsINS_9allocatorINS_11__tree_nodeINS_12__value_typeINS_12basic_stringIcNS_11char_traitsIcEENS1_IcEEEEiEEPvEEEEE10deallocateB8ne180100ERSC_PSB_m, symObjAddr: 0x2413C, symBinAddr: 0x100025578, symSize: 0x34 }
  - { offsetInCU: 0x584B2, offset: 0x584B2, size: 0x8, addend: 0x0, symName: __ZNSt3__14pairIKNS_12basic_stringIcNS_11char_traitsIcEENS_9allocatorIcEEEEiED1Ev, symObjAddr: 0x24194, symBinAddr: 0x1000255D0, symSize: 0x2C }
  - { offsetInCU: 0x584DE, offset: 0x584DE, size: 0x8, addend: 0x0, symName: __ZNSt3__14pairIKNS_12basic_stringIcNS_11char_traitsIcEENS_9allocatorIcEEEEiED2Ev, symObjAddr: 0x241C0, symBinAddr: 0x1000255FC, symSize: 0x2C }
  - { offsetInCU: 0x5850A, offset: 0x5850A, size: 0x8, addend: 0x0, symName: __ZNSt3__19allocatorINS_11__tree_nodeINS_12__value_typeINS_12basic_stringIcNS_11char_traitsIcEENS0_IcEEEEiEEPvEEE10deallocateB8ne180100EPSA_m, symObjAddr: 0x241EC, symBinAddr: 0x100025628, symSize: 0x40 }
  - { offsetInCU: 0x5854C, offset: 0x5854C, size: 0x8, addend: 0x0, symName: __ZNSt3__115__tree_iteratorINS_12__value_typeINS_12basic_stringIcNS_11char_traitsIcEENS_9allocatorIcEEEEiEEPNS_11__tree_nodeIS8_PvEElEC2B8ne180100ESC_, symObjAddr: 0x2422C, symBinAddr: 0x100025668, symSize: 0x20 }
  - { offsetInCU: 0x58585, offset: 0x58585, size: 0x8, addend: 0x0, symName: __ZNSt3__14pairINS_15__tree_iteratorINS_12__value_typeINS_12basic_stringIcNS_11char_traitsIcEENS_9allocatorIcEEEEiEEPNS_11__tree_nodeIS9_PvEElEEbEC2B8ne180100ISE_RbLi0EEEOT_OT0_, symObjAddr: 0x2424C, symBinAddr: 0x100025688, symSize: 0x38 }
  - { offsetInCU: 0x585E3, offset: 0x585E3, size: 0x8, addend: 0x0, symName: __ZNSt3__14pairINS_14__map_iteratorINS_15__tree_iteratorINS_12__value_typeINS_12basic_stringIcNS_11char_traitsIcEENS_9allocatorIcEEEEiEEPNS_11__tree_nodeISA_PvEElEEEEbEC2B8ne180100ISF_bLi0EEEONS0_IT_T0_EE, symObjAddr: 0x24284, symBinAddr: 0x1000256C0, symSize: 0x50 }
  - { offsetInCU: 0x58633, offset: 0x58633, size: 0x8, addend: 0x0, symName: __ZNSt3__114__map_iteratorINS_15__tree_iteratorINS_12__value_typeINS_12basic_stringIcNS_11char_traitsIcEENS_9allocatorIcEEEEiEEPNS_11__tree_nodeIS9_PvEElEEEC1B8ne180100ESE_, symObjAddr: 0x242D4, symBinAddr: 0x100025710, symSize: 0x34 }
  - { offsetInCU: 0x5866C, offset: 0x5866C, size: 0x8, addend: 0x0, symName: __ZNSt3__114__map_iteratorINS_15__tree_iteratorINS_12__value_typeINS_12basic_stringIcNS_11char_traitsIcEENS_9allocatorIcEEEEiEEPNS_11__tree_nodeIS9_PvEElEEEC2B8ne180100ESE_, symObjAddr: 0x24308, symBinAddr: 0x100025744, symSize: 0x20 }
  - { offsetInCU: 0x586A5, offset: 0x586A5, size: 0x8, addend: 0x0, symName: __ZNSt3__16vectorIN7tinyobj10material_tENS_9allocatorIS2_EEE9__end_capB8ne180100Ev, symObjAddr: 0x24328, symBinAddr: 0x100025764, symSize: 0x28 }
  - { offsetInCU: 0x586CB, offset: 0x586CB, size: 0x8, addend: 0x0, symName: __ZNSt3__16vectorIN7tinyobj10material_tENS_9allocatorIS2_EEE22__construct_one_at_endB8ne180100IJRKS2_EEEvDpOT_, symObjAddr: 0x24350, symBinAddr: 0x10002578C, symSize: 0x90 }
  - { offsetInCU: 0x5871A, offset: 0x5871A, size: 0x8, addend: 0x0, symName: __ZNSt3__16vectorIN7tinyobj10material_tENS_9allocatorIS2_EEE21__push_back_slow_pathIRKS2_EEPS2_OT_, symObjAddr: 0x243E0, symBinAddr: 0x10002581C, symSize: 0xE8 }
  - { offsetInCU: 0x58778, offset: 0x58778, size: 0x8, addend: 0x0, symName: __ZNSt3__117__compressed_pairIPN7tinyobj10material_tENS_9allocatorIS2_EEE5firstB8ne180100Ev, symObjAddr: 0x244C8, symBinAddr: 0x100025904, symSize: 0x24 }
  - { offsetInCU: 0x5879E, offset: 0x5879E, size: 0x8, addend: 0x0, symName: __ZNSt3__122__compressed_pair_elemIPN7tinyobj10material_tELi0ELb0EE5__getB8ne180100Ev, symObjAddr: 0x244EC, symBinAddr: 0x100025928, symSize: 0x14 }
  - { offsetInCU: 0x587DF, offset: 0x587DF, size: 0x8, addend: 0x0, symName: __ZNSt3__16vectorIN7tinyobj10material_tENS_9allocatorIS2_EEE21_ConstructTransactionC1B8ne180100ERS5_m, symObjAddr: 0x24500, symBinAddr: 0x10002593C, symSize: 0x3C }
  - { offsetInCU: 0x58827, offset: 0x58827, size: 0x8, addend: 0x0, symName: __ZNSt3__116allocator_traitsINS_9allocatorIN7tinyobj10material_tEEEE9constructB8ne180100IS3_JRKS3_EvEEvRS4_PT_DpOT0_, symObjAddr: 0x2453C, symBinAddr: 0x100025978, symSize: 0x34 }
  - { offsetInCU: 0x5887E, offset: 0x5887E, size: 0x8, addend: 0x0, symName: __ZNSt3__16vectorIN7tinyobj10material_tENS_9allocatorIS2_EEE21_ConstructTransactionD1B8ne180100Ev, symObjAddr: 0x24570, symBinAddr: 0x1000259AC, symSize: 0x2C }
  - { offsetInCU: 0x588A8, offset: 0x588A8, size: 0x8, addend: 0x0, symName: __ZNSt3__16vectorIN7tinyobj10material_tENS_9allocatorIS2_EEE21_ConstructTransactionC2B8ne180100ERS5_m, symObjAddr: 0x2459C, symBinAddr: 0x1000259D8, symSize: 0x4C }
  - { offsetInCU: 0x588F0, offset: 0x588F0, size: 0x8, addend: 0x0, symName: __ZNSt3__19allocatorIN7tinyobj10material_tEE9constructB8ne180100IS2_JRKS2_EEEvPT_DpOT0_, symObjAddr: 0x245E8, symBinAddr: 0x100025A24, symSize: 0x30 }
  - { offsetInCU: 0x58946, offset: 0x58946, size: 0x8, addend: 0x0, symName: __ZN7tinyobj10material_tC1ERKS0_, symObjAddr: 0x24618, symBinAddr: 0x100025A54, symSize: 0x34 }
  - { offsetInCU: 0x5897B, offset: 0x5897B, size: 0x8, addend: 0x0, symName: __ZN7tinyobj10material_tC2ERKS0_, symObjAddr: 0x2464C, symBinAddr: 0x100025A88, symSize: 0x674 }
  - { offsetInCU: 0x589BB, offset: 0x589BB, size: 0x8, addend: 0x0, symName: __ZN7tinyobj16texture_option_tC1ERKS0_, symObjAddr: 0x24CC0, symBinAddr: 0x1000260FC, symSize: 0x34 }
  - { offsetInCU: 0x589F0, offset: 0x589F0, size: 0x8, addend: 0x0, symName: __ZNSt3__13mapINS_12basic_stringIcNS_11char_traitsIcEENS_9allocatorIcEEEES6_NS_4lessIS6_EENS4_INS_4pairIKS6_S6_EEEEEC1B8ne180100ERKSD_, symObjAddr: 0x24CF4, symBinAddr: 0x100026130, symSize: 0x34 }
  - { offsetInCU: 0x58A29, offset: 0x58A29, size: 0x8, addend: 0x0, symName: __ZN7tinyobj16texture_option_tC2ERKS0_, symObjAddr: 0x24D28, symBinAddr: 0x100026164, symSize: 0x4C }
  - { offsetInCU: 0x58A5E, offset: 0x58A5E, size: 0x8, addend: 0x0, symName: __ZNSt3__13mapINS_12basic_stringIcNS_11char_traitsIcEENS_9allocatorIcEEEES6_NS_4lessIS6_EENS4_INS_4pairIKS6_S6_EEEEEC2B8ne180100ERKSD_, symObjAddr: 0x24D74, symBinAddr: 0x1000261B0, symSize: 0x88 }
  - { offsetInCU: 0x58A97, offset: 0x58A97, size: 0x8, addend: 0x0, symName: __ZNSt3__16__treeINS_12__value_typeINS_12basic_stringIcNS_11char_traitsIcEENS_9allocatorIcEEEES7_EENS_19__map_value_compareIS7_S8_NS_4lessIS7_EELb1EEENS5_IS8_EEEC1ERKSE_, symObjAddr: 0x24DFC, symBinAddr: 0x100026238, symSize: 0x34 }
  - { offsetInCU: 0x58AD2, offset: 0x58AD2, size: 0x8, addend: 0x0, symName: __ZNSt3__13mapINS_12basic_stringIcNS_11char_traitsIcEENS_9allocatorIcEEEES6_NS_4lessIS6_EENS4_INS_4pairIKS6_S6_EEEEE6insertB8ne180100INS_20__map_const_iteratorINS_21__tree_const_iteratorINS_12__value_typeIS6_S6_EEPNS_11__tree_nodeISI_PvEElEEEEEEvT_SP_, symObjAddr: 0x24E30, symBinAddr: 0x10002626C, symSize: 0x8C }
  - { offsetInCU: 0x58B3C, offset: 0x58B3C, size: 0x8, addend: 0x0, symName: __ZNKSt3__13mapINS_12basic_stringIcNS_11char_traitsIcEENS_9allocatorIcEEEES6_NS_4lessIS6_EENS4_INS_4pairIKS6_S6_EEEEE5beginB8ne180100Ev, symObjAddr: 0x24EBC, symBinAddr: 0x1000262F8, symSize: 0x38 }
  - { offsetInCU: 0x58B62, offset: 0x58B62, size: 0x8, addend: 0x0, symName: __ZNKSt3__13mapINS_12basic_stringIcNS_11char_traitsIcEENS_9allocatorIcEEEES6_NS_4lessIS6_EENS4_INS_4pairIKS6_S6_EEEEE3endB8ne180100Ev, symObjAddr: 0x24EF4, symBinAddr: 0x100026330, symSize: 0x38 }
  - { offsetInCU: 0x58B88, offset: 0x58B88, size: 0x8, addend: 0x0, symName: __ZNSt3__16__treeINS_12__value_typeINS_12basic_stringIcNS_11char_traitsIcEENS_9allocatorIcEEEES7_EENS_19__map_value_compareIS7_S8_NS_4lessIS7_EELb1EEENS5_IS8_EEEC2ERKSE_, symObjAddr: 0x24F2C, symBinAddr: 0x100026368, symSize: 0x9C }
  - { offsetInCU: 0x58BCE, offset: 0x58BCE, size: 0x8, addend: 0x0, symName: __ZNSt3__116allocator_traitsINS_9allocatorINS_11__tree_nodeINS_12__value_typeINS_12basic_stringIcNS_11char_traitsIcEENS1_IcEEEES8_EEPvEEEEE37select_on_container_copy_constructionB8ne180100ISC_vvEESC_RKSC_, symObjAddr: 0x24FC8, symBinAddr: 0x100026404, symSize: 0x10 }
  - { offsetInCU: 0x58BFD, offset: 0x58BFD, size: 0x8, addend: 0x0, symName: __ZNKSt3__16__treeINS_12__value_typeINS_12basic_stringIcNS_11char_traitsIcEENS_9allocatorIcEEEES7_EENS_19__map_value_compareIS7_S8_NS_4lessIS7_EELb1EEENS5_IS8_EEE12__node_allocB8ne180100Ev, symObjAddr: 0x24FD8, symBinAddr: 0x100026414, symSize: 0x28 }
  - { offsetInCU: 0x58C29, offset: 0x58C29, size: 0x8, addend: 0x0, symName: __ZNSt3__117__compressed_pairINS_15__tree_end_nodeIPNS_16__tree_node_baseIPvEEEENS_9allocatorINS_11__tree_nodeINS_12__value_typeINS_12basic_stringIcNS_11char_traitsIcEENS7_IcEEEESE_EES3_EEEEEC1B8ne180100INS_18__default_init_tagESH_EEOT_OT0_, symObjAddr: 0x25000, symBinAddr: 0x10002643C, symSize: 0x3C }
  - { offsetInCU: 0x58C81, offset: 0x58C81, size: 0x8, addend: 0x0, symName: __ZNKSt3__16__treeINS_12__value_typeINS_12basic_stringIcNS_11char_traitsIcEENS_9allocatorIcEEEES7_EENS_19__map_value_compareIS7_S8_NS_4lessIS7_EELb1EEENS5_IS8_EEE10value_compB8ne180100Ev, symObjAddr: 0x2503C, symBinAddr: 0x100026478, symSize: 0x28 }
  - { offsetInCU: 0x58CA7, offset: 0x58CA7, size: 0x8, addend: 0x0, symName: __ZNKSt3__117__compressed_pairINS_15__tree_end_nodeIPNS_16__tree_node_baseIPvEEEENS_9allocatorINS_11__tree_nodeINS_12__value_typeINS_12basic_stringIcNS_11char_traitsIcEENS7_IcEEEESE_EES3_EEEEE6secondB8ne180100Ev, symObjAddr: 0x25064, symBinAddr: 0x1000264A0, symSize: 0x24 }
  - { offsetInCU: 0x58CCD, offset: 0x58CCD, size: 0x8, addend: 0x0, symName: __ZNKSt3__122__compressed_pair_elemINS_9allocatorINS_11__tree_nodeINS_12__value_typeINS_12basic_stringIcNS_11char_traitsIcEENS1_IcEEEES8_EEPvEEEELi1ELb1EE5__getB8ne180100Ev, symObjAddr: 0x25088, symBinAddr: 0x1000264C4, symSize: 0x14 }
  - { offsetInCU: 0x58CF3, offset: 0x58CF3, size: 0x8, addend: 0x0, symName: __ZNSt3__117__compressed_pairINS_15__tree_end_nodeIPNS_16__tree_node_baseIPvEEEENS_9allocatorINS_11__tree_nodeINS_12__value_typeINS_12basic_stringIcNS_11char_traitsIcEENS7_IcEEEESE_EES3_EEEEEC2B8ne180100INS_18__default_init_tagESH_EEOT_OT0_, symObjAddr: 0x2509C, symBinAddr: 0x1000264D8, symSize: 0x40 }
  - { offsetInCU: 0x58D4B, offset: 0x58D4B, size: 0x8, addend: 0x0, symName: __ZNSt3__122__compressed_pair_elemINS_15__tree_end_nodeIPNS_16__tree_node_baseIPvEEEELi0ELb0EEC2B8ne180100ENS_18__default_init_tagE, symObjAddr: 0x250DC, symBinAddr: 0x100026518, symSize: 0x2C }
  - { offsetInCU: 0x58D80, offset: 0x58D80, size: 0x8, addend: 0x0, symName: __ZNSt3__122__compressed_pair_elemINS_9allocatorINS_11__tree_nodeINS_12__value_typeINS_12basic_stringIcNS_11char_traitsIcEENS1_IcEEEES8_EEPvEEEELi1ELb1EEC2B8ne180100ISC_vEEOT_, symObjAddr: 0x25108, symBinAddr: 0x100026544, symSize: 0x18 }
  - { offsetInCU: 0x58DC2, offset: 0x58DC2, size: 0x8, addend: 0x0, symName: __ZNKSt3__117__compressed_pairImNS_19__map_value_compareINS_12basic_stringIcNS_11char_traitsIcEENS_9allocatorIcEEEENS_12__value_typeIS7_S7_EENS_4lessIS7_EELb1EEEE6secondB8ne180100Ev, symObjAddr: 0x25120, symBinAddr: 0x10002655C, symSize: 0x24 }
  - { offsetInCU: 0x58DE8, offset: 0x58DE8, size: 0x8, addend: 0x0, symName: __ZNKSt3__122__compressed_pair_elemINS_19__map_value_compareINS_12basic_stringIcNS_11char_traitsIcEENS_9allocatorIcEEEENS_12__value_typeIS7_S7_EENS_4lessIS7_EELb1EEELi1ELb1EE5__getB8ne180100Ev, symObjAddr: 0x25144, symBinAddr: 0x100026580, symSize: 0x14 }
  - { offsetInCU: 0x58E0E, offset: 0x58E0E, size: 0x8, addend: 0x0, symName: __ZNKSt3__13mapINS_12basic_stringIcNS_11char_traitsIcEENS_9allocatorIcEEEES6_NS_4lessIS6_EENS4_INS_4pairIKS6_S6_EEEEE4cendB8ne180100Ev, symObjAddr: 0x25158, symBinAddr: 0x100026594, symSize: 0x2C }
  - { offsetInCU: 0x58E34, offset: 0x58E34, size: 0x8, addend: 0x0, symName: __ZNSt3__13mapINS_12basic_stringIcNS_11char_traitsIcEENS_9allocatorIcEEEES6_NS_4lessIS6_EENS4_INS_4pairIKS6_S6_EEEEE6insertB8ne180100ENS_20__map_const_iteratorINS_21__tree_const_iteratorINS_12__value_typeIS6_S6_EEPNS_11__tree_nodeISH_PvEElEEEERKSB_, symObjAddr: 0x251B4, symBinAddr: 0x1000265F0, symSize: 0x50 }
  - { offsetInCU: 0x58E78, offset: 0x58E78, size: 0x8, addend: 0x0, symName: __ZNSt3__120__map_const_iteratorINS_21__tree_const_iteratorINS_12__value_typeINS_12basic_stringIcNS_11char_traitsIcEENS_9allocatorIcEEEES8_EEPNS_11__tree_nodeIS9_PvEElEEEC1B8ne180100ESE_, symObjAddr: 0x25204, symBinAddr: 0x100026640, symSize: 0x34 }
  - { offsetInCU: 0x58EB1, offset: 0x58EB1, size: 0x8, addend: 0x0, symName: __ZNKSt3__120__map_const_iteratorINS_21__tree_const_iteratorINS_12__value_typeINS_12basic_stringIcNS_11char_traitsIcEENS_9allocatorIcEEEES8_EEPNS_11__tree_nodeIS9_PvEElEEEdeB8ne180100Ev, symObjAddr: 0x25238, symBinAddr: 0x100026674, symSize: 0x28 }
  - { offsetInCU: 0x58ED7, offset: 0x58ED7, size: 0x8, addend: 0x0, symName: __ZNSt3__120__map_const_iteratorINS_21__tree_const_iteratorINS_12__value_typeINS_12basic_stringIcNS_11char_traitsIcEENS_9allocatorIcEEEES8_EEPNS_11__tree_nodeIS9_PvEElEEEppB8ne180100Ev, symObjAddr: 0x25260, symBinAddr: 0x10002669C, symSize: 0x2C }
  - { offsetInCU: 0x58EFD, offset: 0x58EFD, size: 0x8, addend: 0x0, symName: __ZNSt3__16__treeINS_12__value_typeINS_12basic_stringIcNS_11char_traitsIcEENS_9allocatorIcEEEES7_EENS_19__map_value_compareIS7_S8_NS_4lessIS7_EELb1EEENS5_IS8_EEE15__insert_uniqueB8ne180100ENS_21__tree_const_iteratorIS8_PNS_11__tree_nodeIS8_PvEElEERKNS_4pairIKS7_S7_EE, symObjAddr: 0x252F0, symBinAddr: 0x10002672C, symSize: 0x64 }
  - { offsetInCU: 0x58F41, offset: 0x58F41, size: 0x8, addend: 0x0, symName: __ZNSt3__114__map_iteratorINS_15__tree_iteratorINS_12__value_typeINS_12basic_stringIcNS_11char_traitsIcEENS_9allocatorIcEEEES8_EEPNS_11__tree_nodeIS9_PvEElEEEC1B8ne180100ESE_, symObjAddr: 0x25354, symBinAddr: 0x100026790, symSize: 0x34 }
  - { offsetInCU: 0x58F7A, offset: 0x58F7A, size: 0x8, addend: 0x0, symName: __ZNSt3__16__treeINS_12__value_typeINS_12basic_stringIcNS_11char_traitsIcEENS_9allocatorIcEEEES7_EENS_19__map_value_compareIS7_S8_NS_4lessIS7_EELb1EEENS5_IS8_EEE30__emplace_hint_unique_key_argsIS7_JRKNS_4pairIKS7_S7_EEEEENSG_INS_15__tree_iteratorIS8_PNS_11__tree_nodeIS8_PvEElEEbEENS_21__tree_const_iteratorIS8_SP_lEERKT_DpOT0_, symObjAddr: 0x25388, symBinAddr: 0x1000267C4, symSize: 0x104 }
  - { offsetInCU: 0x59046, offset: 0x59046, size: 0x8, addend: 0x0, symName: __ZNSt3__122__tree_key_value_typesINS_12__value_typeINS_12basic_stringIcNS_11char_traitsIcEENS_9allocatorIcEEEES7_EEE9__get_keyB8ne180100IKNS_4pairIKS7_S7_EELi0EEERSC_RT_, symObjAddr: 0x2548C, symBinAddr: 0x1000268C8, symSize: 0x14 }
  - { offsetInCU: 0x59079, offset: 0x59079, size: 0x8, addend: 0x0, symName: __ZNSt3__16__treeINS_12__value_typeINS_12basic_stringIcNS_11char_traitsIcEENS_9allocatorIcEEEES7_EENS_19__map_value_compareIS7_S8_NS_4lessIS7_EELb1EEENS5_IS8_EEE12__find_equalIS7_EERPNS_16__tree_node_baseIPvEENS_21__tree_const_iteratorIS8_PNS_11__tree_nodeIS8_SH_EElEERPNS_15__tree_end_nodeISJ_EESK_RKT_, symObjAddr: 0x254A0, symBinAddr: 0x1000268DC, symSize: 0x304 }
  - { offsetInCU: 0x59122, offset: 0x59122, size: 0x8, addend: 0x0, symName: __ZNSt3__16__treeINS_12__value_typeINS_12basic_stringIcNS_11char_traitsIcEENS_9allocatorIcEEEES7_EENS_19__map_value_compareIS7_S8_NS_4lessIS7_EELb1EEENS5_IS8_EEE16__construct_nodeIJRKNS_4pairIKS7_S7_EEEEENS_10unique_ptrINS_11__tree_nodeIS8_PvEENS_22__tree_node_destructorINS5_ISO_EEEEEEDpOT_, symObjAddr: 0x257A4, symBinAddr: 0x100026BE0, symSize: 0x110 }
  - { offsetInCU: 0x59183, offset: 0x59183, size: 0x8, addend: 0x0, symName: __ZNSt3__16__treeINS_12__value_typeINS_12basic_stringIcNS_11char_traitsIcEENS_9allocatorIcEEEES7_EENS_19__map_value_compareIS7_S8_NS_4lessIS7_EELb1EEENS5_IS8_EEE16__insert_node_atEPNS_15__tree_end_nodeIPNS_16__tree_node_baseIPvEEEERSJ_SJ_, symObjAddr: 0x258B4, symBinAddr: 0x100026CF0, symSize: 0xCC }
  - { offsetInCU: 0x591D8, offset: 0x591D8, size: 0x8, addend: 0x0, symName: __ZNKSt3__110unique_ptrINS_11__tree_nodeINS_12__value_typeINS_12basic_stringIcNS_11char_traitsIcEENS_9allocatorIcEEEES8_EEPvEENS_22__tree_node_destructorINS6_ISB_EEEEE3getB8ne180100Ev, symObjAddr: 0x25980, symBinAddr: 0x100026DBC, symSize: 0x28 }
  - { offsetInCU: 0x591FE, offset: 0x591FE, size: 0x8, addend: 0x0, symName: __ZNSt3__110unique_ptrINS_11__tree_nodeINS_12__value_typeINS_12basic_stringIcNS_11char_traitsIcEENS_9allocatorIcEEEES8_EEPvEENS_22__tree_node_destructorINS6_ISB_EEEEE7releaseB8ne180100Ev, symObjAddr: 0x259A8, symBinAddr: 0x100026DE4, symSize: 0x44 }
  - { offsetInCU: 0x59233, offset: 0x59233, size: 0x8, addend: 0x0, symName: __ZNSt3__110unique_ptrINS_11__tree_nodeINS_12__value_typeINS_12basic_stringIcNS_11char_traitsIcEENS_9allocatorIcEEEES8_EEPvEENS_22__tree_node_destructorINS6_ISB_EEEEED1B8ne180100Ev, symObjAddr: 0x259EC, symBinAddr: 0x100026E28, symSize: 0x2C }
  - { offsetInCU: 0x5925D, offset: 0x5925D, size: 0x8, addend: 0x0, symName: __ZNSt3__115__tree_iteratorINS_12__value_typeINS_12basic_stringIcNS_11char_traitsIcEENS_9allocatorIcEEEES7_EEPNS_11__tree_nodeIS8_PvEElEC1B8ne180100ESC_, symObjAddr: 0x25A18, symBinAddr: 0x100026E54, symSize: 0x34 }
  - { offsetInCU: 0x5929C, offset: 0x5929C, size: 0x8, addend: 0x0, symName: __ZNSt3__14pairINS_15__tree_iteratorINS_12__value_typeINS_12basic_stringIcNS_11char_traitsIcEENS_9allocatorIcEEEES8_EEPNS_11__tree_nodeIS9_PvEElEEbEC1B8ne180100ISE_RbLi0EEEOT_OT0_, symObjAddr: 0x25A4C, symBinAddr: 0x100026E88, symSize: 0x3C }
  - { offsetInCU: 0x592FA, offset: 0x592FA, size: 0x8, addend: 0x0, symName: __ZNSt3__16__treeINS_12__value_typeINS_12basic_stringIcNS_11char_traitsIcEENS_9allocatorIcEEEES7_EENS_19__map_value_compareIS7_S8_NS_4lessIS7_EELb1EEENS5_IS8_EEE3endB8ne180100Ev, symObjAddr: 0x25A88, symBinAddr: 0x100026EC4, symSize: 0x34 }
  - { offsetInCU: 0x59320, offset: 0x59320, size: 0x8, addend: 0x0, symName: __ZNSt3__121__tree_const_iteratorINS_12__value_typeINS_12basic_stringIcNS_11char_traitsIcEENS_9allocatorIcEEEES7_EEPNS_11__tree_nodeIS8_PvEElEC1B8ne180100ENS_15__tree_iteratorIS8_SC_lEE, symObjAddr: 0x25ABC, symBinAddr: 0x100026EF8, symSize: 0x34 }
  - { offsetInCU: 0x59359, offset: 0x59359, size: 0x8, addend: 0x0, symName: __ZNSt3__16__treeINS_12__value_typeINS_12basic_stringIcNS_11char_traitsIcEENS_9allocatorIcEEEES7_EENS_19__map_value_compareIS7_S8_NS_4lessIS7_EELb1EEENS5_IS8_EEE10value_compB8ne180100Ev, symObjAddr: 0x25AF0, symBinAddr: 0x100026F2C, symSize: 0x28 }
  - { offsetInCU: 0x5937F, offset: 0x5937F, size: 0x8, addend: 0x0, symName: __ZNKSt3__119__map_value_compareINS_12basic_stringIcNS_11char_traitsIcEENS_9allocatorIcEEEENS_12__value_typeIS6_S6_EENS_4lessIS6_EELb1EEclB8ne180100ERKS6_RKS8_, symObjAddr: 0x25B18, symBinAddr: 0x100026F54, symSize: 0x50 }
  - { offsetInCU: 0x593C3, offset: 0x593C3, size: 0x8, addend: 0x0, symName: __ZNKSt3__121__tree_const_iteratorINS_12__value_typeINS_12basic_stringIcNS_11char_traitsIcEENS_9allocatorIcEEEES7_EEPNS_11__tree_nodeIS8_PvEElEdeB8ne180100Ev, symObjAddr: 0x25B68, symBinAddr: 0x100026FA4, symSize: 0x28 }
  - { offsetInCU: 0x593E9, offset: 0x593E9, size: 0x8, addend: 0x0, symName: __ZNSt3__16__treeINS_12__value_typeINS_12basic_stringIcNS_11char_traitsIcEENS_9allocatorIcEEEES7_EENS_19__map_value_compareIS7_S8_NS_4lessIS7_EELb1EEENS5_IS8_EEE5beginB8ne180100Ev, symObjAddr: 0x25B90, symBinAddr: 0x100026FCC, symSize: 0x34 }
  - { offsetInCU: 0x5940F, offset: 0x5940F, size: 0x8, addend: 0x0, symName: __ZNKSt3__119__map_value_compareINS_12basic_stringIcNS_11char_traitsIcEENS_9allocatorIcEEEENS_12__value_typeIS6_S6_EENS_4lessIS6_EELb1EEclB8ne180100ERKS8_RKS6_, symObjAddr: 0x25BC4, symBinAddr: 0x100027000, symSize: 0x48 }
  - { offsetInCU: 0x59453, offset: 0x59453, size: 0x8, addend: 0x0, symName: __ZNSt3__121__tree_const_iteratorINS_12__value_typeINS_12basic_stringIcNS_11char_traitsIcEENS_9allocatorIcEEEES7_EEPNS_11__tree_nodeIS8_PvEElEmmB8ne180100Ev, symObjAddr: 0x25C0C, symBinAddr: 0x100027048, symSize: 0x38 }
  - { offsetInCU: 0x59479, offset: 0x59479, size: 0x8, addend: 0x0, symName: __ZNSt3__16__treeINS_12__value_typeINS_12basic_stringIcNS_11char_traitsIcEENS_9allocatorIcEEEES7_EENS_19__map_value_compareIS7_S8_NS_4lessIS7_EELb1EEENS5_IS8_EEE12__find_equalIS7_EERPNS_16__tree_node_baseIPvEERPNS_15__tree_end_nodeISJ_EERKT_, symObjAddr: 0x25C44, symBinAddr: 0x100027080, symSize: 0x184 }
  - { offsetInCU: 0x594E6, offset: 0x594E6, size: 0x8, addend: 0x0, symName: __ZNKSt3__121__tree_const_iteratorINS_12__value_typeINS_12basic_stringIcNS_11char_traitsIcEENS_9allocatorIcEEEES7_EEPNS_11__tree_nodeIS8_PvEElE8__get_npB8ne180100Ev, symObjAddr: 0x25E04, symBinAddr: 0x100027240, symSize: 0x18 }
  - { offsetInCU: 0x5950C, offset: 0x5950C, size: 0x8, addend: 0x0, symName: __ZNSt3__115__tree_iteratorINS_12__value_typeINS_12basic_stringIcNS_11char_traitsIcEENS_9allocatorIcEEEES7_EEPNS_11__tree_nodeIS8_PvEElEC1B8ne180100EPNS_15__tree_end_nodeIPNS_16__tree_node_baseISA_EEEE, symObjAddr: 0x25E1C, symBinAddr: 0x100027258, symSize: 0x34 }
  - { offsetInCU: 0x59545, offset: 0x59545, size: 0x8, addend: 0x0, symName: __ZNSt3__115__tree_iteratorINS_12__value_typeINS_12basic_stringIcNS_11char_traitsIcEENS_9allocatorIcEEEES7_EEPNS_11__tree_nodeIS8_PvEElEC2B8ne180100EPNS_15__tree_end_nodeIPNS_16__tree_node_baseISA_EEEE, symObjAddr: 0x25E50, symBinAddr: 0x10002728C, symSize: 0x20 }
  - { offsetInCU: 0x5957E, offset: 0x5957E, size: 0x8, addend: 0x0, symName: __ZNSt3__121__tree_const_iteratorINS_12__value_typeINS_12basic_stringIcNS_11char_traitsIcEENS_9allocatorIcEEEES7_EEPNS_11__tree_nodeIS8_PvEElEC2B8ne180100ENS_15__tree_iteratorIS8_SC_lEE, symObjAddr: 0x25E70, symBinAddr: 0x1000272AC, symSize: 0x20 }
  - { offsetInCU: 0x595B7, offset: 0x595B7, size: 0x8, addend: 0x0, symName: __ZNSt3__117__compressed_pairImNS_19__map_value_compareINS_12basic_stringIcNS_11char_traitsIcEENS_9allocatorIcEEEENS_12__value_typeIS7_S7_EENS_4lessIS7_EELb1EEEE6secondB8ne180100Ev, symObjAddr: 0x25E90, symBinAddr: 0x1000272CC, symSize: 0x24 }
  - { offsetInCU: 0x595DD, offset: 0x595DD, size: 0x8, addend: 0x0, symName: __ZNSt3__122__compressed_pair_elemINS_19__map_value_compareINS_12basic_stringIcNS_11char_traitsIcEENS_9allocatorIcEEEENS_12__value_typeIS7_S7_EENS_4lessIS7_EELb1EEELi1ELb1EE5__getB8ne180100Ev, symObjAddr: 0x25EB4, symBinAddr: 0x1000272F0, symSize: 0x14 }
  - { offsetInCU: 0x59603, offset: 0x59603, size: 0x8, addend: 0x0, symName: __ZNKSt3__112__value_typeINS_12basic_stringIcNS_11char_traitsIcEENS_9allocatorIcEEEES6_E11__get_valueB8ne180100Ev, symObjAddr: 0x25EC8, symBinAddr: 0x100027304, symSize: 0x24 }
  - { offsetInCU: 0x59629, offset: 0x59629, size: 0x8, addend: 0x0, symName: __ZNKSt3__16__treeINS_12__value_typeINS_12basic_stringIcNS_11char_traitsIcEENS_9allocatorIcEEEES7_EENS_19__map_value_compareIS7_S8_NS_4lessIS7_EELb1EEENS5_IS8_EEE10__root_ptrB8ne180100Ev, symObjAddr: 0x25FEC, symBinAddr: 0x100027428, symSize: 0x24 }
  - { offsetInCU: 0x5964F, offset: 0x5964F, size: 0x8, addend: 0x0, symName: __ZNSt3__121__tree_const_iteratorINS_12__value_typeINS_12basic_stringIcNS_11char_traitsIcEENS_9allocatorIcEEEES7_EEPNS_11__tree_nodeIS8_PvEElEppB8ne180100Ev, symObjAddr: 0x260EC, symBinAddr: 0x100027528, symSize: 0x38 }
  - { offsetInCU: 0x59675, offset: 0x59675, size: 0x8, addend: 0x0, symName: __ZNSt3__116allocator_traitsINS_9allocatorINS_11__tree_nodeINS_12__value_typeINS_12basic_stringIcNS_11char_traitsIcEENS1_IcEEEES8_EEPvEEEEE8allocateB8ne180100ERSC_m, symObjAddr: 0x261E4, symBinAddr: 0x100027620, symSize: 0x2C }
  - { offsetInCU: 0x596A8, offset: 0x596A8, size: 0x8, addend: 0x0, symName: __ZNSt3__122__tree_node_destructorINS_9allocatorINS_11__tree_nodeINS_12__value_typeINS_12basic_stringIcNS_11char_traitsIcEENS1_IcEEEES8_EEPvEEEEEC1B8ne180100ERSC_b, symObjAddr: 0x26210, symBinAddr: 0x10002764C, symSize: 0x48 }
  - { offsetInCU: 0x596F6, offset: 0x596F6, size: 0x8, addend: 0x0, symName: __ZNSt3__110unique_ptrINS_11__tree_nodeINS_12__value_typeINS_12basic_stringIcNS_11char_traitsIcEENS_9allocatorIcEEEES8_EEPvEENS_22__tree_node_destructorINS6_ISB_EEEEEC1B8ne180100ILb1EvEEPSB_NS_16__dependent_typeINS_27__unique_ptr_deleter_sfinaeISE_EEXT_EE20__good_rval_ref_typeE, symObjAddr: 0x26258, symBinAddr: 0x100027694, symSize: 0x3C }
  - { offsetInCU: 0x59747, offset: 0x59747, size: 0x8, addend: 0x0, symName: __ZNSt3__116allocator_traitsINS_9allocatorINS_11__tree_nodeINS_12__value_typeINS_12basic_stringIcNS_11char_traitsIcEENS1_IcEEEES8_EEPvEEEEE9constructB8ne180100INS_4pairIKS8_S8_EEJRKSH_EvEEvRSC_PT_DpOT0_, symObjAddr: 0x26294, symBinAddr: 0x1000276D0, symSize: 0x34 }
  - { offsetInCU: 0x5979E, offset: 0x5979E, size: 0x8, addend: 0x0, symName: __ZNKSt3__110unique_ptrINS_11__tree_nodeINS_12__value_typeINS_12basic_stringIcNS_11char_traitsIcEENS_9allocatorIcEEEES8_EEPvEENS_22__tree_node_destructorINS6_ISB_EEEEEptB8ne180100Ev, symObjAddr: 0x262C8, symBinAddr: 0x100027704, symSize: 0x28 }
  - { offsetInCU: 0x597C4, offset: 0x597C4, size: 0x8, addend: 0x0, symName: __ZNSt3__110unique_ptrINS_11__tree_nodeINS_12__value_typeINS_12basic_stringIcNS_11char_traitsIcEENS_9allocatorIcEEEES8_EEPvEENS_22__tree_node_destructorINS6_ISB_EEEEE11get_deleterB8ne180100Ev, symObjAddr: 0x262F0, symBinAddr: 0x10002772C, symSize: 0x24 }
  - { offsetInCU: 0x597EA, offset: 0x597EA, size: 0x8, addend: 0x0, symName: __ZNSt3__19allocatorINS_11__tree_nodeINS_12__value_typeINS_12basic_stringIcNS_11char_traitsIcEENS0_IcEEEES7_EEPvEEE8allocateB8ne180100Em, symObjAddr: 0x26314, symBinAddr: 0x100027750, symSize: 0x5C }
  - { offsetInCU: 0x5981E, offset: 0x5981E, size: 0x8, addend: 0x0, symName: __ZNSt3__116allocator_traitsINS_9allocatorINS_11__tree_nodeINS_12__value_typeINS_12basic_stringIcNS_11char_traitsIcEENS1_IcEEEES8_EEPvEEEEE8max_sizeB8ne180100ISC_vEEmRKSC_, symObjAddr: 0x26370, symBinAddr: 0x1000277AC, symSize: 0x24 }
  - { offsetInCU: 0x5984C, offset: 0x5984C, size: 0x8, addend: 0x0, symName: __ZNKSt3__19allocatorINS_11__tree_nodeINS_12__value_typeINS_12basic_stringIcNS_11char_traitsIcEENS0_IcEEEES7_EEPvEEE8max_sizeB8ne180100Ev, symObjAddr: 0x26394, symBinAddr: 0x1000277D0, symSize: 0x18 }
  - { offsetInCU: 0x59872, offset: 0x59872, size: 0x8, addend: 0x0, symName: __ZNSt3__122__tree_node_destructorINS_9allocatorINS_11__tree_nodeINS_12__value_typeINS_12basic_stringIcNS_11char_traitsIcEENS1_IcEEEES8_EEPvEEEEEC2B8ne180100ERSC_b, symObjAddr: 0x263AC, symBinAddr: 0x1000277E8, symSize: 0x38 }
  - { offsetInCU: 0x598BA, offset: 0x598BA, size: 0x8, addend: 0x0, symName: __ZNSt3__110unique_ptrINS_11__tree_nodeINS_12__value_typeINS_12basic_stringIcNS_11char_traitsIcEENS_9allocatorIcEEEES8_EEPvEENS_22__tree_node_destructorINS6_ISB_EEEEEC2B8ne180100ILb1EvEEPSB_NS_16__dependent_typeINS_27__unique_ptr_deleter_sfinaeISE_EEXT_EE20__good_rval_ref_typeE, symObjAddr: 0x263E4, symBinAddr: 0x100027820, symSize: 0x48 }
  - { offsetInCU: 0x5990B, offset: 0x5990B, size: 0x8, addend: 0x0, symName: __ZNSt3__117__compressed_pairIPNS_11__tree_nodeINS_12__value_typeINS_12basic_stringIcNS_11char_traitsIcEENS_9allocatorIcEEEES8_EEPvEENS_22__tree_node_destructorINS6_ISB_EEEEEC1B8ne180100IRSC_SF_EEOT_OT0_, symObjAddr: 0x2642C, symBinAddr: 0x100027868, symSize: 0x3C }
  - { offsetInCU: 0x59963, offset: 0x59963, size: 0x8, addend: 0x0, symName: __ZNSt3__117__compressed_pairIPNS_11__tree_nodeINS_12__value_typeINS_12basic_stringIcNS_11char_traitsIcEENS_9allocatorIcEEEES8_EEPvEENS_22__tree_node_destructorINS6_ISB_EEEEEC2B8ne180100IRSC_SF_EEOT_OT0_, symObjAddr: 0x26468, symBinAddr: 0x1000278A4, symSize: 0x48 }
  - { offsetInCU: 0x599BB, offset: 0x599BB, size: 0x8, addend: 0x0, symName: __ZNSt3__122__compressed_pair_elemIPNS_11__tree_nodeINS_12__value_typeINS_12basic_stringIcNS_11char_traitsIcEENS_9allocatorIcEEEES8_EEPvEELi0ELb0EEC2B8ne180100IRSC_vEEOT_, symObjAddr: 0x264B0, symBinAddr: 0x1000278EC, symSize: 0x24 }
  - { offsetInCU: 0x599FD, offset: 0x599FD, size: 0x8, addend: 0x0, symName: __ZNSt3__122__compressed_pair_elemINS_22__tree_node_destructorINS_9allocatorINS_11__tree_nodeINS_12__value_typeINS_12basic_stringIcNS_11char_traitsIcEENS2_IcEEEES9_EEPvEEEEEELi1ELb0EEC2B8ne180100ISE_vEEOT_, symObjAddr: 0x264D4, symBinAddr: 0x100027910, symSize: 0x24 }
  - { offsetInCU: 0x59A3F, offset: 0x59A3F, size: 0x8, addend: 0x0, symName: __ZNSt3__19allocatorINS_11__tree_nodeINS_12__value_typeINS_12basic_stringIcNS_11char_traitsIcEENS0_IcEEEES7_EEPvEEE9constructB8ne180100INS_4pairIKS7_S7_EEJRKSF_EEEvPT_DpOT0_, symObjAddr: 0x264F8, symBinAddr: 0x100027934, symSize: 0x30 }
  - { offsetInCU: 0x59A95, offset: 0x59A95, size: 0x8, addend: 0x0, symName: __ZNSt3__14pairIKNS_12basic_stringIcNS_11char_traitsIcEENS_9allocatorIcEEEES6_EC1B8ne180100ERKS8_, symObjAddr: 0x26528, symBinAddr: 0x100027964, symSize: 0x34 }
  - { offsetInCU: 0x59ACA, offset: 0x59ACA, size: 0x8, addend: 0x0, symName: __ZNSt3__14pairIKNS_12basic_stringIcNS_11char_traitsIcEENS_9allocatorIcEEEES6_EC2B8ne180100ERKS8_, symObjAddr: 0x2655C, symBinAddr: 0x100027998, symSize: 0x70 }
  - { offsetInCU: 0x59AFF, offset: 0x59AFF, size: 0x8, addend: 0x0, symName: __ZNKSt3__117__compressed_pairIPNS_11__tree_nodeINS_12__value_typeINS_12basic_stringIcNS_11char_traitsIcEENS_9allocatorIcEEEES8_EEPvEENS_22__tree_node_destructorINS6_ISB_EEEEE5firstB8ne180100Ev, symObjAddr: 0x265CC, symBinAddr: 0x100027A08, symSize: 0x24 }
  - { offsetInCU: 0x59B25, offset: 0x59B25, size: 0x8, addend: 0x0, symName: __ZNKSt3__122__compressed_pair_elemIPNS_11__tree_nodeINS_12__value_typeINS_12basic_stringIcNS_11char_traitsIcEENS_9allocatorIcEEEES8_EEPvEELi0ELb0EE5__getB8ne180100Ev, symObjAddr: 0x265F0, symBinAddr: 0x100027A2C, symSize: 0x14 }
  - { offsetInCU: 0x59B4B, offset: 0x59B4B, size: 0x8, addend: 0x0, symName: __ZNSt3__117__compressed_pairIPNS_11__tree_nodeINS_12__value_typeINS_12basic_stringIcNS_11char_traitsIcEENS_9allocatorIcEEEES8_EEPvEENS_22__tree_node_destructorINS6_ISB_EEEEE6secondB8ne180100Ev, symObjAddr: 0x26604, symBinAddr: 0x100027A40, symSize: 0x28 }
  - { offsetInCU: 0x59B71, offset: 0x59B71, size: 0x8, addend: 0x0, symName: __ZNSt3__122__compressed_pair_elemINS_22__tree_node_destructorINS_9allocatorINS_11__tree_nodeINS_12__value_typeINS_12basic_stringIcNS_11char_traitsIcEENS2_IcEEEES9_EEPvEEEEEELi1ELb0EE5__getB8ne180100Ev, symObjAddr: 0x2662C, symBinAddr: 0x100027A68, symSize: 0x14 }
  - { offsetInCU: 0x59B97, offset: 0x59B97, size: 0x8, addend: 0x0, symName: __ZNSt3__117__compressed_pairIPNS_11__tree_nodeINS_12__value_typeINS_12basic_stringIcNS_11char_traitsIcEENS_9allocatorIcEEEES8_EEPvEENS_22__tree_node_destructorINS6_ISB_EEEEE5firstB8ne180100Ev, symObjAddr: 0x26640, symBinAddr: 0x100027A7C, symSize: 0x24 }
  - { offsetInCU: 0x59BBD, offset: 0x59BBD, size: 0x8, addend: 0x0, symName: __ZNSt3__122__compressed_pair_elemIPNS_11__tree_nodeINS_12__value_typeINS_12basic_stringIcNS_11char_traitsIcEENS_9allocatorIcEEEES8_EEPvEELi0ELb0EE5__getB8ne180100Ev, symObjAddr: 0x26664, symBinAddr: 0x100027AA0, symSize: 0x14 }
  - { offsetInCU: 0x59BE3, offset: 0x59BE3, size: 0x8, addend: 0x0, symName: __ZNSt3__110unique_ptrINS_11__tree_nodeINS_12__value_typeINS_12basic_stringIcNS_11char_traitsIcEENS_9allocatorIcEEEES8_EEPvEENS_22__tree_node_destructorINS6_ISB_EEEEED2B8ne180100Ev, symObjAddr: 0x26678, symBinAddr: 0x100027AB4, symSize: 0x30 }
  - { offsetInCU: 0x59C0D, offset: 0x59C0D, size: 0x8, addend: 0x0, symName: __ZNSt3__110unique_ptrINS_11__tree_nodeINS_12__value_typeINS_12basic_stringIcNS_11char_traitsIcEENS_9allocatorIcEEEES8_EEPvEENS_22__tree_node_destructorINS6_ISB_EEEEE5resetB8ne180100EPSB_, symObjAddr: 0x266A8, symBinAddr: 0x100027AE4, symSize: 0x78 }
  - { offsetInCU: 0x59C51, offset: 0x59C51, size: 0x8, addend: 0x0, symName: __ZNSt3__122__tree_node_destructorINS_9allocatorINS_11__tree_nodeINS_12__value_typeINS_12basic_stringIcNS_11char_traitsIcEENS1_IcEEEES8_EEPvEEEEEclB8ne180100EPSB_, symObjAddr: 0x26720, symBinAddr: 0x100027B5C, symSize: 0x98 }
  - { offsetInCU: 0x59C86, offset: 0x59C86, size: 0x8, addend: 0x0, symName: __ZNSt3__115__tree_iteratorINS_12__value_typeINS_12basic_stringIcNS_11char_traitsIcEENS_9allocatorIcEEEES7_EEPNS_11__tree_nodeIS8_PvEElEC2B8ne180100ESC_, symObjAddr: 0x267B8, symBinAddr: 0x100027BF4, symSize: 0x20 }
  - { offsetInCU: 0x59CBF, offset: 0x59CBF, size: 0x8, addend: 0x0, symName: __ZNSt3__14pairINS_15__tree_iteratorINS_12__value_typeINS_12basic_stringIcNS_11char_traitsIcEENS_9allocatorIcEEEES8_EEPNS_11__tree_nodeIS9_PvEElEEbEC2B8ne180100ISE_RbLi0EEEOT_OT0_, symObjAddr: 0x267D8, symBinAddr: 0x100027C14, symSize: 0x38 }
  - { offsetInCU: 0x59D1D, offset: 0x59D1D, size: 0x8, addend: 0x0, symName: __ZNSt3__114__map_iteratorINS_15__tree_iteratorINS_12__value_typeINS_12basic_stringIcNS_11char_traitsIcEENS_9allocatorIcEEEES8_EEPNS_11__tree_nodeIS9_PvEElEEEC2B8ne180100ESE_, symObjAddr: 0x26810, symBinAddr: 0x100027C4C, symSize: 0x20 }
  - { offsetInCU: 0x59D56, offset: 0x59D56, size: 0x8, addend: 0x0, symName: __ZNSt3__120__map_const_iteratorINS_21__tree_const_iteratorINS_12__value_typeINS_12basic_stringIcNS_11char_traitsIcEENS_9allocatorIcEEEES8_EEPNS_11__tree_nodeIS9_PvEElEEEC2B8ne180100ESE_, symObjAddr: 0x26830, symBinAddr: 0x100027C6C, symSize: 0x20 }
  - { offsetInCU: 0x59D8F, offset: 0x59D8F, size: 0x8, addend: 0x0, symName: __ZNKSt3__121__tree_const_iteratorINS_12__value_typeINS_12basic_stringIcNS_11char_traitsIcEENS_9allocatorIcEEEES7_EEPNS_11__tree_nodeIS8_PvEElEptB8ne180100Ev, symObjAddr: 0x26850, symBinAddr: 0x100027C8C, symSize: 0x2C }
  - { offsetInCU: 0x59DB5, offset: 0x59DB5, size: 0x8, addend: 0x0, symName: __ZNSt3__114pointer_traitsIPKNS_12__value_typeINS_12basic_stringIcNS_11char_traitsIcEENS_9allocatorIcEEEES7_EEE10pointer_toB8ne180100ERS9_, symObjAddr: 0x2687C, symBinAddr: 0x100027CB8, symSize: 0x14 }
  - { offsetInCU: 0x59DD8, offset: 0x59DD8, size: 0x8, addend: 0x0, symName: __ZNKSt3__16__treeINS_12__value_typeINS_12basic_stringIcNS_11char_traitsIcEENS_9allocatorIcEEEES7_EENS_19__map_value_compareIS7_S8_NS_4lessIS7_EELb1EEENS5_IS8_EEE5beginB8ne180100Ev, symObjAddr: 0x26890, symBinAddr: 0x100027CCC, symSize: 0x34 }
  - { offsetInCU: 0x59DFE, offset: 0x59DFE, size: 0x8, addend: 0x0, symName: __ZNKSt3__16__treeINS_12__value_typeINS_12basic_stringIcNS_11char_traitsIcEENS_9allocatorIcEEEES7_EENS_19__map_value_compareIS7_S8_NS_4lessIS7_EELb1EEENS5_IS8_EEE12__begin_nodeB8ne180100Ev, symObjAddr: 0x268C4, symBinAddr: 0x100027D00, symSize: 0x14 }
  - { offsetInCU: 0x59E24, offset: 0x59E24, size: 0x8, addend: 0x0, symName: __ZNSt3__121__tree_const_iteratorINS_12__value_typeINS_12basic_stringIcNS_11char_traitsIcEENS_9allocatorIcEEEES7_EEPNS_11__tree_nodeIS8_PvEElEC1B8ne180100EPNS_15__tree_end_nodeIPNS_16__tree_node_baseISA_EEEE, symObjAddr: 0x268D8, symBinAddr: 0x100027D14, symSize: 0x34 }
  - { offsetInCU: 0x59E5D, offset: 0x59E5D, size: 0x8, addend: 0x0, symName: __ZNSt3__121__tree_const_iteratorINS_12__value_typeINS_12basic_stringIcNS_11char_traitsIcEENS_9allocatorIcEEEES7_EEPNS_11__tree_nodeIS8_PvEElEC2B8ne180100EPNS_15__tree_end_nodeIPNS_16__tree_node_baseISA_EEEE, symObjAddr: 0x2690C, symBinAddr: 0x100027D48, symSize: 0x20 }
  - { offsetInCU: 0x59E96, offset: 0x59E96, size: 0x8, addend: 0x0, symName: __ZNKSt3__16__treeINS_12__value_typeINS_12basic_stringIcNS_11char_traitsIcEENS_9allocatorIcEEEES7_EENS_19__map_value_compareIS7_S8_NS_4lessIS7_EELb1EEENS5_IS8_EEE3endB8ne180100Ev, symObjAddr: 0x2692C, symBinAddr: 0x100027D68, symSize: 0x34 }
  - { offsetInCU: 0x59EBC, offset: 0x59EBC, size: 0x8, addend: 0x0, symName: __ZNSt3__16vectorIN7tinyobj10material_tENS_9allocatorIS2_EEE21_ConstructTransactionD2B8ne180100Ev, symObjAddr: 0x26960, symBinAddr: 0x100027D9C, symSize: 0x20 }
  - { offsetInCU: 0x59EE6, offset: 0x59EE6, size: 0x8, addend: 0x0, symName: __ZNKSt3__16vectorIN7tinyobj10material_tENS_9allocatorIS2_EEE11__recommendB8ne180100Em, symObjAddr: 0x26980, symBinAddr: 0x100027DBC, symSize: 0xB4 }
  - { offsetInCU: 0x59F3B, offset: 0x59F3B, size: 0x8, addend: 0x0, symName: __ZNSt3__114__split_bufferIN7tinyobj10material_tERNS_9allocatorIS2_EEEC1EmmS5_, symObjAddr: 0x26A34, symBinAddr: 0x100027E70, symSize: 0x44 }
  - { offsetInCU: 0x59F91, offset: 0x59F91, size: 0x8, addend: 0x0, symName: __ZNSt3__114__split_bufferIN7tinyobj10material_tERNS_9allocatorIS2_EEED1Ev, symObjAddr: 0x26B88, symBinAddr: 0x100027FC4, symSize: 0x2C }
  - { offsetInCU: 0x59FBD, offset: 0x59FBD, size: 0x8, addend: 0x0, symName: __ZNKSt3__16vectorIN7tinyobj10material_tENS_9allocatorIS2_EEE8max_sizeEv, symObjAddr: 0x26BB4, symBinAddr: 0x100027FF0, symSize: 0x60 }
  - { offsetInCU: 0x59FE5, offset: 0x59FE5, size: 0x8, addend: 0x0, symName: __ZNKSt3__16vectorIN7tinyobj10material_tENS_9allocatorIS2_EEE20__throw_length_errorB8ne180100Ev, symObjAddr: 0x26C14, symBinAddr: 0x100028050, symSize: 0x1C }
  - { offsetInCU: 0x5A016, offset: 0x5A016, size: 0x8, addend: 0x0, symName: __ZNSt3__116allocator_traitsINS_9allocatorIN7tinyobj10material_tEEEE8max_sizeB8ne180100IS4_vEEmRKS4_, symObjAddr: 0x26C30, symBinAddr: 0x10002806C, symSize: 0x24 }
  - { offsetInCU: 0x5A044, offset: 0x5A044, size: 0x8, addend: 0x0, symName: __ZNKSt3__16vectorIN7tinyobj10material_tENS_9allocatorIS2_EEE7__allocB8ne180100Ev, symObjAddr: 0x26C54, symBinAddr: 0x100028090, symSize: 0x28 }
  - { offsetInCU: 0x5A06A, offset: 0x5A06A, size: 0x8, addend: 0x0, symName: __ZNKSt3__19allocatorIN7tinyobj10material_tEE8max_sizeB8ne180100Ev, symObjAddr: 0x26C7C, symBinAddr: 0x1000280B8, symSize: 0x20 }
  - { offsetInCU: 0x5A090, offset: 0x5A090, size: 0x8, addend: 0x0, symName: __ZNKSt3__117__compressed_pairIPN7tinyobj10material_tENS_9allocatorIS2_EEE6secondB8ne180100Ev, symObjAddr: 0x26C9C, symBinAddr: 0x1000280D8, symSize: 0x24 }
  - { offsetInCU: 0x5A0B6, offset: 0x5A0B6, size: 0x8, addend: 0x0, symName: __ZNKSt3__122__compressed_pair_elemINS_9allocatorIN7tinyobj10material_tEEELi1ELb1EE5__getB8ne180100Ev, symObjAddr: 0x26CC0, symBinAddr: 0x1000280FC, symSize: 0x14 }
  - { offsetInCU: 0x5A0DC, offset: 0x5A0DC, size: 0x8, addend: 0x0, symName: __ZNSt3__114__split_bufferIN7tinyobj10material_tERNS_9allocatorIS2_EEEC2EmmS5_, symObjAddr: 0x26CD4, symBinAddr: 0x100028110, symSize: 0xE0 }
  - { offsetInCU: 0x5A14F, offset: 0x5A14F, size: 0x8, addend: 0x0, symName: __ZNSt3__117__compressed_pairIPN7tinyobj10material_tERNS_9allocatorIS2_EEEC1B8ne180100IDnS6_EEOT_OT0_, symObjAddr: 0x26DB4, symBinAddr: 0x1000281F0, symSize: 0x3C }
  - { offsetInCU: 0x5A1A7, offset: 0x5A1A7, size: 0x8, addend: 0x0, symName: __ZNSt3__114__split_bufferIN7tinyobj10material_tERNS_9allocatorIS2_EEE7__allocB8ne180100Ev, symObjAddr: 0x26E30, symBinAddr: 0x10002826C, symSize: 0x28 }
  - { offsetInCU: 0x5A1CD, offset: 0x5A1CD, size: 0x8, addend: 0x0, symName: __ZNSt3__114__split_bufferIN7tinyobj10material_tERNS_9allocatorIS2_EEE9__end_capB8ne180100Ev, symObjAddr: 0x26E58, symBinAddr: 0x100028294, symSize: 0x28 }
  - { offsetInCU: 0x5A1F3, offset: 0x5A1F3, size: 0x8, addend: 0x0, symName: __ZNSt3__117__compressed_pairIPN7tinyobj10material_tERNS_9allocatorIS2_EEEC2B8ne180100IDnS6_EEOT_OT0_, symObjAddr: 0x26E80, symBinAddr: 0x1000282BC, symSize: 0x48 }
  - { offsetInCU: 0x5A24B, offset: 0x5A24B, size: 0x8, addend: 0x0, symName: __ZNSt3__122__compressed_pair_elemIRNS_9allocatorIN7tinyobj10material_tEEELi1ELb0EEC2B8ne180100IS5_vEEOT_, symObjAddr: 0x26EC8, symBinAddr: 0x100028304, symSize: 0x20 }
  - { offsetInCU: 0x5A28D, offset: 0x5A28D, size: 0x8, addend: 0x0, symName: __ZNSt3__19allocatorIN7tinyobj10material_tEE8allocateB8ne180100Em, symObjAddr: 0x26EE8, symBinAddr: 0x100028324, symSize: 0x5C }
  - { offsetInCU: 0x5A2C1, offset: 0x5A2C1, size: 0x8, addend: 0x0, symName: __ZNSt3__117__compressed_pairIPN7tinyobj10material_tERNS_9allocatorIS2_EEE6secondB8ne180100Ev, symObjAddr: 0x26F44, symBinAddr: 0x100028380, symSize: 0x28 }
  - { offsetInCU: 0x5A2E7, offset: 0x5A2E7, size: 0x8, addend: 0x0, symName: __ZNSt3__122__compressed_pair_elemIRNS_9allocatorIN7tinyobj10material_tEEELi1ELb0EE5__getB8ne180100Ev, symObjAddr: 0x26F6C, symBinAddr: 0x1000283A8, symSize: 0x18 }
  - { offsetInCU: 0x5A30D, offset: 0x5A30D, size: 0x8, addend: 0x0, symName: __ZNSt3__117__compressed_pairIPN7tinyobj10material_tERNS_9allocatorIS2_EEE5firstB8ne180100Ev, symObjAddr: 0x26F84, symBinAddr: 0x1000283C0, symSize: 0x24 }
  - { offsetInCU: 0x5A333, offset: 0x5A333, size: 0x8, addend: 0x0, symName: __ZNSt3__116reverse_iteratorIPN7tinyobj10material_tEEC1B8ne180100ES3_, symObjAddr: 0x270D4, symBinAddr: 0x100028510, symSize: 0x34 }
  - { offsetInCU: 0x5A36B, offset: 0x5A36B, size: 0x8, addend: 0x0, symName: __ZNKSt3__116reverse_iteratorIPN7tinyobj10material_tEE4baseB8ne180100Ev, symObjAddr: 0x27108, symBinAddr: 0x100028544, symSize: 0x18 }
  - { offsetInCU: 0x5A391, offset: 0x5A391, size: 0x8, addend: 0x0, symName: __ZNKSt3__16vectorIN7tinyobj10material_tENS_9allocatorIS2_EEE14__annotate_newB8ne180100Em, symObjAddr: 0x2715C, symBinAddr: 0x100028598, symSize: 0x14 }
  - { offsetInCU: 0x5A3C6, offset: 0x5A3C6, size: 0x8, addend: 0x0, symName: __ZNSt3__129_AllocatorDestroyRangeReverseINS_9allocatorIN7tinyobj10material_tEEENS_16reverse_iteratorIPS3_EEEC1B8ne180100ERS4_RS7_SA_, symObjAddr: 0x271BC, symBinAddr: 0x1000285F8, symSize: 0x44 }
  - { offsetInCU: 0x5A423, offset: 0x5A423, size: 0x8, addend: 0x0, symName: __ZNSt3__116allocator_traitsINS_9allocatorIN7tinyobj10material_tEEEE9constructB8ne180100IS3_JS3_EvEEvRS4_PT_DpOT0_, symObjAddr: 0x27248, symBinAddr: 0x100028684, symSize: 0x34 }
  - { offsetInCU: 0x5A47A, offset: 0x5A47A, size: 0x8, addend: 0x0, symName: __ZNKSt3__116reverse_iteratorIPN7tinyobj10material_tEEdeB8ne180100Ev, symObjAddr: 0x272A0, symBinAddr: 0x1000286DC, symSize: 0x28 }
  - { offsetInCU: 0x5A4AE, offset: 0x5A4AE, size: 0x8, addend: 0x0, symName: __ZNSt3__116reverse_iteratorIPN7tinyobj10material_tEEppB8ne180100Ev, symObjAddr: 0x272C8, symBinAddr: 0x100028704, symSize: 0x20 }
  - { offsetInCU: 0x5A4D4, offset: 0x5A4D4, size: 0x8, addend: 0x0, symName: __ZNSt3__128__exception_guard_exceptionsINS_29_AllocatorDestroyRangeReverseINS_9allocatorIN7tinyobj10material_tEEENS_16reverse_iteratorIPS4_EEEEE10__completeB8ne180100Ev, symObjAddr: 0x272E8, symBinAddr: 0x100028724, symSize: 0x1C }
  - { offsetInCU: 0x5A4FA, offset: 0x5A4FA, size: 0x8, addend: 0x0, symName: __ZNSt3__128__exception_guard_exceptionsINS_29_AllocatorDestroyRangeReverseINS_9allocatorIN7tinyobj10material_tEEENS_16reverse_iteratorIPS4_EEEEED1B8ne180100Ev, symObjAddr: 0x27304, symBinAddr: 0x100028740, symSize: 0x2C }
  - { offsetInCU: 0x5A524, offset: 0x5A524, size: 0x8, addend: 0x0, symName: __ZNSt3__128__exception_guard_exceptionsINS_29_AllocatorDestroyRangeReverseINS_9allocatorIN7tinyobj10material_tEEENS_16reverse_iteratorIPS4_EEEEEC1B8ne180100ES9_, symObjAddr: 0x27330, symBinAddr: 0x10002876C, symSize: 0x34 }
  - { offsetInCU: 0x5A55D, offset: 0x5A55D, size: 0x8, addend: 0x0, symName: __ZNSt3__128__exception_guard_exceptionsINS_29_AllocatorDestroyRangeReverseINS_9allocatorIN7tinyobj10material_tEEENS_16reverse_iteratorIPS4_EEEEEC2B8ne180100ES9_, symObjAddr: 0x27364, symBinAddr: 0x1000287A0, symSize: 0x30 }
  - { offsetInCU: 0x5A596, offset: 0x5A596, size: 0x8, addend: 0x0, symName: __ZNSt3__129_AllocatorDestroyRangeReverseINS_9allocatorIN7tinyobj10material_tEEENS_16reverse_iteratorIPS3_EEEC2B8ne180100ERS4_RS7_SA_, symObjAddr: 0x27394, symBinAddr: 0x1000287D0, symSize: 0x38 }
  - { offsetInCU: 0x5A5ED, offset: 0x5A5ED, size: 0x8, addend: 0x0, symName: __ZNSt3__19allocatorIN7tinyobj10material_tEE9constructB8ne180100IS2_JS2_EEEvPT_DpOT0_, symObjAddr: 0x273CC, symBinAddr: 0x100028808, symSize: 0x30 }
  - { offsetInCU: 0x5A643, offset: 0x5A643, size: 0x8, addend: 0x0, symName: __ZN7tinyobj10material_tC1EOS0_, symObjAddr: 0x273FC, symBinAddr: 0x100028838, symSize: 0x34 }
  - { offsetInCU: 0x5A678, offset: 0x5A678, size: 0x8, addend: 0x0, symName: __ZN7tinyobj10material_tC2EOS0_, symObjAddr: 0x27430, symBinAddr: 0x10002886C, symSize: 0x29C }
  - { offsetInCU: 0x5A6B3, offset: 0x5A6B3, size: 0x8, addend: 0x0, symName: __ZN7tinyobj16texture_option_tC1EOS0_, symObjAddr: 0x276CC, symBinAddr: 0x100028B08, symSize: 0x34 }
  - { offsetInCU: 0x5A6E8, offset: 0x5A6E8, size: 0x8, addend: 0x0, symName: __ZNSt3__13mapINS_12basic_stringIcNS_11char_traitsIcEENS_9allocatorIcEEEES6_NS_4lessIS6_EENS4_INS_4pairIKS6_S6_EEEEEC1B8ne180100EOSD_, symObjAddr: 0x27700, symBinAddr: 0x100028B3C, symSize: 0x34 }
  - { offsetInCU: 0x5A721, offset: 0x5A721, size: 0x8, addend: 0x0, symName: __ZN7tinyobj16texture_option_tC2EOS0_, symObjAddr: 0x27734, symBinAddr: 0x100028B70, symSize: 0x4C }
  - { offsetInCU: 0x5A756, offset: 0x5A756, size: 0x8, addend: 0x0, symName: __ZNSt3__13mapINS_12basic_stringIcNS_11char_traitsIcEENS_9allocatorIcEEEES6_NS_4lessIS6_EENS4_INS_4pairIKS6_S6_EEEEEC2B8ne180100EOSD_, symObjAddr: 0x27780, symBinAddr: 0x100028BBC, symSize: 0x34 }
  - { offsetInCU: 0x5A78F, offset: 0x5A78F, size: 0x8, addend: 0x0, symName: __ZNSt3__16__treeINS_12__value_typeINS_12basic_stringIcNS_11char_traitsIcEENS_9allocatorIcEEEES7_EENS_19__map_value_compareIS7_S8_NS_4lessIS7_EELb1EEENS5_IS8_EEEC1EOSE_, symObjAddr: 0x277B4, symBinAddr: 0x100028BF0, symSize: 0x34 }
  - { offsetInCU: 0x5A7CA, offset: 0x5A7CA, size: 0x8, addend: 0x0, symName: __ZNSt3__16__treeINS_12__value_typeINS_12basic_stringIcNS_11char_traitsIcEENS_9allocatorIcEEEES7_EENS_19__map_value_compareIS7_S8_NS_4lessIS7_EELb1EEENS5_IS8_EEEC2EOSE_, symObjAddr: 0x277E8, symBinAddr: 0x100028C24, symSize: 0xFC }
  - { offsetInCU: 0x5A80B, offset: 0x5A80B, size: 0x8, addend: 0x0, symName: __ZNSt3__119__to_address_helperINS_16reverse_iteratorIPN7tinyobj10material_tEEEvE6__callB8ne180100ERKS5_, symObjAddr: 0x278E4, symBinAddr: 0x100028D20, symSize: 0x38 }
  - { offsetInCU: 0x5A82E, offset: 0x5A82E, size: 0x8, addend: 0x0, symName: __ZNKSt3__116reverse_iteratorIPN7tinyobj10material_tEEptB8ne180100Ev, symObjAddr: 0x2791C, symBinAddr: 0x100028D58, symSize: 0x24 }
  - { offsetInCU: 0x5A854, offset: 0x5A854, size: 0x8, addend: 0x0, symName: __ZNSt3__128__exception_guard_exceptionsINS_29_AllocatorDestroyRangeReverseINS_9allocatorIN7tinyobj10material_tEEENS_16reverse_iteratorIPS4_EEEEED2B8ne180100Ev, symObjAddr: 0x27940, symBinAddr: 0x100028D7C, symSize: 0x50 }
  - { offsetInCU: 0x5A87E, offset: 0x5A87E, size: 0x8, addend: 0x0, symName: __ZNKSt3__129_AllocatorDestroyRangeReverseINS_9allocatorIN7tinyobj10material_tEEENS_16reverse_iteratorIPS3_EEEclB8ne180100Ev, symObjAddr: 0x27990, symBinAddr: 0x100028DCC, symSize: 0xB4 }
  - { offsetInCU: 0x5A8A5, offset: 0x5A8A5, size: 0x8, addend: 0x0, symName: __ZNSt3__116reverse_iteratorINS0_IPN7tinyobj10material_tEEEEC1B8ne180100ES4_, symObjAddr: 0x27AB4, symBinAddr: 0x100028EF0, symSize: 0x3C }
  - { offsetInCU: 0x5A8DD, offset: 0x5A8DD, size: 0x8, addend: 0x0, symName: __ZNSt3__116reverse_iteratorINS0_IPN7tinyobj10material_tEEEEppB8ne180100Ev, symObjAddr: 0x27B74, symBinAddr: 0x100028FB0, symSize: 0x30 }
  - { offsetInCU: 0x5A903, offset: 0x5A903, size: 0x8, addend: 0x0, symName: __ZNKSt3__116reverse_iteratorINS0_IPN7tinyobj10material_tEEEE4baseB8ne180100Ev, symObjAddr: 0x27BA4, symBinAddr: 0x100028FE0, symSize: 0x24 }
  - { offsetInCU: 0x5A92F, offset: 0x5A92F, size: 0x8, addend: 0x0, symName: __ZNSt3__119__to_address_helperINS_16reverse_iteratorINS1_IPN7tinyobj10material_tEEEEEvE6__callB8ne180100ERKS6_, symObjAddr: 0x27BC8, symBinAddr: 0x100029004, symSize: 0x38 }
  - { offsetInCU: 0x5A952, offset: 0x5A952, size: 0x8, addend: 0x0, symName: __ZNKSt3__116reverse_iteratorINS0_IPN7tinyobj10material_tEEEEptB8ne180100Ev, symObjAddr: 0x27C00, symBinAddr: 0x10002903C, symSize: 0x24 }
  - { offsetInCU: 0x5A978, offset: 0x5A978, size: 0x8, addend: 0x0, symName: __ZNKSt3__116reverse_iteratorINS0_IPN7tinyobj10material_tEEEEdeB8ne180100Ev, symObjAddr: 0x27C24, symBinAddr: 0x100029060, symSize: 0x34 }
  - { offsetInCU: 0x5A9AC, offset: 0x5A9AC, size: 0x8, addend: 0x0, symName: __ZNSt3__116reverse_iteratorIPN7tinyobj10material_tEEmmB8ne180100Ev, symObjAddr: 0x27C58, symBinAddr: 0x100029094, symSize: 0x20 }
  - { offsetInCU: 0x5A9D2, offset: 0x5A9D2, size: 0x8, addend: 0x0, symName: __ZNSt3__116reverse_iteratorINS0_IPN7tinyobj10material_tEEEEC2B8ne180100ES4_, symObjAddr: 0x27C78, symBinAddr: 0x1000290B4, symSize: 0x2C }
  - { offsetInCU: 0x5AA0A, offset: 0x5AA0A, size: 0x8, addend: 0x0, symName: __ZNSt3__116reverse_iteratorIPN7tinyobj10material_tEEC2B8ne180100ES3_, symObjAddr: 0x27CA4, symBinAddr: 0x1000290E0, symSize: 0x28 }
  - { offsetInCU: 0x5AA42, offset: 0x5AA42, size: 0x8, addend: 0x0, symName: __ZNSt3__114__split_bufferIN7tinyobj10material_tERNS_9allocatorIS2_EEED2Ev, symObjAddr: 0x27CCC, symBinAddr: 0x100029108, symSize: 0x8C }
  - { offsetInCU: 0x5AA6E, offset: 0x5AA6E, size: 0x8, addend: 0x0, symName: __ZNSt3__114__split_bufferIN7tinyobj10material_tERNS_9allocatorIS2_EEE5clearB8ne180100Ev, symObjAddr: 0x27D58, symBinAddr: 0x100029194, symSize: 0x28 }
  - { offsetInCU: 0x5AA94, offset: 0x5AA94, size: 0x8, addend: 0x0, symName: __ZNKSt3__114__split_bufferIN7tinyobj10material_tERNS_9allocatorIS2_EEE8capacityB8ne180100Ev, symObjAddr: 0x27D80, symBinAddr: 0x1000291BC, symSize: 0x40 }
  - { offsetInCU: 0x5AABA, offset: 0x5AABA, size: 0x8, addend: 0x0, symName: __ZNSt3__114__split_bufferIN7tinyobj10material_tERNS_9allocatorIS2_EEE17__destruct_at_endB8ne180100EPS2_, symObjAddr: 0x27DC0, symBinAddr: 0x1000291FC, symSize: 0x2C }
  - { offsetInCU: 0x5AAEE, offset: 0x5AAEE, size: 0x8, addend: 0x0, symName: __ZNSt3__114__split_bufferIN7tinyobj10material_tERNS_9allocatorIS2_EEE17__destruct_at_endB8ne180100EPS2_NS_17integral_constantIbLb0EEE, symObjAddr: 0x27DEC, symBinAddr: 0x100029228, symSize: 0x80 }
  - { offsetInCU: 0x5AB2F, offset: 0x5AB2F, size: 0x8, addend: 0x0, symName: __ZNKSt3__114__split_bufferIN7tinyobj10material_tERNS_9allocatorIS2_EEE9__end_capB8ne180100Ev, symObjAddr: 0x27E6C, symBinAddr: 0x1000292A8, symSize: 0x28 }
  - { offsetInCU: 0x5AB55, offset: 0x5AB55, size: 0x8, addend: 0x0, symName: __ZNKSt3__117__compressed_pairIPN7tinyobj10material_tERNS_9allocatorIS2_EEE5firstB8ne180100Ev, symObjAddr: 0x27E94, symBinAddr: 0x1000292D0, symSize: 0x24 }
  - { offsetInCU: 0x5AB9C, offset: 0x5AB9C, size: 0x8, addend: 0x0, symName: __ZNKSt3__113basic_ostreamIcNS_11char_traitsIcEEE6sentrycvbB8ne180100Ev, symObjAddr: 0x280A4, symBinAddr: 0x1000294E0, symSize: 0x1C }
  - { offsetInCU: 0x5ABC2, offset: 0x5ABC2, size: 0x8, addend: 0x0, symName: __ZNSt3__119ostreambuf_iteratorIcNS_11char_traitsIcEEEC1B8ne180100ERNS_13basic_ostreamIcS2_EE, symObjAddr: 0x28300, symBinAddr: 0x10002973C, symSize: 0x34 }
  - { offsetInCU: 0x5ABFA, offset: 0x5ABFA, size: 0x8, addend: 0x0, symName: __ZNKSt3__18ios_base5flagsB8ne180100Ev, symObjAddr: 0x28334, symBinAddr: 0x100029770, symSize: 0x18 }
  - { offsetInCU: 0x5AC22, offset: 0x5AC22, size: 0x8, addend: 0x0, symName: __ZNKSt3__19basic_iosIcNS_11char_traitsIcEEE4fillB8ne180100Ev, symObjAddr: 0x2834C, symBinAddr: 0x100029788, symSize: 0x64 }
  - { offsetInCU: 0x5AC4A, offset: 0x5AC4A, size: 0x8, addend: 0x0, symName: __ZNKSt3__119ostreambuf_iteratorIcNS_11char_traitsIcEEE6failedB8ne180100Ev, symObjAddr: 0x283B0, symBinAddr: 0x1000297EC, symSize: 0x24 }
  - { offsetInCU: 0x5AC70, offset: 0x5AC70, size: 0x8, addend: 0x0, symName: __ZNKSt3__18ios_base5widthB8ne180100Ev, symObjAddr: 0x283D4, symBinAddr: 0x100029810, symSize: 0x18 }
  - { offsetInCU: 0x5AC98, offset: 0x5AC98, size: 0x8, addend: 0x0, symName: __ZNSt3__115basic_streambufIcNS_11char_traitsIcEEE5sputnB8ne180100EPKcl, symObjAddr: 0x283EC, symBinAddr: 0x100029828, symSize: 0x3C }
  - { offsetInCU: 0x5ACDA, offset: 0x5ACDA, size: 0x8, addend: 0x0, symName: __ZNSt3__112basic_stringIcNS_11char_traitsIcEENS_9allocatorIcEEEC1B8ne180100Emc, symObjAddr: 0x28428, symBinAddr: 0x100029864, symSize: 0x3C }
  - { offsetInCU: 0x5AD22, offset: 0x5AD22, size: 0x8, addend: 0x0, symName: __ZNSt3__112basic_stringIcNS_11char_traitsIcEENS_9allocatorIcEEE4dataB8ne180100Ev, symObjAddr: 0x28464, symBinAddr: 0x1000298A0, symSize: 0x28 }
  - { offsetInCU: 0x5AD48, offset: 0x5AD48, size: 0x8, addend: 0x0, symName: __ZNSt3__18ios_base5widthB8ne180100El, symObjAddr: 0x2848C, symBinAddr: 0x1000298C8, symSize: 0x2C }
  - { offsetInCU: 0x5AD8E, offset: 0x5AD8E, size: 0x8, addend: 0x0, symName: __ZNSt3__112basic_stringIcNS_11char_traitsIcEENS_9allocatorIcEEEC2B8ne180100Emc, symObjAddr: 0x284B8, symBinAddr: 0x1000298F4, symSize: 0x4C }
  - { offsetInCU: 0x5ADD6, offset: 0x5ADD6, size: 0x8, addend: 0x0, symName: __ZNSt3__119ostreambuf_iteratorIcNS_11char_traitsIcEEEC2B8ne180100ERNS_13basic_ostreamIcS2_EE, symObjAddr: 0x28504, symBinAddr: 0x100029940, symSize: 0x54 }
  - { offsetInCU: 0x5AE0E, offset: 0x5AE0E, size: 0x8, addend: 0x0, symName: __ZNSt3__111char_traitsIcE11eq_int_typeB8ne180100Eii, symObjAddr: 0x28558, symBinAddr: 0x100029994, symSize: 0x28 }
  - { offsetInCU: 0x5AE41, offset: 0x5AE41, size: 0x8, addend: 0x0, symName: __ZNKSt3__19basic_iosIcNS_11char_traitsIcEEE5widenB8ne180100Ec, symObjAddr: 0x28580, symBinAddr: 0x1000299BC, symSize: 0x84 }
  - { offsetInCU: 0x5AEAA, offset: 0x5AEAA, size: 0x8, addend: 0x0, symName: __ZNKSt3__15ctypeIcE5widenB8ne180100Ec, symObjAddr: 0x28630, symBinAddr: 0x100029A6C, symSize: 0x38 }
  - { offsetInCU: 0x5AEDF, offset: 0x5AEDF, size: 0x8, addend: 0x0, symName: __ZNSt3__16__treeINS_12__value_typeINS_12basic_stringIcNS_11char_traitsIcEENS_9allocatorIcEEEES7_EENS_19__map_value_compareIS7_S8_NS_4lessIS7_EELb1EEENS5_IS8_EEE15__insert_uniqueB8ne180100INS_4pairIS7_S7_EEvEENSG_INS_15__tree_iteratorIS8_PNS_11__tree_nodeIS8_PvEElEEbEEOT_, symObjAddr: 0x28668, symBinAddr: 0x100029AA4, symSize: 0x3C }
  - { offsetInCU: 0x5AF1E, offset: 0x5AF1E, size: 0x8, addend: 0x0, symName: __ZNSt3__14pairINS_14__map_iteratorINS_15__tree_iteratorINS_12__value_typeINS_12basic_stringIcNS_11char_traitsIcEENS_9allocatorIcEEEES9_EEPNS_11__tree_nodeISA_PvEElEEEEbEC1B8ne180100ISF_bLi0EEEONS0_IT_T0_EE, symObjAddr: 0x286A4, symBinAddr: 0x100029AE0, symSize: 0x34 }
  - { offsetInCU: 0x5AF6E, offset: 0x5AF6E, size: 0x8, addend: 0x0, symName: __ZNSt3__16__treeINS_12__value_typeINS_12basic_stringIcNS_11char_traitsIcEENS_9allocatorIcEEEES7_EENS_19__map_value_compareIS7_S8_NS_4lessIS7_EELb1EEENS5_IS8_EEE16__emplace_uniqueB8ne180100INS_4pairIS7_S7_EEEENSG_INS_15__tree_iteratorIS8_PNS_11__tree_nodeIS8_PvEElEEbEEOT_, symObjAddr: 0x286D8, symBinAddr: 0x100029B14, symSize: 0x3C }
  - { offsetInCU: 0x5AFAC, offset: 0x5AFAC, size: 0x8, addend: 0x0, symName: __ZNSt3__16__treeINS_12__value_typeINS_12basic_stringIcNS_11char_traitsIcEENS_9allocatorIcEEEES7_EENS_19__map_value_compareIS7_S8_NS_4lessIS7_EELb1EEENS5_IS8_EEE28__emplace_unique_extract_keyB8ne180100INS_4pairIS7_S7_EEEENSG_INS_15__tree_iteratorIS8_PNS_11__tree_nodeIS8_PvEElEEbEEOT_NS_23__extract_key_first_tagE, symObjAddr: 0x28714, symBinAddr: 0x100029B50, symSize: 0x40 }
  - { offsetInCU: 0x5AFF6, offset: 0x5AFF6, size: 0x8, addend: 0x0, symName: __ZNSt3__16__treeINS_12__value_typeINS_12basic_stringIcNS_11char_traitsIcEENS_9allocatorIcEEEES7_EENS_19__map_value_compareIS7_S8_NS_4lessIS7_EELb1EEENS5_IS8_EEE25__emplace_unique_key_argsIS7_JNS_4pairIS7_S7_EEEEENSG_INS_15__tree_iteratorIS8_PNS_11__tree_nodeIS8_PvEElEEbEERKT_DpOT0_, symObjAddr: 0x28754, symBinAddr: 0x100029B90, symSize: 0xF0 }
  - { offsetInCU: 0x5B0A2, offset: 0x5B0A2, size: 0x8, addend: 0x0, symName: __ZNSt3__16__treeINS_12__value_typeINS_12basic_stringIcNS_11char_traitsIcEENS_9allocatorIcEEEES7_EENS_19__map_value_compareIS7_S8_NS_4lessIS7_EELb1EEENS5_IS8_EEE16__construct_nodeIJNS_4pairIS7_S7_EEEEENS_10unique_ptrINS_11__tree_nodeIS8_PvEENS_22__tree_node_destructorINS5_ISL_EEEEEEDpOT_, symObjAddr: 0x28844, symBinAddr: 0x100029C80, symSize: 0x110 }
  - { offsetInCU: 0x5B103, offset: 0x5B103, size: 0x8, addend: 0x0, symName: __ZNSt3__116allocator_traitsINS_9allocatorINS_11__tree_nodeINS_12__value_typeINS_12basic_stringIcNS_11char_traitsIcEENS1_IcEEEES8_EEPvEEEEE9constructB8ne180100INS_4pairIKS8_S8_EEJNSF_IS8_S8_EEEvEEvRSC_PT_DpOT0_, symObjAddr: 0x28954, symBinAddr: 0x100029D90, symSize: 0x34 }
  - { offsetInCU: 0x5B15A, offset: 0x5B15A, size: 0x8, addend: 0x0, symName: __ZNSt3__19allocatorINS_11__tree_nodeINS_12__value_typeINS_12basic_stringIcNS_11char_traitsIcEENS0_IcEEEES7_EEPvEEE9constructB8ne180100INS_4pairIKS7_S7_EEJNSD_IS7_S7_EEEEEvPT_DpOT0_, symObjAddr: 0x28988, symBinAddr: 0x100029DC4, symSize: 0x30 }
  - { offsetInCU: 0x5B1B0, offset: 0x5B1B0, size: 0x8, addend: 0x0, symName: __ZNSt3__14pairIKNS_12basic_stringIcNS_11char_traitsIcEENS_9allocatorIcEEEES6_EC1B8ne180100IS6_S6_Li0EEEONS0_IT_T0_EE, symObjAddr: 0x289B8, symBinAddr: 0x100029DF4, symSize: 0x34 }
  - { offsetInCU: 0x5B200, offset: 0x5B200, size: 0x8, addend: 0x0, symName: __ZNSt3__14pairIKNS_12basic_stringIcNS_11char_traitsIcEENS_9allocatorIcEEEES6_EC2B8ne180100IS6_S6_Li0EEEONS0_IT_T0_EE, symObjAddr: 0x289EC, symBinAddr: 0x100029E28, symSize: 0x48 }
  - { offsetInCU: 0x5B250, offset: 0x5B250, size: 0x8, addend: 0x0, symName: __ZNSt3__14pairINS_14__map_iteratorINS_15__tree_iteratorINS_12__value_typeINS_12basic_stringIcNS_11char_traitsIcEENS_9allocatorIcEEEES9_EEPNS_11__tree_nodeISA_PvEElEEEEbEC2B8ne180100ISF_bLi0EEEONS0_IT_T0_EE, symObjAddr: 0x28A34, symBinAddr: 0x100029E70, symSize: 0x50 }
  - { offsetInCU: 0x5B2A0, offset: 0x5B2A0, size: 0x8, addend: 0x0, symName: __ZNSt3__16vectorINS_12basic_stringIcNS_11char_traitsIcEENS_9allocatorIcEEEENS4_IS6_EEEC2B8ne180100Ev, symObjAddr: 0x28A84, symBinAddr: 0x100029EC0, symSize: 0x4C }
  - { offsetInCU: 0x5B2CA, offset: 0x5B2CA, size: 0x8, addend: 0x0, symName: __ZNSt3__117__compressed_pairIPNS_12basic_stringIcNS_11char_traitsIcEENS_9allocatorIcEEEENS4_IS6_EEEC1B8ne180100IDnNS_18__default_init_tagEEEOT_OT0_, symObjAddr: 0x28AD0, symBinAddr: 0x100029F0C, symSize: 0x3C }
  - { offsetInCU: 0x5B322, offset: 0x5B322, size: 0x8, addend: 0x0, symName: __ZNSt3__117__compressed_pairIPNS_12basic_stringIcNS_11char_traitsIcEENS_9allocatorIcEEEENS4_IS6_EEEC2B8ne180100IDnNS_18__default_init_tagEEEOT_OT0_, symObjAddr: 0x28B0C, symBinAddr: 0x100029F48, symSize: 0x40 }
  - { offsetInCU: 0x5B37A, offset: 0x5B37A, size: 0x8, addend: 0x0, symName: __ZNSt3__122__compressed_pair_elemINS_9allocatorINS_12basic_stringIcNS_11char_traitsIcEENS1_IcEEEEEELi1ELb1EEC2B8ne180100ENS_18__default_init_tagE, symObjAddr: 0x28B4C, symBinAddr: 0x100029F88, symSize: 0x2C }
  - { offsetInCU: 0x5B3AF, offset: 0x5B3AF, size: 0x8, addend: 0x0, symName: __ZNSt3__19allocatorINS_12basic_stringIcNS_11char_traitsIcEENS0_IcEEEEEC2B8ne180100Ev, symObjAddr: 0x28B78, symBinAddr: 0x100029FB4, symSize: 0x2C }
  - { offsetInCU: 0x5B3D9, offset: 0x5B3D9, size: 0x8, addend: 0x0, symName: __ZNSt3__116__non_trivial_ifILb1ENS_9allocatorINS_12basic_stringIcNS_11char_traitsIcEENS1_IcEEEEEEEC2B8ne180100Ev, symObjAddr: 0x28BA4, symBinAddr: 0x100029FE0, symSize: 0x14 }
  - { offsetInCU: 0x5B403, offset: 0x5B403, size: 0x8, addend: 0x0, symName: __ZNSt3__16vectorINS_12basic_stringIcNS_11char_traitsIcEENS_9allocatorIcEEEENS4_IS6_EEED2B8ne180100Ev, symObjAddr: 0x28BB8, symBinAddr: 0x100029FF4, symSize: 0x40 }
  - { offsetInCU: 0x5B42D, offset: 0x5B42D, size: 0x8, addend: 0x0, symName: __ZNSt3__111char_traitsIcE12to_char_typeB8ne180100Ei, symObjAddr: 0x28BF8, symBinAddr: 0x10002A034, symSize: 0x18 }
  - { offsetInCU: 0x5B451, offset: 0x5B451, size: 0x8, addend: 0x0, symName: __ZNSt3__111char_traitsIcE2eqEcc, symObjAddr: 0x28C10, symBinAddr: 0x10002A04C, symSize: 0x28 }
  - { offsetInCU: 0x5B482, offset: 0x5B482, size: 0x8, addend: 0x0, symName: __ZNSt3__18ios_base18__setstate_nothrowB8ne180100Ej, symObjAddr: 0x28C38, symBinAddr: 0x10002A074, symSize: 0x64 }
  - { offsetInCU: 0x5B4B7, offset: 0x5B4B7, size: 0x8, addend: 0x0, symName: __ZNKSt3__19basic_iosIcNS_11char_traitsIcEEE10exceptionsB8ne180100Ev, symObjAddr: 0x28C9C, symBinAddr: 0x10002A0D8, symSize: 0x24 }
  - { offsetInCU: 0x5B4DD, offset: 0x5B4DD, size: 0x8, addend: 0x0, symName: __ZNKSt3__18ios_base10exceptionsB8ne180100Ev, symObjAddr: 0x28CC0, symBinAddr: 0x10002A0FC, symSize: 0x18 }
  - { offsetInCU: 0x5B505, offset: 0x5B505, size: 0x8, addend: 0x0, symName: __ZNKSt3__19basic_iosIcNS_11char_traitsIcEEE4failB8ne180100Ev, symObjAddr: 0x28CD8, symBinAddr: 0x10002A114, symSize: 0x28 }
  - { offsetInCU: 0x5B52B, offset: 0x5B52B, size: 0x8, addend: 0x0, symName: __ZNKSt3__18ios_base4failB8ne180100Ev, symObjAddr: 0x28D00, symBinAddr: 0x10002A13C, symSize: 0x28 }
  - { offsetInCU: 0x5B553, offset: 0x5B553, size: 0x8, addend: 0x0, symName: __ZNKSt3__16vectorIN7tinyobj7shape_tENS_9allocatorIS2_EEE17__annotate_shrinkB8ne180100Em, symObjAddr: 0x28D28, symBinAddr: 0x10002A164, symSize: 0x14 }
  - { offsetInCU: 0x5B588, offset: 0x5B588, size: 0x8, addend: 0x0, symName: __ZNSt3__16vectorIN7tinyobj5tag_tENS_9allocatorIS2_EEEC2B8ne180100Ev, symObjAddr: 0x28D3C, symBinAddr: 0x10002A178, symSize: 0x4C }
  - { offsetInCU: 0x5B5B2, offset: 0x5B5B2, size: 0x8, addend: 0x0, symName: __ZNSt3__117__compressed_pairIPN7tinyobj5tag_tENS_9allocatorIS2_EEEC1B8ne180100IDnNS_18__default_init_tagEEEOT_OT0_, symObjAddr: 0x28D88, symBinAddr: 0x10002A1C4, symSize: 0x3C }
  - { offsetInCU: 0x5B60A, offset: 0x5B60A, size: 0x8, addend: 0x0, symName: __ZNSt3__117__compressed_pairIPN7tinyobj5tag_tENS_9allocatorIS2_EEEC2B8ne180100IDnNS_18__default_init_tagEEEOT_OT0_, symObjAddr: 0x28DC4, symBinAddr: 0x10002A200, symSize: 0x40 }
  - { offsetInCU: 0x5B662, offset: 0x5B662, size: 0x8, addend: 0x0, symName: __ZNSt3__122__compressed_pair_elemIPN7tinyobj5tag_tELi0ELb0EEC2B8ne180100IDnvEEOT_, symObjAddr: 0x28E04, symBinAddr: 0x10002A240, symSize: 0x1C }
  - { offsetInCU: 0x5B6A4, offset: 0x5B6A4, size: 0x8, addend: 0x0, symName: __ZNSt3__122__compressed_pair_elemINS_9allocatorIN7tinyobj5tag_tEEELi1ELb1EEC2B8ne180100ENS_18__default_init_tagE, symObjAddr: 0x28E20, symBinAddr: 0x10002A25C, symSize: 0x2C }
  - { offsetInCU: 0x5B6D9, offset: 0x5B6D9, size: 0x8, addend: 0x0, symName: __ZNSt3__19allocatorIN7tinyobj5tag_tEEC2B8ne180100Ev, symObjAddr: 0x28E4C, symBinAddr: 0x10002A288, symSize: 0x2C }
  - { offsetInCU: 0x5B703, offset: 0x5B703, size: 0x8, addend: 0x0, symName: __ZNSt3__116__non_trivial_ifILb1ENS_9allocatorIN7tinyobj5tag_tEEEEC2B8ne180100Ev, symObjAddr: 0x28E78, symBinAddr: 0x10002A2B4, symSize: 0x14 }
  - { offsetInCU: 0x5B72D, offset: 0x5B72D, size: 0x8, addend: 0x0, symName: __ZNSt3__16vectorIN7tinyobj5tag_tENS_9allocatorIS2_EEED2B8ne180100Ev, symObjAddr: 0x28E8C, symBinAddr: 0x10002A2C8, symSize: 0x44 }
  - { offsetInCU: 0x5B757, offset: 0x5B757, size: 0x8, addend: 0x0, symName: __ZNSt3__16vectorIN7tinyobj5tag_tENS_9allocatorIS2_EEE16__destroy_vectorC1B8ne180100ERS5_, symObjAddr: 0x28ED0, symBinAddr: 0x10002A30C, symSize: 0x34 }
  - { offsetInCU: 0x5B790, offset: 0x5B790, size: 0x8, addend: 0x0, symName: __ZNSt3__16vectorIN7tinyobj5tag_tENS_9allocatorIS2_EEE16__destroy_vectorclB8ne180100Ev, symObjAddr: 0x28F04, symBinAddr: 0x10002A340, symSize: 0x90 }
  - { offsetInCU: 0x5B7B6, offset: 0x5B7B6, size: 0x8, addend: 0x0, symName: __ZNSt3__16vectorIN7tinyobj5tag_tENS_9allocatorIS2_EEE16__destroy_vectorC2B8ne180100ERS5_, symObjAddr: 0x28F94, symBinAddr: 0x10002A3D0, symSize: 0x20 }
  - { offsetInCU: 0x5B7EF, offset: 0x5B7EF, size: 0x8, addend: 0x0, symName: __ZNSt3__13setINS_12basic_stringIcNS_11char_traitsIcEENS_9allocatorIcEEEENS_4lessIS6_EENS4_IS6_EEEC2B8ne180100Ev, symObjAddr: 0x28FB4, symBinAddr: 0x10002A3F0, symSize: 0x30 }
  - { offsetInCU: 0x5B819, offset: 0x5B819, size: 0x8, addend: 0x0, symName: __ZNSt3__16__treeINS_12basic_stringIcNS_11char_traitsIcEENS_9allocatorIcEEEENS_4lessIS6_EENS4_IS6_EEEC1ERKS8_, symObjAddr: 0x28FE4, symBinAddr: 0x10002A420, symSize: 0x34 }
  - { offsetInCU: 0x5B854, offset: 0x5B854, size: 0x8, addend: 0x0, symName: __ZNSt3__16__treeINS_12basic_stringIcNS_11char_traitsIcEENS_9allocatorIcEEEENS_4lessIS6_EENS4_IS6_EEEC2ERKS8_, symObjAddr: 0x29018, symBinAddr: 0x10002A454, symSize: 0x7C }
  - { offsetInCU: 0x5B88F, offset: 0x5B88F, size: 0x8, addend: 0x0, symName: __ZNSt3__117__compressed_pairINS_15__tree_end_nodeIPNS_16__tree_node_baseIPvEEEENS_9allocatorINS_11__tree_nodeINS_12basic_stringIcNS_11char_traitsIcEENS7_IcEEEES3_EEEEEC1B8ne180100ILb1EvEEv, symObjAddr: 0x29094, symBinAddr: 0x10002A4D0, symSize: 0x2C }
  - { offsetInCU: 0x5B8C4, offset: 0x5B8C4, size: 0x8, addend: 0x0, symName: __ZNSt3__117__compressed_pairImNS_4lessINS_12basic_stringIcNS_11char_traitsIcEENS_9allocatorIcEEEEEEEC1B8ne180100IiRKS8_EEOT_OT0_, symObjAddr: 0x290C0, symBinAddr: 0x10002A4FC, symSize: 0x3C }
  - { offsetInCU: 0x5B91C, offset: 0x5B91C, size: 0x8, addend: 0x0, symName: __ZNSt3__16__treeINS_12basic_stringIcNS_11char_traitsIcEENS_9allocatorIcEEEENS_4lessIS6_EENS4_IS6_EEE10__end_nodeB8ne180100Ev, symObjAddr: 0x290FC, symBinAddr: 0x10002A538, symSize: 0x2C }
  - { offsetInCU: 0x5B942, offset: 0x5B942, size: 0x8, addend: 0x0, symName: __ZNSt3__16__treeINS_12basic_stringIcNS_11char_traitsIcEENS_9allocatorIcEEEENS_4lessIS6_EENS4_IS6_EEE12__begin_nodeB8ne180100Ev, symObjAddr: 0x29128, symBinAddr: 0x10002A564, symSize: 0x14 }
  - { offsetInCU: 0x5B968, offset: 0x5B968, size: 0x8, addend: 0x0, symName: __ZNSt3__117__compressed_pairINS_15__tree_end_nodeIPNS_16__tree_node_baseIPvEEEENS_9allocatorINS_11__tree_nodeINS_12basic_stringIcNS_11char_traitsIcEENS7_IcEEEES3_EEEEEC2B8ne180100ILb1EvEEv, symObjAddr: 0x2913C, symBinAddr: 0x10002A578, symSize: 0x34 }
  - { offsetInCU: 0x5B99D, offset: 0x5B99D, size: 0x8, addend: 0x0, symName: __ZNSt3__122__compressed_pair_elemINS_9allocatorINS_11__tree_nodeINS_12basic_stringIcNS_11char_traitsIcEENS1_IcEEEEPvEEEELi1ELb1EEC2B8ne180100ENS_16__value_init_tagE, symObjAddr: 0x29170, symBinAddr: 0x10002A5AC, symSize: 0x2C }
  - { offsetInCU: 0x5B9D2, offset: 0x5B9D2, size: 0x8, addend: 0x0, symName: __ZNSt3__19allocatorINS_11__tree_nodeINS_12basic_stringIcNS_11char_traitsIcEENS0_IcEEEEPvEEEC2B8ne180100Ev, symObjAddr: 0x2919C, symBinAddr: 0x10002A5D8, symSize: 0x2C }
  - { offsetInCU: 0x5B9FC, offset: 0x5B9FC, size: 0x8, addend: 0x0, symName: __ZNSt3__116__non_trivial_ifILb1ENS_9allocatorINS_11__tree_nodeINS_12basic_stringIcNS_11char_traitsIcEENS1_IcEEEEPvEEEEEC2B8ne180100Ev, symObjAddr: 0x291C8, symBinAddr: 0x10002A604, symSize: 0x14 }
  - { offsetInCU: 0x5BA26, offset: 0x5BA26, size: 0x8, addend: 0x0, symName: __ZNSt3__117__compressed_pairImNS_4lessINS_12basic_stringIcNS_11char_traitsIcEENS_9allocatorIcEEEEEEEC2B8ne180100IiRKS8_EEOT_OT0_, symObjAddr: 0x291DC, symBinAddr: 0x10002A618, symSize: 0x44 }
  - { offsetInCU: 0x5BA7E, offset: 0x5BA7E, size: 0x8, addend: 0x0, symName: __ZNSt3__122__compressed_pair_elemINS_4lessINS_12basic_stringIcNS_11char_traitsIcEENS_9allocatorIcEEEEEELi1ELb1EEC2B8ne180100IRKS8_vEEOT_, symObjAddr: 0x29220, symBinAddr: 0x10002A65C, symSize: 0x18 }
  - { offsetInCU: 0x5BAC0, offset: 0x5BAC0, size: 0x8, addend: 0x0, symName: __ZNSt3__117__compressed_pairINS_15__tree_end_nodeIPNS_16__tree_node_baseIPvEEEENS_9allocatorINS_11__tree_nodeINS_12basic_stringIcNS_11char_traitsIcEENS7_IcEEEES3_EEEEE5firstB8ne180100Ev, symObjAddr: 0x29238, symBinAddr: 0x10002A674, symSize: 0x24 }
  - { offsetInCU: 0x5BAE6, offset: 0x5BAE6, size: 0x8, addend: 0x0, symName: __ZNSt3__13setINS_12basic_stringIcNS_11char_traitsIcEENS_9allocatorIcEEEENS_4lessIS6_EENS4_IS6_EEED2B8ne180100Ev, symObjAddr: 0x2925C, symBinAddr: 0x10002A698, symSize: 0x2C }
  - { offsetInCU: 0x5BB10, offset: 0x5BB10, size: 0x8, addend: 0x0, symName: __ZNSt3__16__treeINS_12basic_stringIcNS_11char_traitsIcEENS_9allocatorIcEEEENS_4lessIS6_EENS4_IS6_EEED1Ev, symObjAddr: 0x29288, symBinAddr: 0x10002A6C4, symSize: 0x2C }
  - { offsetInCU: 0x5BB3C, offset: 0x5BB3C, size: 0x8, addend: 0x0, symName: __ZNSt3__16__treeINS_12basic_stringIcNS_11char_traitsIcEENS_9allocatorIcEEEENS_4lessIS6_EENS4_IS6_EEED2Ev, symObjAddr: 0x292B4, symBinAddr: 0x10002A6F0, symSize: 0x38 }
  - { offsetInCU: 0x5BB68, offset: 0x5BB68, size: 0x8, addend: 0x0, symName: __ZNSt3__16__treeINS_12basic_stringIcNS_11char_traitsIcEENS_9allocatorIcEEEENS_4lessIS6_EENS4_IS6_EEE7destroyEPNS_11__tree_nodeIS6_PvEE, symObjAddr: 0x292EC, symBinAddr: 0x10002A728, symSize: 0xAC }
  - { offsetInCU: 0x5BBB4, offset: 0x5BBB4, size: 0x8, addend: 0x0, symName: __ZNKSt3__16__treeINS_12basic_stringIcNS_11char_traitsIcEENS_9allocatorIcEEEENS_4lessIS6_EENS4_IS6_EEE6__rootB8ne180100Ev, symObjAddr: 0x29398, symBinAddr: 0x10002A7D4, symSize: 0x28 }
  - { offsetInCU: 0x5BBDA, offset: 0x5BBDA, size: 0x8, addend: 0x0, symName: __ZNSt3__16__treeINS_12basic_stringIcNS_11char_traitsIcEENS_9allocatorIcEEEENS_4lessIS6_EENS4_IS6_EEE12__node_allocB8ne180100Ev, symObjAddr: 0x293C0, symBinAddr: 0x10002A7FC, symSize: 0x28 }
  - { offsetInCU: 0x5BC00, offset: 0x5BC00, size: 0x8, addend: 0x0, symName: __ZNSt3__116allocator_traitsINS_9allocatorINS_11__tree_nodeINS_12basic_stringIcNS_11char_traitsIcEENS1_IcEEEEPvEEEEE7destroyB8ne180100IS7_vvEEvRSA_PT_, symObjAddr: 0x293E8, symBinAddr: 0x10002A824, symSize: 0x28 }
  - { offsetInCU: 0x5BC3B, offset: 0x5BC3B, size: 0x8, addend: 0x0, symName: __ZNSt3__122__tree_key_value_typesINS_12basic_stringIcNS_11char_traitsIcEENS_9allocatorIcEEEEE9__get_ptrB8ne180100ERS6_, symObjAddr: 0x29410, symBinAddr: 0x10002A84C, symSize: 0x14 }
  - { offsetInCU: 0x5BC5F, offset: 0x5BC5F, size: 0x8, addend: 0x0, symName: __ZNSt3__116allocator_traitsINS_9allocatorINS_11__tree_nodeINS_12basic_stringIcNS_11char_traitsIcEENS1_IcEEEEPvEEEEE10deallocateB8ne180100ERSA_PS9_m, symObjAddr: 0x29424, symBinAddr: 0x10002A860, symSize: 0x34 }
  - { offsetInCU: 0x5BCA1, offset: 0x5BCA1, size: 0x8, addend: 0x0, symName: __ZNSt3__117__compressed_pairINS_15__tree_end_nodeIPNS_16__tree_node_baseIPvEEEENS_9allocatorINS_11__tree_nodeINS_12basic_stringIcNS_11char_traitsIcEENS7_IcEEEES3_EEEEE6secondB8ne180100Ev, symObjAddr: 0x29458, symBinAddr: 0x10002A894, symSize: 0x24 }
  - { offsetInCU: 0x5BCC7, offset: 0x5BCC7, size: 0x8, addend: 0x0, symName: __ZNSt3__122__compressed_pair_elemINS_9allocatorINS_11__tree_nodeINS_12basic_stringIcNS_11char_traitsIcEENS1_IcEEEEPvEEEELi1ELb1EE5__getB8ne180100Ev, symObjAddr: 0x2947C, symBinAddr: 0x10002A8B8, symSize: 0x14 }
  - { offsetInCU: 0x5BCED, offset: 0x5BCED, size: 0x8, addend: 0x0, symName: __ZNSt3__19allocatorINS_11__tree_nodeINS_12basic_stringIcNS_11char_traitsIcEENS0_IcEEEEPvEEE10deallocateB8ne180100EPS8_m, symObjAddr: 0x294B4, symBinAddr: 0x10002A8F0, symSize: 0x44 }
  - { offsetInCU: 0x5BD2F, offset: 0x5BD2F, size: 0x8, addend: 0x0, symName: __ZNKSt3__16__treeINS_12basic_stringIcNS_11char_traitsIcEENS_9allocatorIcEEEENS_4lessIS6_EENS4_IS6_EEE10__end_nodeB8ne180100Ev, symObjAddr: 0x294F8, symBinAddr: 0x10002A934, symSize: 0x2C }
  - { offsetInCU: 0x5BD55, offset: 0x5BD55, size: 0x8, addend: 0x0, symName: __ZNKSt3__117__compressed_pairINS_15__tree_end_nodeIPNS_16__tree_node_baseIPvEEEENS_9allocatorINS_11__tree_nodeINS_12basic_stringIcNS_11char_traitsIcEENS7_IcEEEES3_EEEEE5firstB8ne180100Ev, symObjAddr: 0x29524, symBinAddr: 0x10002A960, symSize: 0x24 }
  - { offsetInCU: 0x5BD7B, offset: 0x5BD7B, size: 0x8, addend: 0x0, symName: __ZNSt3__13mapINS_12basic_stringIcNS_11char_traitsIcEENS_9allocatorIcEEEEiNS_4lessIS6_EENS4_INS_4pairIKS6_iEEEEEC2B8ne180100Ev, symObjAddr: 0x29548, symBinAddr: 0x10002A984, symSize: 0x40 }
  - { offsetInCU: 0x5BDA5, offset: 0x5BDA5, size: 0x8, addend: 0x0, symName: __ZNSt3__119__map_value_compareINS_12basic_stringIcNS_11char_traitsIcEENS_9allocatorIcEEEENS_12__value_typeIS6_iEENS_4lessIS6_EELb1EEC1B8ne180100ESA_, symObjAddr: 0x29588, symBinAddr: 0x10002A9C4, symSize: 0x2C }
  - { offsetInCU: 0x5BDDE, offset: 0x5BDDE, size: 0x8, addend: 0x0, symName: __ZNSt3__16__treeINS_12__value_typeINS_12basic_stringIcNS_11char_traitsIcEENS_9allocatorIcEEEEiEENS_19__map_value_compareIS7_S8_NS_4lessIS7_EELb1EEENS5_IS8_EEEC1ERKSC_, symObjAddr: 0x295B4, symBinAddr: 0x10002A9F0, symSize: 0x34 }
  - { offsetInCU: 0x5BE19, offset: 0x5BE19, size: 0x8, addend: 0x0, symName: __ZNSt3__119__map_value_compareINS_12basic_stringIcNS_11char_traitsIcEENS_9allocatorIcEEEENS_12__value_typeIS6_iEENS_4lessIS6_EELb1EEC2B8ne180100ESA_, symObjAddr: 0x295E8, symBinAddr: 0x10002AA24, symSize: 0x14 }
  - { offsetInCU: 0x5BE52, offset: 0x5BE52, size: 0x8, addend: 0x0, symName: __ZNSt3__16__treeINS_12__value_typeINS_12basic_stringIcNS_11char_traitsIcEENS_9allocatorIcEEEEiEENS_19__map_value_compareIS7_S8_NS_4lessIS7_EELb1EEENS5_IS8_EEEC2ERKSC_, symObjAddr: 0x295FC, symBinAddr: 0x10002AA38, symSize: 0x7C }
  - { offsetInCU: 0x5BE8D, offset: 0x5BE8D, size: 0x8, addend: 0x0, symName: __ZNSt3__117__compressed_pairINS_15__tree_end_nodeIPNS_16__tree_node_baseIPvEEEENS_9allocatorINS_11__tree_nodeINS_12__value_typeINS_12basic_stringIcNS_11char_traitsIcEENS7_IcEEEEiEES3_EEEEEC1B8ne180100ILb1EvEEv, symObjAddr: 0x29678, symBinAddr: 0x10002AAB4, symSize: 0x2C }
  - { offsetInCU: 0x5BEC2, offset: 0x5BEC2, size: 0x8, addend: 0x0, symName: __ZNSt3__117__compressed_pairImNS_19__map_value_compareINS_12basic_stringIcNS_11char_traitsIcEENS_9allocatorIcEEEENS_12__value_typeIS7_iEENS_4lessIS7_EELb1EEEEC1B8ne180100IiRKSC_EEOT_OT0_, symObjAddr: 0x296A4, symBinAddr: 0x10002AAE0, symSize: 0x3C }
  - { offsetInCU: 0x5BF1A, offset: 0x5BF1A, size: 0x8, addend: 0x0, symName: __ZNSt3__117__compressed_pairINS_15__tree_end_nodeIPNS_16__tree_node_baseIPvEEEENS_9allocatorINS_11__tree_nodeINS_12__value_typeINS_12basic_stringIcNS_11char_traitsIcEENS7_IcEEEEiEES3_EEEEEC2B8ne180100ILb1EvEEv, symObjAddr: 0x296E0, symBinAddr: 0x10002AB1C, symSize: 0x34 }
  - { offsetInCU: 0x5BF4F, offset: 0x5BF4F, size: 0x8, addend: 0x0, symName: __ZNSt3__122__compressed_pair_elemINS_9allocatorINS_11__tree_nodeINS_12__value_typeINS_12basic_stringIcNS_11char_traitsIcEENS1_IcEEEEiEEPvEEEELi1ELb1EEC2B8ne180100ENS_16__value_init_tagE, symObjAddr: 0x29714, symBinAddr: 0x10002AB50, symSize: 0x2C }
  - { offsetInCU: 0x5BF84, offset: 0x5BF84, size: 0x8, addend: 0x0, symName: __ZNSt3__19allocatorINS_11__tree_nodeINS_12__value_typeINS_12basic_stringIcNS_11char_traitsIcEENS0_IcEEEEiEEPvEEEC2B8ne180100Ev, symObjAddr: 0x29740, symBinAddr: 0x10002AB7C, symSize: 0x2C }
  - { offsetInCU: 0x5BFAE, offset: 0x5BFAE, size: 0x8, addend: 0x0, symName: __ZNSt3__116__non_trivial_ifILb1ENS_9allocatorINS_11__tree_nodeINS_12__value_typeINS_12basic_stringIcNS_11char_traitsIcEENS1_IcEEEEiEEPvEEEEEC2B8ne180100Ev, symObjAddr: 0x2976C, symBinAddr: 0x10002ABA8, symSize: 0x14 }
  - { offsetInCU: 0x5BFD8, offset: 0x5BFD8, size: 0x8, addend: 0x0, symName: __ZNSt3__117__compressed_pairImNS_19__map_value_compareINS_12basic_stringIcNS_11char_traitsIcEENS_9allocatorIcEEEENS_12__value_typeIS7_iEENS_4lessIS7_EELb1EEEEC2B8ne180100IiRKSC_EEOT_OT0_, symObjAddr: 0x29780, symBinAddr: 0x10002ABBC, symSize: 0x44 }
  - { offsetInCU: 0x5C030, offset: 0x5C030, size: 0x8, addend: 0x0, symName: __ZNSt3__122__compressed_pair_elemINS_19__map_value_compareINS_12basic_stringIcNS_11char_traitsIcEENS_9allocatorIcEEEENS_12__value_typeIS7_iEENS_4lessIS7_EELb1EEELi1ELb1EEC2B8ne180100IRKSC_vEEOT_, symObjAddr: 0x297C4, symBinAddr: 0x10002AC00, symSize: 0x18 }
  - { offsetInCU: 0x5C072, offset: 0x5C072, size: 0x8, addend: 0x0, symName: __ZNSt3__13mapINS_12basic_stringIcNS_11char_traitsIcEENS_9allocatorIcEEEEiNS_4lessIS6_EENS4_INS_4pairIKS6_iEEEEED2B8ne180100Ev, symObjAddr: 0x297DC, symBinAddr: 0x10002AC18, symSize: 0x2C }
  - { offsetInCU: 0x5C09C, offset: 0x5C09C, size: 0x8, addend: 0x0, symName: __ZNSt3__16__treeINS_12__value_typeINS_12basic_stringIcNS_11char_traitsIcEENS_9allocatorIcEEEEiEENS_19__map_value_compareIS7_S8_NS_4lessIS7_EELb1EEENS5_IS8_EEED1Ev, symObjAddr: 0x29808, symBinAddr: 0x10002AC44, symSize: 0x2C }
  - { offsetInCU: 0x5C0C8, offset: 0x5C0C8, size: 0x8, addend: 0x0, symName: __ZNSt3__16__treeINS_12__value_typeINS_12basic_stringIcNS_11char_traitsIcEENS_9allocatorIcEEEEiEENS_19__map_value_compareIS7_S8_NS_4lessIS7_EELb1EEENS5_IS8_EEED2Ev, symObjAddr: 0x29834, symBinAddr: 0x10002AC70, symSize: 0x38 }
  - { offsetInCU: 0x5C0F4, offset: 0x5C0F4, size: 0x8, addend: 0x0, symName: __ZNSt3__16__treeINS_12__value_typeINS_12basic_stringIcNS_11char_traitsIcEENS_9allocatorIcEEEEiEENS_19__map_value_compareIS7_S8_NS_4lessIS7_EELb1EEENS5_IS8_EEE7destroyEPNS_11__tree_nodeIS8_PvEE, symObjAddr: 0x2986C, symBinAddr: 0x10002ACA8, symSize: 0xAC }
  - { offsetInCU: 0x5C140, offset: 0x5C140, size: 0x8, addend: 0x0, symName: __ZNSt3__16vectorIN7tinyobj7index_tENS_9allocatorIS2_EEEC2B8ne180100Ev, symObjAddr: 0x29918, symBinAddr: 0x10002AD54, symSize: 0x4C }
  - { offsetInCU: 0x5C16A, offset: 0x5C16A, size: 0x8, addend: 0x0, symName: __ZNSt3__117__compressed_pairIPN7tinyobj7index_tENS_9allocatorIS2_EEEC1B8ne180100IDnNS_18__default_init_tagEEEOT_OT0_, symObjAddr: 0x29964, symBinAddr: 0x10002ADA0, symSize: 0x3C }
  - { offsetInCU: 0x5C1C2, offset: 0x5C1C2, size: 0x8, addend: 0x0, symName: __ZNSt3__117__compressed_pairIPN7tinyobj7index_tENS_9allocatorIS2_EEEC2B8ne180100IDnNS_18__default_init_tagEEEOT_OT0_, symObjAddr: 0x299A0, symBinAddr: 0x10002ADDC, symSize: 0x40 }
  - { offsetInCU: 0x5C21A, offset: 0x5C21A, size: 0x8, addend: 0x0, symName: __ZNSt3__122__compressed_pair_elemINS_9allocatorIN7tinyobj7index_tEEELi1ELb1EEC2B8ne180100ENS_18__default_init_tagE, symObjAddr: 0x299E0, symBinAddr: 0x10002AE1C, symSize: 0x2C }
  - { offsetInCU: 0x5C24F, offset: 0x5C24F, size: 0x8, addend: 0x0, symName: __ZNSt3__19allocatorIN7tinyobj7index_tEEC2B8ne180100Ev, symObjAddr: 0x29A0C, symBinAddr: 0x10002AE48, symSize: 0x2C }
  - { offsetInCU: 0x5C279, offset: 0x5C279, size: 0x8, addend: 0x0, symName: __ZNSt3__116__non_trivial_ifILb1ENS_9allocatorIN7tinyobj7index_tEEEEC2B8ne180100Ev, symObjAddr: 0x29A38, symBinAddr: 0x10002AE74, symSize: 0x14 }
  - { offsetInCU: 0x5C2A3, offset: 0x5C2A3, size: 0x8, addend: 0x0, symName: __ZNSt3__16vectorIjNS_9allocatorIjEEEC2B8ne180100Ev, symObjAddr: 0x29A4C, symBinAddr: 0x10002AE88, symSize: 0x4C }
  - { offsetInCU: 0x5C2CD, offset: 0x5C2CD, size: 0x8, addend: 0x0, symName: __ZNSt3__117__compressed_pairIPjNS_9allocatorIjEEEC1B8ne180100IDnNS_18__default_init_tagEEEOT_OT0_, symObjAddr: 0x29A98, symBinAddr: 0x10002AED4, symSize: 0x3C }
  - { offsetInCU: 0x5C325, offset: 0x5C325, size: 0x8, addend: 0x0, symName: __ZNSt3__117__compressed_pairIPjNS_9allocatorIjEEEC2B8ne180100IDnNS_18__default_init_tagEEEOT_OT0_, symObjAddr: 0x29AD4, symBinAddr: 0x10002AF10, symSize: 0x40 }
  - { offsetInCU: 0x5C37D, offset: 0x5C37D, size: 0x8, addend: 0x0, symName: __ZNSt3__122__compressed_pair_elemINS_9allocatorIjEELi1ELb1EEC2B8ne180100ENS_18__default_init_tagE, symObjAddr: 0x29B14, symBinAddr: 0x10002AF50, symSize: 0x2C }
  - { offsetInCU: 0x5C3B2, offset: 0x5C3B2, size: 0x8, addend: 0x0, symName: __ZNSt3__19allocatorIjEC2B8ne180100Ev, symObjAddr: 0x29B40, symBinAddr: 0x10002AF7C, symSize: 0x2C }
  - { offsetInCU: 0x5C3DC, offset: 0x5C3DC, size: 0x8, addend: 0x0, symName: __ZNSt3__116__non_trivial_ifILb1ENS_9allocatorIjEEEC2B8ne180100Ev, symObjAddr: 0x29B6C, symBinAddr: 0x10002AFA8, symSize: 0x14 }
  - { offsetInCU: 0x5C406, offset: 0x5C406, size: 0x8, addend: 0x0, symName: __ZNSt3__16vectorIN7tinyobj7index_tENS_9allocatorIS2_EEED2B8ne180100Ev, symObjAddr: 0x29B80, symBinAddr: 0x10002AFBC, symSize: 0x44 }
  - { offsetInCU: 0x5C430, offset: 0x5C430, size: 0x8, addend: 0x0, symName: __ZNSt3__16vectorIN7tinyobj7index_tENS_9allocatorIS2_EEE16__destroy_vectorC1B8ne180100ERS5_, symObjAddr: 0x29BC4, symBinAddr: 0x10002B000, symSize: 0x34 }
  - { offsetInCU: 0x5C469, offset: 0x5C469, size: 0x8, addend: 0x0, symName: __ZNSt3__16vectorIN7tinyobj7index_tENS_9allocatorIS2_EEE16__destroy_vectorclB8ne180100Ev, symObjAddr: 0x29BF8, symBinAddr: 0x10002B034, symSize: 0x90 }
  - { offsetInCU: 0x5C48F, offset: 0x5C48F, size: 0x8, addend: 0x0, symName: __ZNSt3__16vectorIN7tinyobj7index_tENS_9allocatorIS2_EEE16__destroy_vectorC2B8ne180100ERS5_, symObjAddr: 0x29C88, symBinAddr: 0x10002B0C4, symSize: 0x20 }
  - { offsetInCU: 0x5C4C8, offset: 0x5C4C8, size: 0x8, addend: 0x0, symName: __ZNSt3__16vectorIN7tinyobj7index_tENS_9allocatorIS2_EEE7__clearB8ne180100Ev, symObjAddr: 0x29CA8, symBinAddr: 0x10002B0E4, symSize: 0x28 }
  - { offsetInCU: 0x5C4EE, offset: 0x5C4EE, size: 0x8, addend: 0x0, symName: __ZNSt3__16vectorIN7tinyobj7index_tENS_9allocatorIS2_EEE22__base_destruct_at_endB8ne180100EPS2_, symObjAddr: 0x29CD0, symBinAddr: 0x10002B10C, symSize: 0x8C }
  - { offsetInCU: 0x5C532, offset: 0x5C532, size: 0x8, addend: 0x0, symName: __ZNSt3__16vectorIjNS_9allocatorIjEEED2B8ne180100Ev, symObjAddr: 0x29D5C, symBinAddr: 0x10002B198, symSize: 0x44 }
  - { offsetInCU: 0x5C55C, offset: 0x5C55C, size: 0x8, addend: 0x0, symName: __ZNSt3__16vectorIjNS_9allocatorIjEEE16__destroy_vectorC1B8ne180100ERS3_, symObjAddr: 0x29DA0, symBinAddr: 0x10002B1DC, symSize: 0x34 }
  - { offsetInCU: 0x5C595, offset: 0x5C595, size: 0x8, addend: 0x0, symName: __ZNSt3__16vectorIjNS_9allocatorIjEEE16__destroy_vectorclB8ne180100Ev, symObjAddr: 0x29DD4, symBinAddr: 0x10002B210, symSize: 0x90 }
  - { offsetInCU: 0x5C5BB, offset: 0x5C5BB, size: 0x8, addend: 0x0, symName: __ZNSt3__16vectorIjNS_9allocatorIjEEE16__destroy_vectorC2B8ne180100ERS3_, symObjAddr: 0x29E64, symBinAddr: 0x10002B2A0, symSize: 0x20 }
  - { offsetInCU: 0x5C5F4, offset: 0x5C5F4, size: 0x8, addend: 0x0, symName: __ZNSt3__16vectorIfNS_9allocatorIfEEE22__construct_one_at_endB8ne180100IJRKfEEEvDpOT_, symObjAddr: 0x29E84, symBinAddr: 0x10002B2C0, symSize: 0x90 }
  - { offsetInCU: 0x5C643, offset: 0x5C643, size: 0x8, addend: 0x0, symName: __ZNSt3__16vectorIfNS_9allocatorIfEEE21__push_back_slow_pathIRKfEEPfOT_, symObjAddr: 0x29F14, symBinAddr: 0x10002B350, symSize: 0xE8 }
  - { offsetInCU: 0x5C6A1, offset: 0x5C6A1, size: 0x8, addend: 0x0, symName: __ZNSt3__116allocator_traitsINS_9allocatorIfEEE9constructB8ne180100IfJRKfEvEEvRS2_PT_DpOT0_, symObjAddr: 0x29FFC, symBinAddr: 0x10002B438, symSize: 0x34 }
  - { offsetInCU: 0x5C6F8, offset: 0x5C6F8, size: 0x8, addend: 0x0, symName: __ZNSt3__19allocatorIfE9constructB8ne180100IfJRKfEEEvPT_DpOT0_, symObjAddr: 0x2A030, symBinAddr: 0x10002B46C, symSize: 0x28 }
  - { offsetInCU: 0x5C74E, offset: 0x5C74E, size: 0x8, addend: 0x0, symName: __ZNSt3__114__split_bufferIfRNS_9allocatorIfEEEC1EmmS3_, symObjAddr: 0x2A058, symBinAddr: 0x10002B494, symSize: 0x44 }
  - { offsetInCU: 0x5C7A4, offset: 0x5C7A4, size: 0x8, addend: 0x0, symName: __ZNSt3__114__split_bufferIfRNS_9allocatorIfEEED1Ev, symObjAddr: 0x2A1AC, symBinAddr: 0x10002B5E8, symSize: 0x2C }
  - { offsetInCU: 0x5C7D0, offset: 0x5C7D0, size: 0x8, addend: 0x0, symName: __ZNSt3__114__split_bufferIfRNS_9allocatorIfEEEC2EmmS3_, symObjAddr: 0x2A1D8, symBinAddr: 0x10002B614, symSize: 0xD4 }
  - { offsetInCU: 0x5C843, offset: 0x5C843, size: 0x8, addend: 0x0, symName: __ZNSt3__117__compressed_pairIPfRNS_9allocatorIfEEEC1B8ne180100IDnS4_EEOT_OT0_, symObjAddr: 0x2A2AC, symBinAddr: 0x10002B6E8, symSize: 0x3C }
  - { offsetInCU: 0x5C89B, offset: 0x5C89B, size: 0x8, addend: 0x0, symName: __ZNSt3__114__split_bufferIfRNS_9allocatorIfEEE7__allocB8ne180100Ev, symObjAddr: 0x2A2E8, symBinAddr: 0x10002B724, symSize: 0x28 }
  - { offsetInCU: 0x5C8C1, offset: 0x5C8C1, size: 0x8, addend: 0x0, symName: __ZNSt3__114__split_bufferIfRNS_9allocatorIfEEE9__end_capB8ne180100Ev, symObjAddr: 0x2A310, symBinAddr: 0x10002B74C, symSize: 0x28 }
  - { offsetInCU: 0x5C8E7, offset: 0x5C8E7, size: 0x8, addend: 0x0, symName: __ZNSt3__117__compressed_pairIPfRNS_9allocatorIfEEEC2B8ne180100IDnS4_EEOT_OT0_, symObjAddr: 0x2A338, symBinAddr: 0x10002B774, symSize: 0x48 }
  - { offsetInCU: 0x5C93F, offset: 0x5C93F, size: 0x8, addend: 0x0, symName: __ZNSt3__122__compressed_pair_elemIRNS_9allocatorIfEELi1ELb0EEC2B8ne180100IS3_vEEOT_, symObjAddr: 0x2A380, symBinAddr: 0x10002B7BC, symSize: 0x20 }
  - { offsetInCU: 0x5C981, offset: 0x5C981, size: 0x8, addend: 0x0, symName: __ZNSt3__117__compressed_pairIPfRNS_9allocatorIfEEE6secondB8ne180100Ev, symObjAddr: 0x2A3A0, symBinAddr: 0x10002B7DC, symSize: 0x28 }
  - { offsetInCU: 0x5C9A7, offset: 0x5C9A7, size: 0x8, addend: 0x0, symName: __ZNSt3__122__compressed_pair_elemIRNS_9allocatorIfEELi1ELb0EE5__getB8ne180100Ev, symObjAddr: 0x2A3C8, symBinAddr: 0x10002B804, symSize: 0x18 }
  - { offsetInCU: 0x5C9CD, offset: 0x5C9CD, size: 0x8, addend: 0x0, symName: __ZNSt3__117__compressed_pairIPfRNS_9allocatorIfEEE5firstB8ne180100Ev, symObjAddr: 0x2A3E0, symBinAddr: 0x10002B81C, symSize: 0x24 }
  - { offsetInCU: 0x5C9F3, offset: 0x5C9F3, size: 0x8, addend: 0x0, symName: __ZNSt3__116reverse_iteratorIPfEC1B8ne180100ES1_, symObjAddr: 0x2A47C, symBinAddr: 0x10002B8B8, symSize: 0x34 }
  - { offsetInCU: 0x5CA2B, offset: 0x5CA2B, size: 0x8, addend: 0x0, symName: __ZNKSt3__116reverse_iteratorIPfE4baseB8ne180100Ev, symObjAddr: 0x2A4B0, symBinAddr: 0x10002B8EC, symSize: 0x18 }
  - { offsetInCU: 0x5CA6D, offset: 0x5CA6D, size: 0x8, addend: 0x0, symName: __ZNKSt3__111__move_loopINS_17_ClassicAlgPolicyEEclB8ne180100INS_16reverse_iteratorIPfEES6_S6_EENS_4pairIT_T1_EES8_T0_S9_, symObjAddr: 0x2A7F4, symBinAddr: 0x10002BC30, symSize: 0xA0 }
  - { offsetInCU: 0x5CADE, offset: 0x5CADE, size: 0x8, addend: 0x0, symName: __ZNSt3__18_IterOpsINS_17_ClassicAlgPolicyEE11__iter_moveB8ne180100IRNS_16reverse_iteratorIPfEELi0EEEDTclsr3stdE4movedeclsr3stdE7declvalIRT_EEEEOS8_, symObjAddr: 0x2AA28, symBinAddr: 0x10002BE64, symSize: 0x28 }
  - { offsetInCU: 0x5CB10, offset: 0x5CB10, size: 0x8, addend: 0x0, symName: __ZNKSt3__116reverse_iteratorIPfEdeB8ne180100Ev, symObjAddr: 0x2AA50, symBinAddr: 0x10002BE8C, symSize: 0x28 }
  - { offsetInCU: 0x5CB44, offset: 0x5CB44, size: 0x8, addend: 0x0, symName: __ZNSt3__116reverse_iteratorIPfEppB8ne180100Ev, symObjAddr: 0x2AA78, symBinAddr: 0x10002BEB4, symSize: 0x20 }
  - { offsetInCU: 0x5CB6A, offset: 0x5CB6A, size: 0x8, addend: 0x0, symName: __ZNSt3__18_IterOpsINS_17_ClassicAlgPolicyEE25__validate_iter_referenceB8ne180100IRNS_16reverse_iteratorIPfEEEEvv, symObjAddr: 0x2AA98, symBinAddr: 0x10002BED4, symSize: 0x4 }
  - { offsetInCU: 0x5CB88, offset: 0x5CB88, size: 0x8, addend: 0x0, symName: __ZNSt3__118__unwrap_iter_implINS_16reverse_iteratorIPfEELb0EE8__unwrapB8ne180100ES3_, symObjAddr: 0x2AA9C, symBinAddr: 0x10002BED8, symSize: 0x24 }
  - { offsetInCU: 0x5CBB1, offset: 0x5CBB1, size: 0x8, addend: 0x0, symName: __ZNSt3__14pairINS_16reverse_iteratorIPfEES3_EC1B8ne180100IS3_S3_Li0EEEOT_OT0_, symObjAddr: 0x2AAC0, symBinAddr: 0x10002BEFC, symSize: 0x3C }
  - { offsetInCU: 0x5CC0F, offset: 0x5CC0F, size: 0x8, addend: 0x0, symName: __ZNSt3__14pairINS_16reverse_iteratorIPfEES3_EC2B8ne180100IS3_S3_Li0EEEOT_OT0_, symObjAddr: 0x2AAFC, symBinAddr: 0x10002BF38, symSize: 0x34 }
  - { offsetInCU: 0x5CC6D, offset: 0x5CC6D, size: 0x8, addend: 0x0, symName: __ZNSt3__118__unwrap_iter_implINS_16reverse_iteratorIPfEELb0EE8__rewrapB8ne180100ES3_S3_, symObjAddr: 0x2AB30, symBinAddr: 0x10002BF6C, symSize: 0x2C }
  - { offsetInCU: 0x5CC9B, offset: 0x5CC9B, size: 0x8, addend: 0x0, symName: __ZNSt3__116reverse_iteratorIPfEC2B8ne180100ES1_, symObjAddr: 0x2AB5C, symBinAddr: 0x10002BF98, symSize: 0x28 }
  - { offsetInCU: 0x5CCD3, offset: 0x5CCD3, size: 0x8, addend: 0x0, symName: __ZNSt3__114__split_bufferIfRNS_9allocatorIfEEED2Ev, symObjAddr: 0x2AB84, symBinAddr: 0x10002BFC0, symSize: 0x8C }
  - { offsetInCU: 0x5CCFF, offset: 0x5CCFF, size: 0x8, addend: 0x0, symName: __ZNSt3__114__split_bufferIfRNS_9allocatorIfEEE5clearB8ne180100Ev, symObjAddr: 0x2AC10, symBinAddr: 0x10002C04C, symSize: 0x28 }
  - { offsetInCU: 0x5CD25, offset: 0x5CD25, size: 0x8, addend: 0x0, symName: __ZNKSt3__114__split_bufferIfRNS_9allocatorIfEEE8capacityB8ne180100Ev, symObjAddr: 0x2AC38, symBinAddr: 0x10002C074, symSize: 0x40 }
  - { offsetInCU: 0x5CD4B, offset: 0x5CD4B, size: 0x8, addend: 0x0, symName: __ZNSt3__114__split_bufferIfRNS_9allocatorIfEEE17__destruct_at_endB8ne180100EPf, symObjAddr: 0x2AC78, symBinAddr: 0x10002C0B4, symSize: 0x2C }
  - { offsetInCU: 0x5CD7F, offset: 0x5CD7F, size: 0x8, addend: 0x0, symName: __ZNSt3__114__split_bufferIfRNS_9allocatorIfEEE17__destruct_at_endB8ne180100EPfNS_17integral_constantIbLb0EEE, symObjAddr: 0x2ACA4, symBinAddr: 0x10002C0E0, symSize: 0x80 }
  - { offsetInCU: 0x5CDC0, offset: 0x5CDC0, size: 0x8, addend: 0x0, symName: __ZNKSt3__114__split_bufferIfRNS_9allocatorIfEEE9__end_capB8ne180100Ev, symObjAddr: 0x2AD24, symBinAddr: 0x10002C160, symSize: 0x28 }
  - { offsetInCU: 0x5CDE6, offset: 0x5CDE6, size: 0x8, addend: 0x0, symName: __ZNKSt3__117__compressed_pairIPfRNS_9allocatorIfEEE5firstB8ne180100Ev, symObjAddr: 0x2AD4C, symBinAddr: 0x10002C188, symSize: 0x24 }
  - { offsetInCU: 0x5CE0C, offset: 0x5CE0C, size: 0x8, addend: 0x0, symName: __ZNSt3__16vectorIN7tinyobj18joint_and_weight_tENS_9allocatorIS2_EEE9__end_capB8ne180100Ev, symObjAddr: 0x2AD70, symBinAddr: 0x10002C1AC, symSize: 0x28 }
  - { offsetInCU: 0x5CE32, offset: 0x5CE32, size: 0x8, addend: 0x0, symName: __ZNSt3__16vectorIN7tinyobj18joint_and_weight_tENS_9allocatorIS2_EEE22__construct_one_at_endB8ne180100IJRKS2_EEEvDpOT_, symObjAddr: 0x2AD98, symBinAddr: 0x10002C1D4, symSize: 0x90 }
